
multizone.elf:     file format elf64-littleriscv


Disassembly of section .data:

0000000000011078 <__DATA_BEGIN__>:
   11078:	a431                	j	11284 <__DATA_BEGIN__+0x20c>
   1107a:	0001                	nop
   1107c:	8b39                	andi	a4,a4,14
   1107e:	c0a9                	beqz	s1,110c0 <__DATA_BEGIN__+0x48>
   11080:	764e                	ld	a2,240(sp)
   11082:	4d96cf87          	flq	ft11,1241(a3)
   11086:	3682                	fld	fa3,32(sp)
   11088:	e1f4                	sd	a3,192(a1)
   1108a:	4952                	lw	s2,20(sp)
   1108c:	8942                	mv	s2,a6
   1108e:	c1f94f83          	lbu	t6,-993(s2)
   11092:	1454                	addi	a3,sp,548
   11094:	2d8a                	fld	fs11,128(sp)
   11096:	8035                	srli	s0,s0,0xd
   11098:	5a7c                	lw	a5,116(a2)
   1109a:	7ba1                	lui	s7,0xfffe8
   1109c:	2000                	fld	fs0,0(s0)
   1109e:	2040                	fld	fs0,128(s0)
   110a0:	0000                	unimp
   110a2:	0000                	unimp
   110a4:	1b1d                	addi	s6,s6,-25
   110a6:	0000001b          	sext.w	zero,zero
	...
   110b2:	0000                	unimp
   110b4:	2fff                	0x2fff
   110b6:	0810                	addi	a2,sp,16
   110b8:	0dff                	0xdff
   110ba:	2000                	fld	fs0,0(s0)
   110bc:	4c1f 0400 0000      	0x4004c1f
	...
   110f2:	0000                	unimp
   110f4:	1b1d                	addi	s6,s6,-25
   110f6:	00001b1b          	slliw	s6,zero,0x0
	...
   11102:	0000                	unimp
   11104:	1bff                	0x1bff
   11106:	0810                	addi	a2,sp,16
   11108:	09ff                	0x9ff
   1110a:	2000                	fld	fs0,0(s0)
   1110c:	941f 0400 481f      	0x481f0400941f
   11112:	0400                	addi	s0,sp,512
	...
   11144:	1b1d                	addi	s6,s6,-25
   11146:	0000001b          	sext.w	zero,zero
	...
   11152:	0000                	unimp
   11154:	13ff                	0x13ff
   11156:	0810                	addi	a2,sp,16
   11158:	05ff                	0x5ff
   1115a:	2000                	fld	fs0,0(s0)
   1115c:	481f 0400 0000      	0x400481f
	...
   11192:	0000                	unimp
   11194:	1b1d                	addi	s6,s6,-25
	...
   111a2:	0000                	unimp
   111a4:	0dff                	0xdff
   111a6:	0810                	addi	a2,sp,16
   111a8:	02ff                	0x2ff
   111aa:	2000                	fld	fs0,0(s0)
	...
   111e4:	8000                	0x8000
   111e6:	2040                	fld	fs0,128(s0)
   111e8:	6000                	ld	s0,0(s0)
   111ea:	2040                	fld	fs0,128(s0)
   111ec:	4000                	lw	s0,0(s0)
   111ee:	2040                	fld	fs0,128(s0)
   111f0:	3000                	fld	fs0,32(s0)
   111f2:	2040                	fld	fs0,128(s0)
	...
   11204:	8000                	0x8000
   11206:	0000                	unimp
   11208:	2000                	fld	fs0,0(s0)
   1120a:	0000                	unimp
   1120c:	2000                	fld	fs0,0(s0)
   1120e:	0000                	unimp
   11210:	1000                	addi	s0,sp,32
   11212:	0000                	unimp
   11214:	0888                	addi	a0,sp,80
   11216:	0008                	0x8
   11218:	0088                	addi	a0,sp,64
   1121a:	00880007          	0x880007
   1121e:	0000                	unimp
   11220:	0088                	addi	a0,sp,64
   11222:	0000                	unimp
   11224:	0008                	0x8
	...
   11242:	0000                	unimp
   11244:	8001                	c.srli64	s0
   11246:	2040                	fld	fs0,128(s0)
   11248:	0000                	unimp
   1124a:	2041                	0x2041
   1124c:	80003003          	ld	zero,-2048(zero) # fffffffffffff800 <__BSS_END__+0xfffffffffffe2760>
   11250:	4000                	lw	s0,0(s0)
   11252:	8000                	0x8000
   11254:	10013003          	ld	zero,256(sp)
   11258:	3100                	fld	fs0,32(a0)
   1125a:	1001                	c.nop	-32
	...
   11284:	30001073          	csrw	mstatus,zero
   11288:	30401073          	csrw	mie,zero
   1128c:	34401073          	csrw	mip,zero
   11290:	34001073          	csrw	mscratch,zero
   11294:	30501073          	csrw	mtvec,zero
   11298:	34201073          	csrw	mcause,zero
   1129c:	34101073          	csrw	mepc,zero
   112a0:	34301073          	csrw	mtval,zero
   112a4:	b0001073          	csrw	mcycle,zero
   112a8:	b0201073          	csrw	minstret,zero
   112ac:	b0301073          	csrw	mhpmcounter3,zero
   112b0:	b0401073          	csrw	mhpmcounter4,zero
   112b4:	b8001073          	csrw	mcycleh,zero
   112b8:	b8201073          	csrw	minstreth,zero
   112bc:	b8301073          	csrw	mhpmcounter3h,zero
   112c0:	b8401073          	csrw	mhpmcounter4h,zero
   112c4:	57c00593          	li	a1,1404
   112c8:	c589                	beqz	a1,112d2 <__DATA_BEGIN__+0x25a>
   112ca:	f1102673          	csrr	a2,mvendorid
   112ce:	fec59be3          	bne	a1,a2,112c4 <__DATA_BEGIN__+0x24c>
   112d2:	4585                	li	a1,1
   112d4:	c589                	beqz	a1,112de <__DATA_BEGIN__+0x266>
   112d6:	f1202673          	csrr	a2,marchid
   112da:	fec59ce3          	bne	a1,a2,112d2 <__DATA_BEGIN__+0x25a>
   112de:	201815b7          	lui	a1,0x20181
   112e2:	0591                	addi	a1,a1,4
   112e4:	c589                	beqz	a1,112ee <__DATA_BEGIN__+0x276>
   112e6:	f1302673          	csrr	a2,mimpid
   112ea:	fec59ae3          	bne	a1,a2,112de <__DATA_BEGIN__+0x266>
   112ee:	401015b7          	lui	a1,0x40101
   112f2:	10558593          	addi	a1,a1,261 # 40101105 <__BSS_END__+0x400e4065>
   112f6:	30102673          	csrr	a2,misa
   112fa:	8e6d                	and	a2,a2,a1
   112fc:	fec599e3          	bne	a1,a2,112ee <__DATA_BEGIN__+0x276>
   11300:	00001517          	auipc	a0,0x1
   11304:	2dc50513          	addi	a0,a0,732 # 125dc <__DATA_BEGIN__+0x1564>
   11308:	00001597          	auipc	a1,0x1
   1130c:	79458593          	addi	a1,a1,1940 # 12a9c <__DATA_BEGIN__+0x1a24>
   11310:	e7c00617          	auipc	a2,0xe7c00
   11314:	d6860613          	addi	a2,a2,-664 # ffffffffe7c11078 <__BSS_END__+0xffffffffe7bf3fd8>
   11318:	4114                	lw	a3,0(a0)
   1131a:	c214                	sw	a3,0(a2)
   1131c:	0511                	addi	a0,a0,4
   1131e:	0611                	addi	a2,a2,4
   11320:	feb56ce3          	bltu	a0,a1,11318 <__DATA_BEGIN__+0x2a0>
   11324:	0000100f          	fence.i
   11328:	e7c00097          	auipc	ra,0xe7c00
   1132c:	d50080e7          	jalr	-688(ra) # ffffffffe7c11078 <__BSS_END__+0xffffffffe7bf3fd8>
   11330:	5fc00117          	auipc	sp,0x5fc00
   11334:	d4810113          	addi	sp,sp,-696 # 5fc11078 <__BSS_END__+0x5fbf3fd8>
   11338:	100c                	addi	a1,sp,32
   1133a:	4645                	li	a2,17
   1133c:	46bd                	li	a3,15
   1133e:	4702                	lw	a4,0(sp)
   11340:	00c71433          	sll	s0,a4,a2
   11344:	00d754b3          	srl	s1,a4,a3
   11348:	00946733          	or	a4,s0,s1
   1134c:	c03a                	sw	a4,0(sp)
   1134e:	1679                	addi	a2,a2,-2
   11350:	0689                	addi	a3,a3,2
   11352:	0111                	addi	sp,sp,4
   11354:	feb165e3          	bltu	sp,a1,1133e <__DATA_BEGIN__+0x2c6>
   11358:	5fc00517          	auipc	a0,0x5fc00
   1135c:	d2050513          	addi	a0,a0,-736 # 5fc11078 <__BSS_END__+0x5fbf3fd8>
   11360:	00000597          	auipc	a1,0x0
   11364:	d1c58593          	addi	a1,a1,-740 # 1107c <__DATA_BEGIN__+0x4>
   11368:	02050613          	addi	a2,a0,32
   1136c:	4114                	lw	a3,0(a0)
   1136e:	4198                	lw	a4,0(a1)
   11370:	fee69ee3          	bne	a3,a4,1136c <__DATA_BEGIN__+0x2f4>
   11374:	0511                	addi	a0,a0,4
   11376:	0591                	addi	a1,a1,4
   11378:	fec56ae3          	bltu	a0,a2,1136c <__DATA_BEGIN__+0x2f4>
   1137c:	00000417          	auipc	s0,0x0
   11380:	d2042403          	lw	s0,-736(s0) # 1109c <__DATA_BEGIN__+0x24>
   11384:	54fd                	li	s1,-1
   11386:	02940463          	beq	s0,s1,113ae <__DATA_BEGIN__+0x336>
   1138a:	00000497          	auipc	s1,0x0
   1138e:	01648493          	addi	s1,s1,22 # 113a0 <__DATA_BEGIN__+0x328>
   11392:	30549073          	csrw	mtvec,s1
   11396:	34049073          	csrw	mscratch,s1
   1139a:	00040067          	jr	s0
   1139e:	0001                	nop
   113a0:	30001073          	csrw	mstatus,zero
   113a4:	34202473          	csrr	s0,mcause
   113a8:	44ad                	li	s1,11
   113aa:	fc9419e3          	bne	s0,s1,1137c <__DATA_BEGIN__+0x304>
   113ae:	3a001073          	csrw	pmpcfg0,zero
   113b2:	3a002473          	csrr	s0,pmpcfg0
   113b6:	fc65                	bnez	s0,113ae <__DATA_BEGIN__+0x336>
   113b8:	3a101073          	csrw	pmpcfg1,zero
   113bc:	3a102473          	csrr	s0,pmpcfg1
   113c0:	fc65                	bnez	s0,113b8 <__DATA_BEGIN__+0x340>
   113c2:	00000517          	auipc	a0,0x0
   113c6:	23a50513          	addi	a0,a0,570 # 115fc <__DATA_BEGIN__+0x584>
   113ca:	00001597          	auipc	a1,0x1
   113ce:	21258593          	addi	a1,a1,530 # 125dc <__DATA_BEGIN__+0x1564>
   113d2:	e7c00617          	auipc	a2,0xe7c00
   113d6:	ca660613          	addi	a2,a2,-858 # ffffffffe7c11078 <__BSS_END__+0xffffffffe7bf3fd8>
   113da:	4114                	lw	a3,0(a0)
   113dc:	c214                	sw	a3,0(a2)
   113de:	0511                	addi	a0,a0,4
   113e0:	0611                	addi	a2,a2,4
   113e2:	feb56ce3          	bltu	a0,a1,113da <__DATA_BEGIN__+0x362>
   113e6:	0000100f          	fence.i
   113ea:	5fc00517          	auipc	a0,0x5fc00
   113ee:	c8e50513          	addi	a0,a0,-882 # 5fc11078 <__BSS_END__+0x5fbf3fd8>
   113f2:	5fc00597          	auipc	a1,0x5fc00
   113f6:	48658593          	addi	a1,a1,1158 # 5fc11878 <__BSS_END__+0x5fbf47d8>
   113fa:	00052023          	sw	zero,0(a0)
   113fe:	0511                	addi	a0,a0,4
   11400:	feb56de3          	bltu	a0,a1,113fa <__DATA_BEGIN__+0x382>
   11404:	5fc00197          	auipc	gp,0x5fc00
   11408:	1b418193          	addi	gp,gp,436 # 5fc115b8 <__BSS_END__+0x5fbf4518>
   1140c:	5fc00417          	auipc	s0,0x5fc00
   11410:	c6c40413          	addi	s0,s0,-916 # 5fc11078 <__BSS_END__+0x5fbf3fd8>
   11414:	0081a023          	sw	s0,0(gp) # 1c8a0 <__global_pointer$>
   11418:	15040413          	addi	s0,s0,336
   1141c:	0081a223          	sw	s0,4(gp) # 1c8a4 <__global_pointer$+0x4>
   11420:	15040413          	addi	s0,s0,336
   11424:	0081a423          	sw	s0,8(gp) # 1c8a8 <__global_pointer$+0x8>
   11428:	15040413          	addi	s0,s0,336
   1142c:	0081a623          	sw	s0,12(gp) # 1c8ac <__global_pointer$+0xc>
   11430:	10c18413          	addi	s0,gp,268 # 1c9ac <__global_pointer$+0x10c>
   11434:	2a81ae23          	sw	s0,700(gp) # 1cb5c <__global_pointer$+0x2bc>
   11438:	54fd                	li	s1,-1
   1143a:	0c91a023          	sw	s1,192(gp) # 1c960 <__global_pointer$+0xc0>
   1143e:	0c91a223          	sw	s1,196(gp) # 1c964 <__global_pointer$+0xc4>
   11442:	02004437          	lui	s0,0x2004
   11446:	c004                	sw	s1,0(s0)
   11448:	c044                	sw	s1,4(s0)
   1144a:	0200c437          	lui	s0,0x200c
   1144e:	1461                	addi	s0,s0,-8
   11450:	00042023          	sw	zero,0(s0) # 200c000 <__BSS_END__+0x1feef60>
   11454:	00042223          	sw	zero,4(s0)
   11458:	0e91ac23          	sw	s1,248(gp) # 1c998 <__global_pointer$+0xf8>
   1145c:	1091a023          	sw	s1,256(gp) # 1c9a0 <__global_pointer$+0x100>
   11460:	0e919823          	sh	s1,240(gp) # 1c990 <__global_pointer$+0xf0>
   11464:	0e919a23          	sh	s1,244(gp) # 1c994 <__global_pointer$+0xf4>
   11468:	6505                	lui	a0,0x1
   1146a:	88850513          	addi	a0,a0,-1912 # 888 <_binary_multizone_bin_size-0xb79c>
   1146e:	30451073          	csrw	mie,a0
   11472:	5fc00117          	auipc	sp,0x5fc00
   11476:	c0610113          	addi	sp,sp,-1018 # 5fc11078 <__BSS_END__+0x5fbf3fd8>
   1147a:	5fc00217          	auipc	tp,0x5fc00
   1147e:	13e20213          	addi	tp,tp,318 # 5fc115b8 <__BSS_END__+0x5fbf4518>
   11482:	00000517          	auipc	a0,0x0
   11486:	c2250513          	addi	a0,a0,-990 # 110a4 <__DATA_BEGIN__+0x2c>
   1148a:	00000597          	auipc	a1,0x0
   1148e:	d8a58593          	addi	a1,a1,-630 # 11214 <__DATA_BEGIN__+0x19c>
   11492:	00000617          	auipc	a2,0x0
   11496:	d9260613          	addi	a2,a2,-622 # 11224 <__DATA_BEGIN__+0x1ac>
   1149a:	00000697          	auipc	a3,0x0
   1149e:	d5a68693          	addi	a3,a3,-678 # 111f4 <__DATA_BEGIN__+0x17c>
   114a2:	00000717          	auipc	a4,0x0
   114a6:	d4270713          	addi	a4,a4,-702 # 111e4 <__DATA_BEGIN__+0x16c>
   114aa:	00000797          	auipc	a5,0x0
   114ae:	d5a78793          	addi	a5,a5,-678 # 11204 <__DATA_BEGIN__+0x18c>
   114b2:	4280                	lw	s0,0(a3)
   114b4:	cc19                	beqz	s0,114d2 <__DATA_BEGIN__+0x45a>
   114b6:	4304                	lw	s1,0(a4)
   114b8:	0007a283          	lw	t0,0(a5)
   114bc:	92a2                	add	t0,t0,s0
   114be:	00042303          	lw	t1,0(s0)
   114c2:	0064a023          	sw	t1,0(s1)
   114c6:	0411                	addi	s0,s0,4
   114c8:	0491                	addi	s1,s1,4
   114ca:	fe546ae3          	bltu	s0,t0,114be <__DATA_BEGIN__+0x446>
   114ce:	0000100f          	fence.i
   114d2:	4180                	lw	s0,0(a1)
   114d4:	12812a23          	sw	s0,308(sp)
   114d8:	00415493          	srli	s1,sp,0x4
   114dc:	888d                	andi	s1,s1,3
   114de:	00249293          	slli	t0,s1,0x2
   114e2:	6341                	lui	t1,0x10
   114e4:	01018393          	addi	t2,gp,16 # 1c8b0 <__global_pointer$+0x10>
   114e8:	006474b3          	and	s1,s0,t1
   114ec:	c099                	beqz	s1,114f2 <__DATA_BEGIN__+0x47a>
   114ee:	00538023          	sb	t0,0(t2)
   114f2:	0385                	addi	t2,t2,1
   114f4:	0306                	slli	t1,t1,0x1
   114f6:	fe0319e3          	bnez	t1,114e8 <__DATA_BEGIN__+0x470>
   114fa:	00018393          	mv	t2,gp
   114fe:	4200                	lw	s0,0(a2)
   11500:	4305                	li	t1,1
   11502:	006474b3          	and	s1,s0,t1
   11506:	c099                	beqz	s1,1150c <__DATA_BEGIN__+0x494>
   11508:	04538023          	sb	t0,64(t2)
   1150c:	0385                	addi	t2,t2,1
   1150e:	0306                	slli	t1,t1,0x1
   11510:	fe0319e3          	bnez	t1,11502 <__DATA_BEGIN__+0x48a>
   11514:	4240                	lw	s0,4(a2)
   11516:	4305                	li	t1,1
   11518:	006474b3          	and	s1,s0,t1
   1151c:	c099                	beqz	s1,11522 <__DATA_BEGIN__+0x4aa>
   1151e:	04538023          	sb	t0,64(t2)
   11522:	0385                	addi	t2,t2,1
   11524:	0306                	slli	t1,t1,0x1
   11526:	fe0319e3          	bnez	t1,11518 <__DATA_BEGIN__+0x4a0>
   1152a:	00062283          	lw	t0,0(a2)
   1152e:	12512c23          	sw	t0,312(sp)
   11532:	00462283          	lw	t0,4(a2)
   11536:	12512e23          	sw	t0,316(sp)
   1153a:	537d                	li	t1,-1
   1153c:	12612623          	sw	t1,300(sp)
   11540:	12612823          	sw	t1,304(sp)
   11544:	4300                	lw	s0,0(a4)
   11546:	c022                	sw	s0,0(sp)
   11548:	cda2                	sw	s0,216(sp)
   1154a:	e401                	bnez	s0,11552 <__DATA_BEGIN__+0x4da>
   1154c:	4405                	li	s0,1
   1154e:	14810623          	sb	s0,332(sp)
   11552:	0104                	addi	s1,sp,128
   11554:	05050293          	addi	t0,a0,80
   11558:	00052303          	lw	t1,0(a0)
   1155c:	0064a023          	sw	t1,0(s1)
   11560:	0511                	addi	a0,a0,4
   11562:	0491                	addi	s1,s1,4
   11564:	fe556ae3          	bltu	a0,t0,11558 <__DATA_BEGIN__+0x4e0>
   11568:	0591                	addi	a1,a1,4
   1156a:	0621                	addi	a2,a2,8
   1156c:	0691                	addi	a3,a3,4
   1156e:	0711                	addi	a4,a4,4
   11570:	0791                	addi	a5,a5,4
   11572:	6171                	addi	sp,sp,336
   11574:	f2416fe3          	bltu	sp,tp,114b2 <__DATA_BEGIN__+0x43a>
   11578:	e7c00417          	auipc	s0,0xe7c00
   1157c:	e2440413          	addi	s0,s0,-476 # ffffffffe7c1139c <__BSS_END__+0xffffffffe7bf42fc>
   11580:	30541073          	csrw	mtvec,s0
   11584:	00000417          	auipc	s0,0x0
   11588:	c6042403          	lw	s0,-928(s0) # 111e4 <__DATA_BEGIN__+0x16c>
   1158c:	34141073          	csrw	mepc,s0
   11590:	5fc00117          	auipc	sp,0x5fc00
   11594:	ae810113          	addi	sp,sp,-1304 # 5fc11078 <__BSS_END__+0x5fbf3fd8>
   11598:	34011073          	csrw	mscratch,sp
   1159c:	0c21a823          	sw	sp,208(gp) # 1c970 <__global_pointer$+0xd0>
   115a0:	e7c00097          	auipc	ra,0xe7c00
   115a4:	144080e7          	jalr	324(ra) # ffffffffe7c116e4 <__BSS_END__+0xffffffffe7bf4644>
   115a8:	e7c00097          	auipc	ra,0xe7c00
   115ac:	170080e7          	jalr	368(ra) # ffffffffe7c11718 <__BSS_END__+0xffffffffe7bf4678>
   115b0:	e7c00097          	auipc	ra,0xe7c00
   115b4:	0f6080e7          	jalr	246(ra) # ffffffffe7c116a6 <__BSS_END__+0xffffffffe7bf4606>
   115b8:	4081                	li	ra,0
   115ba:	4101                	li	sp,0
   115bc:	4181                	li	gp,0
   115be:	4201                	li	tp,0
   115c0:	4281                	li	t0,0
   115c2:	4301                	li	t1,0
   115c4:	4381                	li	t2,0
   115c6:	4401                	li	s0,0
   115c8:	4481                	li	s1,0
   115ca:	4501                	li	a0,0
   115cc:	4581                	li	a1,0
   115ce:	4601                	li	a2,0
   115d0:	4681                	li	a3,0
   115d2:	4701                	li	a4,0
   115d4:	4781                	li	a5,0
   115d6:	4801                	li	a6,0
   115d8:	4881                	li	a7,0
   115da:	4901                	li	s2,0
   115dc:	4981                	li	s3,0
   115de:	4a01                	li	s4,0
   115e0:	4a81                	li	s5,0
   115e2:	4b01                	li	s6,0
   115e4:	4b81                	li	s7,0
   115e6:	4c01                	li	s8,0
   115e8:	4c81                	li	s9,0
   115ea:	4d01                	li	s10,0
   115ec:	4d81                	li	s11,0
   115ee:	4e01                	li	t3,0
   115f0:	4e81                	li	t4,0
   115f2:	4f01                	li	t5,0
   115f4:	4f81                	li	t6,0
   115f6:	30200073          	mret
   115fa:	0001                	nop
   115fc:	341024f3          	csrr	s1,mepc
   11600:	0491                	addi	s1,s1,4
   11602:	34149073          	csrw	mepc,s1
   11606:	c11d                	beqz	a0,1162c <__DATA_BEGIN__+0x5b4>
   11608:	4421                	li	s0,8
   1160a:	30a46563          	bltu	s0,a0,11914 <__DATA_BEGIN__+0x89c>
   1160e:	00000497          	auipc	s1,0x0
   11612:	00151413          	slli	s0,a0,0x1
   11616:	94a2                	add	s1,s1,s0
   11618:	00c48067          	jr	12(s1) # 1161a <__DATA_BEGIN__+0x5a2>
   1161c:	a885                	j	1168c <__DATA_BEGIN__+0x614>
   1161e:	a2b1                	j	1176a <__DATA_BEGIN__+0x6f2>
   11620:	a25d                	j	117c6 <__DATA_BEGIN__+0x74e>
   11622:	a2cd                	j	11804 <__DATA_BEGIN__+0x78c>
   11624:	aadd                	j	1181a <__DATA_BEGIN__+0x7a2>
   11626:	aafd                	j	11824 <__DATA_BEGIN__+0x7ac>
   11628:	a431                	j	11834 <__DATA_BEGIN__+0x7bc>
   1162a:	a42d                	j	11854 <__DATA_BEGIN__+0x7dc>
   1162c:	0d01a483          	lw	s1,208(gp) # 1c970 <__global_pointer$+0xd0>
   11630:	78000317          	auipc	t1,0x78000
   11634:	50c30313          	addi	t1,t1,1292 # 78011b3c <__BSS_END__+0x77ff4a9c>
   11638:	4291                	li	t0,4
   1163a:	15048493          	addi	s1,s1,336
   1163e:	00649663          	bne	s1,t1,1164a <__DATA_BEGIN__+0x5d2>
   11642:	78000497          	auipc	s1,0x78000
   11646:	fba48493          	addi	s1,s1,-70 # 780115fc <__BSS_END__+0x77ff455c>
   1164a:	14c4c403          	lbu	s0,332(s1)
   1164e:	e801                	bnez	s0,1165e <__DATA_BEGIN__+0x5e6>
   11650:	0c91a823          	sw	s1,208(gp) # 1c970 <__global_pointer$+0xd0>
   11654:	00248363          	beq	s1,sp,1165a <__DATA_BEGIN__+0x5e2>
   11658:	2ba1                	addiw	s7,s7,8
   1165a:	2539                	addiw	a0,a0,14
   1165c:	a94d                	j	11b0e <__DATA_BEGIN__+0xa96>
   1165e:	12fd                	addi	t0,t0,-1
   11660:	fc029de3          	bnez	t0,1163a <__DATA_BEGIN__+0x5c2>
   11664:	0001a483          	lw	s1,0(gp) # 1c8a0 <__global_pointer$>
   11668:	00248363          	beq	s1,sp,1166e <__DATA_BEGIN__+0x5f6>
   1166c:	2391                	addiw	t2,t2,4
   1166e:	547d                	li	s0,-1
   11670:	0c81a023          	sw	s0,192(gp) # 1c960 <__global_pointer$+0xc0>
   11674:	0c81a223          	sw	s0,196(gp) # 1c964 <__global_pointer$+0xc4>
   11678:	4485                	li	s1,1
   1167a:	0c918a23          	sb	s1,212(gp) # 1c974 <__global_pointer$+0xd4>
   1167e:	2d39                	addiw	s10,s10,14
   11680:	34201073          	csrw	mcause,zero
   11684:	10500073          	wfi
   11688:	23c5                	addiw	t2,t2,17
   1168a:	a151                	j	11b0e <__DATA_BEGIN__+0xa96>
   1168c:	444e                	lw	s0,208(sp)
   1168e:	8821                	andi	s0,s0,8
   11690:	ec2d                	bnez	s0,1170a <__DATA_BEGIN__+0x692>
   11692:	445e                	lw	s0,212(sp)
   11694:	08047413          	andi	s0,s0,128
   11698:	c805                	beqz	s0,116c8 <__DATA_BEGIN__+0x650>
   1169a:	0200c0b7          	lui	ra,0x200c
   1169e:	ffc0a303          	lw	t1,-4(ra) # 200bffc <__BSS_END__+0x1feef5c>
   116a2:	ff80a283          	lw	t0,-8(ra)
   116a6:	ffc0a083          	lw	ra,-4(ra)
   116aa:	fe6098e3          	bne	ra,t1,1169a <__DATA_BEGIN__+0x622>
   116ae:	12c12403          	lw	s0,300(sp)
   116b2:	13012483          	lw	s1,304(sp)
   116b6:	00930563          	beq	t1,s1,116c0 <__DATA_BEGIN__+0x648>
   116ba:	009330b3          	sltu	ra,t1,s1
   116be:	a019                	j	116c4 <__DATA_BEGIN__+0x64c>
   116c0:	0082b0b3          	sltu	ra,t0,s0
   116c4:	0a008263          	beqz	ra,11768 <__DATA_BEGIN__+0x6f0>
   116c8:	445e                	lw	s0,212(sp)
   116ca:	00847493          	andi	s1,s0,8
   116ce:	c481                	beqz	s1,116d6 <__DATA_BEGIN__+0x65e>
   116d0:	14d14483          	lbu	s1,333(sp)
   116d4:	e8d1                	bnez	s1,11768 <__DATA_BEGIN__+0x6f0>
   116d6:	74c1                	lui	s1,0xffff0
   116d8:	8ce1                	and	s1,s1,s0
   116da:	c489                	beqz	s1,116e4 <__DATA_BEGIN__+0x66c>
   116dc:	344024f3          	csrr	s1,mip
   116e0:	8ce1                	and	s1,s1,s0
   116e2:	e0d9                	bnez	s1,11768 <__DATA_BEGIN__+0x6f0>
   116e4:	6485                	lui	s1,0x1
   116e6:	80048493          	addi	s1,s1,-2048 # 800 <_binary_multizone_bin_size-0xb824>
   116ea:	8ce1                	and	s1,s1,s0
   116ec:	cc99                	beqz	s1,1170a <__DATA_BEGIN__+0x692>
   116ee:	0c0012b7          	lui	t0,0xc001
   116f2:	14012403          	lw	s0,320(sp)
   116f6:	0002a483          	lw	s1,0(t0) # c001000 <__BSS_END__+0xbfe3f60>
   116fa:	8c65                	and	s0,s0,s1
   116fc:	e435                	bnez	s0,11768 <__DATA_BEGIN__+0x6f0>
   116fe:	14412403          	lw	s0,324(sp)
   11702:	0042a483          	lw	s1,4(t0)
   11706:	8c65                	and	s0,s0,s1
   11708:	e025                	bnez	s0,11768 <__DATA_BEGIN__+0x6f0>
   1170a:	445e                	lw	s0,212(sp)
   1170c:	74c1                	lui	s1,0xffff0
   1170e:	8ce1                	and	s1,s1,s0
   11710:	3044a073          	csrs	mie,s1
   11714:	08047493          	andi	s1,s0,128
   11718:	c099                	beqz	s1,1171e <__DATA_BEGIN__+0x6a6>
   1171a:	0c918a23          	sb	s1,212(gp) # 1c974 <__global_pointer$+0xd4>
   1171e:	00847493          	andi	s1,s0,8
   11722:	c889                	beqz	s1,11734 <__DATA_BEGIN__+0x6bc>
   11724:	14d14483          	lbu	s1,333(sp)
   11728:	c491                	beqz	s1,11734 <__DATA_BEGIN__+0x6bc>
   1172a:	4305                	li	t1,1
   1172c:	020004b7          	lui	s1,0x2000
   11730:	0064a023          	sw	t1,0(s1) # 2000000 <__BSS_END__+0x1fe2f60>
   11734:	6485                	lui	s1,0x1
   11736:	80048493          	addi	s1,s1,-2048 # 800 <_binary_multizone_bin_size-0xb824>
   1173a:	8c65                	and	s0,s0,s1
   1173c:	c01d                	beqz	s0,11762 <__DATA_BEGIN__+0x6ea>
   1173e:	0c0022b7          	lui	t0,0xc002
   11742:	14012403          	lw	s0,320(sp)
   11746:	c411                	beqz	s0,11752 <__DATA_BEGIN__+0x6da>
   11748:	0002a483          	lw	s1,0(t0) # c002000 <__BSS_END__+0xbfe4f60>
   1174c:	8cc1                	or	s1,s1,s0
   1174e:	0092a023          	sw	s1,0(t0)
   11752:	14412403          	lw	s0,324(sp)
   11756:	c411                	beqz	s0,11762 <__DATA_BEGIN__+0x6ea>
   11758:	0042a483          	lw	s1,4(t0)
   1175c:	8cc1                	or	s1,s1,s0
   1175e:	0092a223          	sw	s1,4(t0)
   11762:	4405                	li	s0,1
   11764:	14810623          	sb	s0,332(sp)
   11768:	b5d1                	j	1162c <__DATA_BEGIN__+0x5b4>
   1176a:	fff58313          	addi	t1,a1,-1
   1176e:	440d                	li	s0,3
   11770:	1a646263          	bltu	s0,t1,11914 <__DATA_BEGIN__+0x89c>
   11774:	00231413          	slli	s0,t1,0x2
   11778:	940e                	add	s0,s0,gp
   1177a:	00042283          	lw	t0,0(s0)
   1177e:	0002a503          	lw	a0,0(t0)
   11782:	c129                	beqz	a0,117c4 <__DATA_BEGIN__+0x74c>
   11784:	00415313          	srli	t1,sp,0x4
   11788:	00337313          	andi	t1,t1,3
   1178c:	14d2c483          	lbu	s1,333(t0)
   11790:	4505                	li	a0,1
   11792:	00651433          	sll	s0,a0,t1
   11796:	00947533          	and	a0,s0,s1
   1179a:	00153513          	seqz	a0,a0
   1179e:	cd11                	beqz	a0,117ba <__DATA_BEGIN__+0x742>
   117a0:	0312                	slli	t1,t1,0x4
   117a2:	9316                	add	t1,t1,t0
   117a4:	0ec32623          	sw	a2,236(t1)
   117a8:	0ee32a23          	sw	a4,244(t1)
   117ac:	0ed32823          	sw	a3,240(t1)
   117b0:	0ef32c23          	sw	a5,248(t1)
   117b4:	8cc1                	or	s1,s1,s0
   117b6:	149286a3          	sb	s1,333(t0)
   117ba:	4485                	li	s1,1
   117bc:	02000437          	lui	s0,0x2000
   117c0:	00942023          	sw	s1,0(s0) # 2000000 <__BSS_END__+0x1fe2f60>
   117c4:	a6a9                	j	11b0e <__DATA_BEGIN__+0xa96>
   117c6:	fff58293          	addi	t0,a1,-1
   117ca:	440d                	li	s0,3
   117cc:	14546463          	bltu	s0,t0,11914 <__DATA_BEGIN__+0x89c>
   117d0:	14d14483          	lbu	s1,333(sp)
   117d4:	4505                	li	a0,1
   117d6:	00551433          	sll	s0,a0,t0
   117da:	00947533          	and	a0,s0,s1
   117de:	00a03533          	snez	a0,a0
   117e2:	c105                	beqz	a0,11802 <__DATA_BEGIN__+0x78a>
   117e4:	0292                	slli	t0,t0,0x4
   117e6:	928a                	add	t0,t0,sp
   117e8:	0ec2a603          	lw	a2,236(t0)
   117ec:	0f42a703          	lw	a4,244(t0)
   117f0:	0f02a683          	lw	a3,240(t0)
   117f4:	0f82a783          	lw	a5,248(t0)
   117f8:	fff44413          	not	s0,s0
   117fc:	8ce1                	and	s1,s1,s0
   117fe:	149106a3          	sb	s1,333(sp)
   11802:	a631                	j	11b0e <__DATA_BEGIN__+0xa96>
   11804:	0200c437          	lui	s0,0x200c
   11808:	ffc42583          	lw	a1,-4(s0) # 200bffc <__BSS_END__+0x1feef5c>
   1180c:	ff842503          	lw	a0,-8(s0)
   11810:	ffc42403          	lw	s0,-4(s0)
   11814:	feb418e3          	bne	s0,a1,11804 <__DATA_BEGIN__+0x78c>
   11818:	acdd                	j	11b0e <__DATA_BEGIN__+0xa96>
   1181a:	12c12503          	lw	a0,300(sp)
   1181e:	13012583          	lw	a1,304(sp)
   11822:	a4f5                	j	11b0e <__DATA_BEGIN__+0xa96>
   11824:	12b12623          	sw	a1,300(sp)
   11828:	12c12823          	sw	a2,304(sp)
   1182c:	4485                	li	s1,1
   1182e:	0c918a23          	sb	s1,212(gp) # 1c974 <__global_pointer$+0xd4>
   11832:	acf1                	j	11b0e <__DATA_BEGIN__+0xa96>
   11834:	0200c437          	lui	s0,0x200c
   11838:	ffc42303          	lw	t1,-4(s0) # 200bffc <__BSS_END__+0x1feef5c>
   1183c:	ff842283          	lw	t0,-8(s0)
   11840:	ffc42403          	lw	s0,-4(s0)
   11844:	fe6418e3          	bne	s0,t1,11834 <__DATA_BEGIN__+0x7bc>
   11848:	9596                	add	a1,a1,t0
   1184a:	961a                	add	a2,a2,t1
   1184c:	0055f363          	bgeu	a1,t0,11852 <__DATA_BEGIN__+0x7da>
   11850:	0605                	addi	a2,a2,1
   11852:	bfc9                	j	11824 <__DATA_BEGIN__+0x7ac>
   11854:	4499                	li	s1,6
   11856:	00b4e963          	bltu	s1,a1,11868 <__DATA_BEGIN__+0x7f0>
   1185a:	00259493          	slli	s1,a1,0x2
   1185e:	002482b3          	add	t0,s1,sp
   11862:	0d02a503          	lw	a0,208(t0)
   11866:	a075                	j	11912 <__DATA_BEGIN__+0x89a>
   11868:	44d1                	li	s1,20
   1186a:	06b4e663          	bltu	s1,a1,118d6 <__DATA_BEGIN__+0x85e>
   1186e:	00259413          	slli	s0,a1,0x2
   11872:	00159493          	slli	s1,a1,0x1
   11876:	94a2                	add	s1,s1,s0
   11878:	00000417          	auipc	s0,0x0
   1187c:	9426                	add	s0,s0,s1
   1187e:	fe040067          	jr	-32(s0) # 11858 <__DATA_BEGIN__+0x7e0>
   11882:	34402573          	csrr	a0,mip
   11886:	a071                	j	11912 <__DATA_BEGIN__+0x89a>
   11888:	30102573          	csrr	a0,misa
   1188c:	a059                	j	11912 <__DATA_BEGIN__+0x89a>
   1188e:	f1102573          	csrr	a0,mvendorid
   11892:	a041                	j	11912 <__DATA_BEGIN__+0x89a>
   11894:	f1202573          	csrr	a0,marchid
   11898:	a8ad                	j	11912 <__DATA_BEGIN__+0x89a>
   1189a:	f1302573          	csrr	a0,mimpid
   1189e:	a895                	j	11912 <__DATA_BEGIN__+0x89a>
   118a0:	f1402573          	csrr	a0,mhartid
   118a4:	a0bd                	j	11912 <__DATA_BEGIN__+0x89a>
   118a6:	b0002573          	csrr	a0,mcycle
   118aa:	a0a5                	j	11912 <__DATA_BEGIN__+0x89a>
   118ac:	b0202573          	csrr	a0,minstret
   118b0:	a08d                	j	11912 <__DATA_BEGIN__+0x89a>
   118b2:	b0302573          	csrr	a0,mhpmcounter3
   118b6:	a8b1                	j	11912 <__DATA_BEGIN__+0x89a>
   118b8:	b0402573          	csrr	a0,mhpmcounter4
   118bc:	a899                	j	11912 <__DATA_BEGIN__+0x89a>
   118be:	b8002573          	csrr	a0,mcycleh
   118c2:	a881                	j	11912 <__DATA_BEGIN__+0x89a>
   118c4:	b8202573          	csrr	a0,minstreth
   118c8:	a0a9                	j	11912 <__DATA_BEGIN__+0x89a>
   118ca:	b8302573          	csrr	a0,mhpmcounter3h
   118ce:	a091                	j	11912 <__DATA_BEGIN__+0x89a>
   118d0:	b8402573          	csrr	a0,mhpmcounter4h
   118d4:	a83d                	j	11912 <__DATA_BEGIN__+0x89a>
   118d6:	44e9                	li	s1,26
   118d8:	02b4ec63          	bltu	s1,a1,11910 <__DATA_BEGIN__+0x898>
   118dc:	feb58413          	addi	s0,a1,-21
   118e0:	040a                	slli	s0,s0,0x2
   118e2:	940e                	add	s0,s0,gp
   118e4:	0f042503          	lw	a0,240(s0)
   118e8:	02959363          	bne	a1,s1,1190e <__DATA_BEGIN__+0x896>
   118ec:	54fd                	li	s1,-1
   118ee:	0e91ac23          	sw	s1,248(gp) # 1c998 <__global_pointer$+0xf8>
   118f2:	0e01ae23          	sw	zero,252(gp) # 1c99c <__global_pointer$+0xfc>
   118f6:	1091a023          	sw	s1,256(gp) # 1c9a0 <__global_pointer$+0x100>
   118fa:	1001a223          	sw	zero,260(gp) # 1c9a4 <__global_pointer$+0x104>
   118fe:	0e919823          	sh	s1,240(gp) # 1c990 <__global_pointer$+0xf0>
   11902:	0e019923          	sh	zero,242(gp) # 1c992 <__global_pointer$+0xf2>
   11906:	0e919a23          	sh	s1,244(gp) # 1c994 <__global_pointer$+0xf4>
   1190a:	0e019b23          	sh	zero,246(gp) # 1c996 <__global_pointer$+0xf6>
   1190e:	a011                	j	11912 <__DATA_BEGIN__+0x89a>
   11910:	a011                	j	11914 <__DATA_BEGIN__+0x89c>
   11912:	aaf5                	j	11b0e <__DATA_BEGIN__+0xa96>
   11914:	34102473          	csrr	s0,mepc
   11918:	1471                	addi	s0,s0,-4
   1191a:	34141073          	csrw	mepc,s0
   1191e:	a289                	j	11a60 <__DATA_BEGIN__+0x9e8>
   11920:	34011173          	csrrw	sp,mscratch,sp
   11924:	c206                	sw	ra,4(sp)
   11926:	c60e                	sw	gp,12(sp)
   11928:	78000197          	auipc	gp,0x78000
   1192c:	21418193          	addi	gp,gp,532 # 78011b3c <__BSS_END__+0x77ff4a9c>
   11930:	ca16                	sw	t0,20(sp)
   11932:	cc1a                	sw	t1,24(sp)
   11934:	d022                	sw	s0,32(sp)
   11936:	d226                	sw	s1,36(sp)
   11938:	0cc0000f          	fence	io,io
   1193c:	b02024f3          	csrr	s1,minstret
   11940:	b0002473          	csrr	s0,mcycle
   11944:	0e81a423          	sw	s0,232(gp) # 1c988 <__global_pointer$+0xe8>
   11948:	0e91a623          	sw	s1,236(gp) # 1c98c <__global_pointer$+0xec>
   1194c:	342024f3          	csrr	s1,mcause
   11950:	3ff4f413          	andi	s0,s1,1023
   11954:	3e04d463          	bgez	s1,11d3c <__DATA_BEGIN__+0xcc4>
   11958:	344022f3          	csrr	t0,mip
   1195c:	0802f293          	andi	t0,t0,128
   11960:	00028663          	beqz	t0,1196c <__DATA_BEGIN__+0x8f4>
   11964:	0cc1a283          	lw	t0,204(gp) # 1c96c <__global_pointer$+0xcc>
   11968:	cc0282e3          	beqz	t0,1162c <__DATA_BEGIN__+0x5b4>
   1196c:	44c1                	li	s1,16
   1196e:	00946963          	bltu	s0,s1,11980 <__DATA_BEGIN__+0x908>
   11972:	008184b3          	add	s1,gp,s0
   11976:	0004c483          	lbu	s1,0(s1)
   1197a:	948e                	add	s1,s1,gp
   1197c:	4084                	lw	s1,0(s1)
   1197e:	a8bd                	j	119fc <__DATA_BEGIN__+0x984>
   11980:	44ad                	li	s1,11
   11982:	00849f63          	bne	s1,s0,119a0 <__DATA_BEGIN__+0x928>
   11986:	0c2002b7          	lui	t0,0xc200
   1198a:	0042a403          	lw	s0,4(t0) # c200004 <__BSS_END__+0xc1e2f64>
   1198e:	008184b3          	add	s1,gp,s0
   11992:	0404c483          	lbu	s1,64(s1)
   11996:	948e                	add	s1,s1,gp
   11998:	4084                	lw	s1,0(s1)
   1199a:	1484a423          	sw	s0,328(s1)
   1199e:	a8b9                	j	119fc <__DATA_BEGIN__+0x984>
   119a0:	449d                	li	s1,7
   119a2:	00849563          	bne	s1,s0,119ac <__DATA_BEGIN__+0x934>
   119a6:	0cc1a483          	lw	s1,204(gp) # 1c96c <__global_pointer$+0xcc>
   119aa:	a889                	j	119fc <__DATA_BEGIN__+0x984>
   119ac:	448d                	li	s1,3
   119ae:	04849163          	bne	s1,s0,119f0 <__DATA_BEGIN__+0x978>
   119b2:	02000437          	lui	s0,0x2000
   119b6:	00042023          	sw	zero,0(s0) # 2000000 <__BSS_END__+0x1fe2f60>
   119ba:	78000497          	auipc	s1,0x78000
   119be:	c4248493          	addi	s1,s1,-958 # 780115fc <__BSS_END__+0x77ff455c>
   119c2:	78000317          	auipc	t1,0x78000
   119c6:	17a30313          	addi	t1,t1,378 # 78011b3c <__BSS_END__+0x77ff4a9c>
   119ca:	14d4c403          	lbu	s0,333(s1)
   119ce:	cc01                	beqz	s0,119e6 <__DATA_BEGIN__+0x96e>
   119d0:	0d44a403          	lw	s0,212(s1)
   119d4:	8821                	andi	s0,s0,8
   119d6:	c801                	beqz	s0,119e6 <__DATA_BEGIN__+0x96e>
   119d8:	0d04a403          	lw	s0,208(s1)
   119dc:	8821                	andi	s0,s0,8
   119de:	ec19                	bnez	s0,119fc <__DATA_BEGIN__+0x984>
   119e0:	14c4c403          	lbu	s0,332(s1)
   119e4:	ec01                	bnez	s0,119fc <__DATA_BEGIN__+0x984>
   119e6:	15048493          	addi	s1,s1,336
   119ea:	fe64e0e3          	bltu	s1,t1,119ca <__DATA_BEGIN__+0x952>
   119ee:	a205                	j	11b0e <__DATA_BEGIN__+0xa96>
   119f0:	4485                	li	s1,1
   119f2:	008494b3          	sll	s1,s1,s0
   119f6:	3044b073          	csrc	mie,s1
   119fa:	aa11                	j	11b0e <__DATA_BEGIN__+0xa96>
   119fc:	00248463          	beq	s1,sp,11a04 <__DATA_BEGIN__+0x98c>
   11a00:	2a45                	addiw	s4,s4,17
   11a02:	249d                	addiw	s1,s1,7
   11a04:	14c14403          	lbu	s0,332(sp)
   11a08:	cc21                	beqz	s0,11a60 <__DATA_BEGIN__+0x9e8>
   11a0a:	14010623          	sb	zero,332(sp)
   11a0e:	444e                	lw	s0,208(sp)
   11a10:	8821                	andi	s0,s0,8
   11a12:	e439                	bnez	s0,11a60 <__DATA_BEGIN__+0x9e8>
   11a14:	445e                	lw	s0,212(sp)
   11a16:	74c1                	lui	s1,0xffff0
   11a18:	8ce1                	and	s1,s1,s0
   11a1a:	3044b073          	csrc	mie,s1
   11a1e:	08047493          	andi	s1,s0,128
   11a22:	c099                	beqz	s1,11a28 <__DATA_BEGIN__+0x9b0>
   11a24:	0c918a23          	sb	s1,212(gp) # 1c974 <__global_pointer$+0xd4>
   11a28:	6485                	lui	s1,0x1
   11a2a:	80048493          	addi	s1,s1,-2048 # 800 <_binary_multizone_bin_size-0xb824>
   11a2e:	8c65                	and	s0,s0,s1
   11a30:	c41d                	beqz	s0,11a5e <__DATA_BEGIN__+0x9e6>
   11a32:	0c0022b7          	lui	t0,0xc002
   11a36:	13812403          	lw	s0,312(sp)
   11a3a:	c801                	beqz	s0,11a4a <__DATA_BEGIN__+0x9d2>
   11a3c:	0002a483          	lw	s1,0(t0) # c002000 <__BSS_END__+0xbfe4f60>
   11a40:	fff44413          	not	s0,s0
   11a44:	8ce1                	and	s1,s1,s0
   11a46:	0092a023          	sw	s1,0(t0)
   11a4a:	13c12403          	lw	s0,316(sp)
   11a4e:	c801                	beqz	s0,11a5e <__DATA_BEGIN__+0x9e6>
   11a50:	0042a483          	lw	s1,4(t0)
   11a54:	fff44413          	not	s0,s0
   11a58:	8ce1                	and	s1,s1,s0
   11a5a:	0092a223          	sw	s1,4(t0)
   11a5e:	a845                	j	11b0e <__DATA_BEGIN__+0xa96>
   11a60:	34202473          	csrr	s0,mcause
   11a64:	d3a2                	sw	s0,228(sp)
   11a66:	34302473          	csrr	s0,mtval
   11a6a:	d5a2                	sw	s0,232(sp)
   11a6c:	34102473          	csrr	s0,mepc
   11a70:	d1a2                	sw	s0,224(sp)
   11a72:	444e                	lw	s0,208(sp)
   11a74:	0412                	slli	s0,s0,0x4
   11a76:	c9a2                	sw	s0,208(sp)
   11a78:	445e                	lw	s0,212(sp)
   11a7a:	74c1                	lui	s1,0xffff0
   11a7c:	8ce1                	and	s1,s1,s0
   11a7e:	3044b073          	csrc	mie,s1
   11a82:	08047493          	andi	s1,s0,128
   11a86:	c099                	beqz	s1,11a8c <__DATA_BEGIN__+0xa14>
   11a88:	0c918a23          	sb	s1,212(gp) # 1c974 <__global_pointer$+0xd4>
   11a8c:	6485                	lui	s1,0x1
   11a8e:	80048493          	addi	s1,s1,-2048 # 800 <_binary_multizone_bin_size-0xb824>
   11a92:	8c65                	and	s0,s0,s1
   11a94:	c41d                	beqz	s0,11ac2 <__DATA_BEGIN__+0xa4a>
   11a96:	0c0022b7          	lui	t0,0xc002
   11a9a:	13812403          	lw	s0,312(sp)
   11a9e:	c801                	beqz	s0,11aae <__DATA_BEGIN__+0xa36>
   11aa0:	0002a483          	lw	s1,0(t0) # c002000 <__BSS_END__+0xbfe4f60>
   11aa4:	fff44413          	not	s0,s0
   11aa8:	8ce1                	and	s1,s1,s0
   11aaa:	0092a023          	sw	s1,0(t0)
   11aae:	13c12403          	lw	s0,316(sp)
   11ab2:	c801                	beqz	s0,11ac2 <__DATA_BEGIN__+0xa4a>
   11ab4:	0042a483          	lw	s1,4(t0)
   11ab8:	fff44413          	not	s0,s0
   11abc:	8ce1                	and	s1,s1,s0
   11abe:	0092a223          	sw	s1,4(t0)
   11ac2:	446e                	lw	s0,216(sp)
   11ac4:	00147493          	andi	s1,s0,1
   11ac8:	c0a9                	beqz	s1,11b0a <__DATA_BEGIN__+0xa92>
   11aca:	9871                	andi	s0,s0,-4
   11acc:	549e                	lw	s1,228(sp)
   11ace:	0004d463          	bgez	s1,11ad6 <__DATA_BEGIN__+0xa5e>
   11ad2:	048a                	slli	s1,s1,0x2
   11ad4:	9426                	add	s0,s0,s1
   11ad6:	00042303          	lw	t1,0(s0)
   11ada:	82a2                	mv	t0,s0
   11adc:	000ff4b7          	lui	s1,0xff
   11ae0:	00937433          	and	s0,t1,s1
   11ae4:	7fe004b7          	lui	s1,0x7fe00
   11ae8:	009374b3          	and	s1,t1,s1
   11aec:	80d1                	srli	s1,s1,0x14
   11aee:	8c45                	or	s0,s0,s1
   11af0:	001004b7          	lui	s1,0x100
   11af4:	009374b3          	and	s1,t1,s1
   11af8:	80a5                	srli	s1,s1,0x9
   11afa:	8c45                	or	s0,s0,s1
   11afc:	800004b7          	lui	s1,0x80000
   11b00:	009374b3          	and	s1,t1,s1
   11b04:	84ad                	srai	s1,s1,0xb
   11b06:	8c45                	or	s0,s0,s1
   11b08:	9416                	add	s0,s0,t0
   11b0a:	34141073          	csrw	mepc,s0
   11b0e:	2279                	addiw	tp,tp,30
   11b10:	b0202473          	csrr	s0,minstret
   11b14:	b00024f3          	csrr	s1,mcycle
   11b18:	0ec1a283          	lw	t0,236(gp) # 1c98c <__global_pointer$+0xec>
   11b1c:	40540433          	sub	s0,s0,t0
   11b20:	0441                	addi	s0,s0,16
   11b22:	0e81a303          	lw	t1,232(gp) # 1c988 <__global_pointer$+0xe8>
   11b26:	406484b3          	sub	s1,s1,t1
   11b2a:	02048493          	addi	s1,s1,32 # ffffffff80000020 <__BSS_END__+0xffffffff7ffe2f80>
   11b2e:	342022f3          	csrr	t0,mcause
   11b32:	06028563          	beqz	t0,11b9c <__DATA_BEGIN__+0xb24>
   11b36:	02504b63          	bgtz	t0,11b6c <__DATA_BEGIN__+0xaf4>
   11b3a:	0f01d283          	lhu	t0,240(gp) # 1c990 <__global_pointer$+0xf0>
   11b3e:	00547463          	bgeu	s0,t0,11b46 <__DATA_BEGIN__+0xace>
   11b42:	0e819823          	sh	s0,240(gp) # 1c990 <__global_pointer$+0xf0>
   11b46:	0f21d283          	lhu	t0,242(gp) # 1c992 <__global_pointer$+0xf2>
   11b4a:	0082f463          	bgeu	t0,s0,11b52 <__DATA_BEGIN__+0xada>
   11b4e:	0e819923          	sh	s0,242(gp) # 1c992 <__global_pointer$+0xf2>
   11b52:	0f41d283          	lhu	t0,244(gp) # 1c994 <__global_pointer$+0xf4>
   11b56:	0054f463          	bgeu	s1,t0,11b5e <__DATA_BEGIN__+0xae6>
   11b5a:	0e919a23          	sh	s1,244(gp) # 1c994 <__global_pointer$+0xf4>
   11b5e:	0f61d283          	lhu	t0,246(gp) # 1c996 <__global_pointer$+0xf6>
   11b62:	0092f463          	bgeu	t0,s1,11b6a <__DATA_BEGIN__+0xaf2>
   11b66:	0e919b23          	sh	s1,246(gp) # 1c996 <__global_pointer$+0xf6>
   11b6a:	a80d                	j	11b9c <__DATA_BEGIN__+0xb24>
   11b6c:	0f81a283          	lw	t0,248(gp) # 1c998 <__global_pointer$+0xf8>
   11b70:	00547463          	bgeu	s0,t0,11b78 <__DATA_BEGIN__+0xb00>
   11b74:	0e81ac23          	sw	s0,248(gp) # 1c998 <__global_pointer$+0xf8>
   11b78:	0fc1a283          	lw	t0,252(gp) # 1c99c <__global_pointer$+0xfc>
   11b7c:	0082f463          	bgeu	t0,s0,11b84 <__DATA_BEGIN__+0xb0c>
   11b80:	0e81ae23          	sw	s0,252(gp) # 1c99c <__global_pointer$+0xfc>
   11b84:	1001a283          	lw	t0,256(gp) # 1c9a0 <__global_pointer$+0x100>
   11b88:	0054f463          	bgeu	s1,t0,11b90 <__DATA_BEGIN__+0xb18>
   11b8c:	1091a023          	sw	s1,256(gp) # 1c9a0 <__global_pointer$+0x100>
   11b90:	1041a283          	lw	t0,260(gp) # 1c9a4 <__global_pointer$+0x104>
   11b94:	0092f463          	bgeu	t0,s1,11b9c <__DATA_BEGIN__+0xb24>
   11b98:	1091a223          	sw	s1,260(gp) # 1c9a4 <__global_pointer$+0x104>
   11b9c:	4092                	lw	ra,4(sp)
   11b9e:	41b2                	lw	gp,12(sp)
   11ba0:	42d2                	lw	t0,20(sp)
   11ba2:	4362                	lw	t1,24(sp)
   11ba4:	5402                	lw	s0,32(sp)
   11ba6:	5492                	lw	s1,36(sp)
   11ba8:	34011173          	csrrw	sp,mscratch,sp
   11bac:	30200073          	mret
   11bb0:	34102473          	csrr	s0,mepc
   11bb4:	c022                	sw	s0,0(sp)
   11bb6:	34002473          	csrr	s0,mscratch
   11bba:	c422                	sw	s0,8(sp)
   11bbc:	c812                	sw	tp,16(sp)
   11bbe:	ce1e                	sw	t2,28(sp)
   11bc0:	d42a                	sw	a0,40(sp)
   11bc2:	d62e                	sw	a1,44(sp)
   11bc4:	d832                	sw	a2,48(sp)
   11bc6:	da36                	sw	a3,52(sp)
   11bc8:	dc3a                	sw	a4,56(sp)
   11bca:	de3e                	sw	a5,60(sp)
   11bcc:	c0c2                	sw	a6,64(sp)
   11bce:	c2c6                	sw	a7,68(sp)
   11bd0:	c4ca                	sw	s2,72(sp)
   11bd2:	c6ce                	sw	s3,76(sp)
   11bd4:	c8d2                	sw	s4,80(sp)
   11bd6:	cad6                	sw	s5,84(sp)
   11bd8:	ccda                	sw	s6,88(sp)
   11bda:	cede                	sw	s7,92(sp)
   11bdc:	d0e2                	sw	s8,96(sp)
   11bde:	d2e6                	sw	s9,100(sp)
   11be0:	d4ea                	sw	s10,104(sp)
   11be2:	d6ee                	sw	s11,108(sp)
   11be4:	d8f2                	sw	t3,112(sp)
   11be6:	daf6                	sw	t4,116(sp)
   11be8:	dcfa                	sw	t5,120(sp)
   11bea:	defe                	sw	t6,124(sp)
   11bec:	8126                	mv	sp,s1
   11bee:	4402                	lw	s0,0(sp)
   11bf0:	34141073          	csrw	mepc,s0
   11bf4:	4422                	lw	s0,8(sp)
   11bf6:	34041073          	csrw	mscratch,s0
   11bfa:	4242                	lw	tp,16(sp)
   11bfc:	43f2                	lw	t2,28(sp)
   11bfe:	5522                	lw	a0,40(sp)
   11c00:	55b2                	lw	a1,44(sp)
   11c02:	5642                	lw	a2,48(sp)
   11c04:	56d2                	lw	a3,52(sp)
   11c06:	5762                	lw	a4,56(sp)
   11c08:	57f2                	lw	a5,60(sp)
   11c0a:	4806                	lw	a6,64(sp)
   11c0c:	4896                	lw	a7,68(sp)
   11c0e:	4926                	lw	s2,72(sp)
   11c10:	49b6                	lw	s3,76(sp)
   11c12:	4a46                	lw	s4,80(sp)
   11c14:	4ad6                	lw	s5,84(sp)
   11c16:	4b66                	lw	s6,88(sp)
   11c18:	4bf6                	lw	s7,92(sp)
   11c1a:	5c06                	lw	s8,96(sp)
   11c1c:	5c96                	lw	s9,100(sp)
   11c1e:	5d26                	lw	s10,104(sp)
   11c20:	5db6                	lw	s11,108(sp)
   11c22:	5e46                	lw	t3,112(sp)
   11c24:	5ed6                	lw	t4,116(sp)
   11c26:	5f66                	lw	t5,120(sp)
   11c28:	5ff6                	lw	t6,124(sp)
   11c2a:	440a                	lw	s0,128(sp)
   11c2c:	3a041073          	csrw	pmpcfg0,s0
   11c30:	444a                	lw	s0,144(sp)
   11c32:	3b041073          	csrw	pmpaddr0,s0
   11c36:	445a                	lw	s0,148(sp)
   11c38:	3b141073          	csrw	pmpaddr1,s0
   11c3c:	446a                	lw	s0,152(sp)
   11c3e:	3b241073          	csrw	pmpaddr2,s0
   11c42:	447a                	lw	s0,156(sp)
   11c44:	3b341073          	csrw	pmpaddr3,s0
   11c48:	441a                	lw	s0,132(sp)
   11c4a:	3a141073          	csrw	pmpcfg1,s0
   11c4e:	540a                	lw	s0,160(sp)
   11c50:	3b441073          	csrw	pmpaddr4,s0
   11c54:	541a                	lw	s0,164(sp)
   11c56:	3b541073          	csrw	pmpaddr5,s0
   11c5a:	542a                	lw	s0,168(sp)
   11c5c:	3b641073          	csrw	pmpaddr6,s0
   11c60:	543a                	lw	s0,172(sp)
   11c62:	3b741073          	csrw	pmpaddr7,s0
   11c66:	8082                	ret
   11c68:	00000337          	lui	t1,0x0
   11c6c:	0a430313          	addi	t1,t1,164 # a4 <_binary_multizone_bin_size-0xbf80>
   11c70:	0200c2b7          	lui	t0,0x200c
   11c74:	ffc2a483          	lw	s1,-4(t0) # 200bffc <__BSS_END__+0x1feef5c>
   11c78:	ff82a403          	lw	s0,-8(t0)
   11c7c:	ffc2a283          	lw	t0,-4(t0)
   11c80:	fe9298e3          	bne	t0,s1,11c70 <__DATA_BEGIN__+0xbf8>
   11c84:	941a                	add	s0,s0,t1
   11c86:	00643333          	sltu	t1,s0,t1
   11c8a:	949a                	add	s1,s1,t1
   11c8c:	0c81a023          	sw	s0,192(gp) # 1c960 <__global_pointer$+0xc0>
   11c90:	0c91a223          	sw	s1,196(gp) # 1c964 <__global_pointer$+0xc4>
   11c94:	4485                	li	s1,1
   11c96:	0c918a23          	sb	s1,212(gp) # 1c974 <__global_pointer$+0xd4>
   11c9a:	8082                	ret
   11c9c:	0d41c403          	lbu	s0,212(gp) # 1c974 <__global_pointer$+0xd4>
   11ca0:	cc49                	beqz	s0,11d3a <__DATA_BEGIN__+0xcc2>
   11ca2:	d42a                	sw	a0,40(sp)
   11ca4:	d62e                	sw	a1,44(sp)
   11ca6:	d832                	sw	a2,48(sp)
   11ca8:	da36                	sw	a3,52(sp)
   11caa:	dc3a                	sw	a4,56(sp)
   11cac:	de3e                	sw	a5,60(sp)
   11cae:	78000297          	auipc	t0,0x78000
   11cb2:	94e28293          	addi	t0,t0,-1714 # 780115fc <__BSS_END__+0x77ff455c>
   11cb6:	78000317          	auipc	t1,0x78000
   11cba:	e8630313          	addi	t1,t1,-378 # 78011b3c <__BSS_END__+0x77ff4a9c>
   11cbe:	4481                	li	s1,0
   11cc0:	0c01a603          	lw	a2,192(gp) # 1c960 <__global_pointer$+0xc0>
   11cc4:	0c41a683          	lw	a3,196(gp) # 1c964 <__global_pointer$+0xc4>
   11cc8:	0200c437          	lui	s0,0x200c
   11ccc:	ffc42783          	lw	a5,-4(s0) # 200bffc <__BSS_END__+0x1feef5c>
   11cd0:	ff842703          	lw	a4,-8(s0)
   11cd4:	ffc42403          	lw	s0,-4(s0)
   11cd8:	fef418e3          	bne	s0,a5,11cc8 <__DATA_BEGIN__+0xc50>
   11cdc:	0d42a403          	lw	s0,212(t0)
   11ce0:	08047413          	andi	s0,s0,128
   11ce4:	c41d                	beqz	s0,11d12 <__DATA_BEGIN__+0xc9a>
   11ce6:	0d02a403          	lw	s0,208(t0)
   11cea:	8821                	andi	s0,s0,8
   11cec:	e401                	bnez	s0,11cf4 <__DATA_BEGIN__+0xc7c>
   11cee:	14c2c403          	lbu	s0,332(t0)
   11cf2:	c005                	beqz	s0,11d12 <__DATA_BEGIN__+0xc9a>
   11cf4:	12c2a503          	lw	a0,300(t0)
   11cf8:	1302a583          	lw	a1,304(t0)
   11cfc:	00d58563          	beq	a1,a3,11d06 <__DATA_BEGIN__+0xc8e>
   11d00:	00d5b433          	sltu	s0,a1,a3
   11d04:	a019                	j	11d0a <__DATA_BEGIN__+0xc92>
   11d06:	00c53433          	sltu	s0,a0,a2
   11d0a:	c401                	beqz	s0,11d12 <__DATA_BEGIN__+0xc9a>
   11d0c:	8496                	mv	s1,t0
   11d0e:	862a                	mv	a2,a0
   11d10:	86ae                	mv	a3,a1
   11d12:	15028293          	addi	t0,t0,336
   11d16:	fc62e3e3          	bltu	t0,t1,11cdc <__DATA_BEGIN__+0xc64>
   11d1a:	02004337          	lui	t1,0x2004
   11d1e:	00c32023          	sw	a2,0(t1) # 2004000 <__BSS_END__+0x1fe6f60>
   11d22:	00d32223          	sw	a3,4(t1)
   11d26:	0c91a623          	sw	s1,204(gp) # 1c96c <__global_pointer$+0xcc>
   11d2a:	5522                	lw	a0,40(sp)
   11d2c:	55b2                	lw	a1,44(sp)
   11d2e:	5642                	lw	a2,48(sp)
   11d30:	56d2                	lw	a3,52(sp)
   11d32:	5762                	lw	a4,56(sp)
   11d34:	57f2                	lw	a5,60(sp)
   11d36:	0c018a23          	sb	zero,212(gp) # 1c974 <__global_pointer$+0xd4>
   11d3a:	8082                	ret
   11d3c:	300024f3          	csrr	s1,mstatus
   11d40:	04ce                	slli	s1,s1,0x13
   11d42:	0004d663          	bgez	s1,11d4e <__DATA_BEGIN__+0xcd6>
   11d46:	18400317          	auipc	t1,0x18400
   11d4a:	8b630067          	jr	-1866(t1) # 184115fc <__BSS_END__+0x183f455c>
   11d4e:	4489                	li	s1,2
   11d50:	00940c63          	beq	s0,s1,11d68 <__DATA_BEGIN__+0xcf0>
   11d54:	449d                	li	s1,7
   11d56:	38940263          	beq	s0,s1,120da <__DATA_BEGIN__+0x1062>
   11d5a:	4495                	li	s1,5
   11d5c:	36940f63          	beq	s0,s1,120da <__DATA_BEGIN__+0x1062>
   11d60:	44a1                	li	s1,8
   11d62:	00940ee3          	beq	s0,s1,1257e <__DATA_BEGIN__+0x1506>
   11d66:	b9ed                	j	11a60 <__DATA_BEGIN__+0x9e8>
   11d68:	34302473          	csrr	s0,mtval
   11d6c:	003004b7          	lui	s1,0x300
   11d70:	07348493          	addi	s1,s1,115 # 300073 <__BSS_END__+0x2e2fd3>
   11d74:	889404e3          	beq	s0,s1,115fc <__DATA_BEGIN__+0x584>
   11d78:	105004b7          	lui	s1,0x10500
   11d7c:	07348493          	addi	s1,s1,115 # 10500073 <__BSS_END__+0x104e2fd3>
   11d80:	00941863          	bne	s0,s1,11d90 <__DATA_BEGIN__+0xd18>
   11d84:	341024f3          	csrr	s1,mepc
   11d88:	0491                	addi	s1,s1,4
   11d8a:	34149073          	csrw	mepc,s1
   11d8e:	b8fd                	j	1168c <__DATA_BEGIN__+0x614>
   11d90:	302004b7          	lui	s1,0x30200
   11d94:	07348493          	addi	s1,s1,115 # 30200073 <__BSS_END__+0x301e2fd3>
   11d98:	06941763          	bne	s0,s1,11e06 <__DATA_BEGIN__+0xd8e>
   11d9c:	540e                	lw	s0,224(sp)
   11d9e:	34141073          	csrw	mepc,s0
   11da2:	444e                	lw	s0,208(sp)
   11da4:	8011                	srli	s0,s0,0x4
   11da6:	c9a2                	sw	s0,208(sp)
   11da8:	8821                	andi	s0,s0,8
   11daa:	cc29                	beqz	s0,11e04 <__DATA_BEGIN__+0xd8c>
   11dac:	445e                	lw	s0,212(sp)
   11dae:	74c1                	lui	s1,0xffff0
   11db0:	8ce1                	and	s1,s1,s0
   11db2:	3044a073          	csrs	mie,s1
   11db6:	08047493          	andi	s1,s0,128
   11dba:	c099                	beqz	s1,11dc0 <__DATA_BEGIN__+0xd48>
   11dbc:	0c918a23          	sb	s1,212(gp) # 1c974 <__global_pointer$+0xd4>
   11dc0:	00847493          	andi	s1,s0,8
   11dc4:	c889                	beqz	s1,11dd6 <__DATA_BEGIN__+0xd5e>
   11dc6:	14d14483          	lbu	s1,333(sp)
   11dca:	c491                	beqz	s1,11dd6 <__DATA_BEGIN__+0xd5e>
   11dcc:	4305                	li	t1,1
   11dce:	020004b7          	lui	s1,0x2000
   11dd2:	0064a023          	sw	t1,0(s1) # 2000000 <__BSS_END__+0x1fe2f60>
   11dd6:	6485                	lui	s1,0x1
   11dd8:	80048493          	addi	s1,s1,-2048 # 800 <_binary_multizone_bin_size-0xb824>
   11ddc:	8c65                	and	s0,s0,s1
   11dde:	c01d                	beqz	s0,11e04 <__DATA_BEGIN__+0xd8c>
   11de0:	0c0022b7          	lui	t0,0xc002
   11de4:	14012403          	lw	s0,320(sp)
   11de8:	c411                	beqz	s0,11df4 <__DATA_BEGIN__+0xd7c>
   11dea:	0002a483          	lw	s1,0(t0) # c002000 <__BSS_END__+0xbfe4f60>
   11dee:	8cc1                	or	s1,s1,s0
   11df0:	0092a023          	sw	s1,0(t0)
   11df4:	14412403          	lw	s0,324(sp)
   11df8:	c411                	beqz	s0,11e04 <__DATA_BEGIN__+0xd8c>
   11dfa:	0042a483          	lw	s1,4(t0)
   11dfe:	8cc1                	or	s1,s1,s0
   11e00:	0092a223          	sw	s1,4(t0)
   11e04:	b329                	j	11b0e <__DATA_BEGIN__+0xa96>
   11e06:	07f47493          	andi	s1,s0,127
   11e0a:	0734c493          	xori	s1,s1,115
   11e0e:	1e049f63          	bnez	s1,1200c <__DATA_BEGIN__+0xf94>
   11e12:	00c45493          	srli	s1,s0,0xc
   11e16:	889d                	andi	s1,s1,7
   11e18:	1e048a63          	beqz	s1,1200c <__DATA_BEGIN__+0xf94>
   11e1c:	01445493          	srli	s1,s0,0x14
   11e20:	30000293          	li	t0,768
   11e24:	0d000313          	li	t1,208
   11e28:	02548c63          	beq	s1,t0,11e60 <__DATA_BEGIN__+0xde8>
   11e2c:	0291                	addi	t0,t0,4
   11e2e:	0311                	addi	t1,t1,4
   11e30:	02548863          	beq	s1,t0,11e60 <__DATA_BEGIN__+0xde8>
   11e34:	0285                	addi	t0,t0,1
   11e36:	0311                	addi	t1,t1,4
   11e38:	02548463          	beq	s1,t0,11e60 <__DATA_BEGIN__+0xde8>
   11e3c:	03b28293          	addi	t0,t0,59
   11e40:	0311                	addi	t1,t1,4
   11e42:	00548f63          	beq	s1,t0,11e60 <__DATA_BEGIN__+0xde8>
   11e46:	0285                	addi	t0,t0,1
   11e48:	0311                	addi	t1,t1,4
   11e4a:	00548b63          	beq	s1,t0,11e60 <__DATA_BEGIN__+0xde8>
   11e4e:	0285                	addi	t0,t0,1
   11e50:	0311                	addi	t1,t1,4
   11e52:	00548763          	beq	s1,t0,11e60 <__DATA_BEGIN__+0xde8>
   11e56:	0285                	addi	t0,t0,1
   11e58:	0311                	addi	t1,t1,4
   11e5a:	00548363          	beq	s1,t0,11e60 <__DATA_BEGIN__+0xde8>
   11e5e:	aa45                	j	1200e <__DATA_BEGIN__+0xf96>
   11e60:	1061a423          	sw	t1,264(gp) # 1c9a8 <__global_pointer$+0x108>
   11e64:	930a                	add	t1,t1,sp
   11e66:	00032283          	lw	t0,0(t1)
   11e6a:	00f45493          	srli	s1,s0,0xf
   11e6e:	01f4f313          	andi	t1,s1,31
   11e72:	00c45493          	srli	s1,s0,0xc
   11e76:	8891                	andi	s1,s1,4
   11e78:	e085                	bnez	s1,11e98 <__DATA_BEGIN__+0xe20>
   11e7a:	00030f63          	beqz	t1,11e98 <__DATA_BEGIN__+0xe20>
   11e7e:	00533093          	sltiu	ra,t1,5
   11e82:	18009563          	bnez	ra,1200c <__DATA_BEGIN__+0xf94>
   11e86:	00000097          	auipc	ra,0x0
   11e8a:	68c08093          	addi	ra,ra,1676 # 12512 <__DATA_BEGIN__+0x149a>
   11e8e:	00231493          	slli	s1,t1,0x2
   11e92:	90a6                	add	ra,ra,s1
   11e94:	fec080e7          	jalr	-20(ra)
   11e98:	00745493          	srli	s1,s0,0x7
   11e9c:	88fd                	andi	s1,s1,31
   11e9e:	cc89                	beqz	s1,11eb8 <__DATA_BEGIN__+0xe40>
   11ea0:	0054b093          	sltiu	ra,s1,5
   11ea4:	16009463          	bnez	ra,1200c <__DATA_BEGIN__+0xf94>
   11ea8:	00000097          	auipc	ra,0x0
   11eac:	5fe08093          	addi	ra,ra,1534 # 124a6 <__DATA_BEGIN__+0x142e>
   11eb0:	048a                	slli	s1,s1,0x2
   11eb2:	90a6                	add	ra,ra,s1
   11eb4:	fec080e7          	jalr	-20(ra)
   11eb8:	00c45493          	srli	s1,s0,0xc
   11ebc:	888d                	andi	s1,s1,3
   11ebe:	0014c493          	xori	s1,s1,1
   11ec2:	c88d                	beqz	s1,11ef4 <__DATA_BEGIN__+0xe7c>
   11ec4:	00c45493          	srli	s1,s0,0xc
   11ec8:	8899                	andi	s1,s1,6
   11eca:	0024c493          	xori	s1,s1,2
   11ece:	e491                	bnez	s1,11eda <__DATA_BEGIN__+0xe62>
   11ed0:	00f45493          	srli	s1,s0,0xf
   11ed4:	88fd                	andi	s1,s1,31
   11ed6:	12048563          	beqz	s1,12000 <__DATA_BEGIN__+0xf88>
   11eda:	00c45493          	srli	s1,s0,0xc
   11ede:	888d                	andi	s1,s1,3
   11ee0:	0024c493          	xori	s1,s1,2
   11ee4:	e481                	bnez	s1,11eec <__DATA_BEGIN__+0xe74>
   11ee6:	0062e333          	or	t1,t0,t1
   11eea:	a029                	j	11ef4 <__DATA_BEGIN__+0xe7c>
   11eec:	fff34313          	not	t1,t1
   11ef0:	0062f333          	and	t1,t0,t1
   11ef4:	10628663          	beq	t0,t1,12000 <__DATA_BEGIN__+0xf88>
   11ef8:	1081a483          	lw	s1,264(gp) # 1c9a8 <__global_pointer$+0x108>
   11efc:	002480b3          	add	ra,s1,sp
   11f00:	0d400413          	li	s0,212
   11f04:	00941763          	bne	s0,s1,11f12 <__DATA_BEGIN__+0xe9a>
   11f08:	13412403          	lw	s0,308(sp)
   11f0c:	00647333          	and	t1,s0,t1
   11f10:	a809                	j	11f22 <__DATA_BEGIN__+0xeaa>
   11f12:	0d000413          	li	s0,208
   11f16:	0e941363          	bne	s0,s1,11ffc <__DATA_BEGIN__+0xf84>
   11f1a:	08800493          	li	s1,136
   11f1e:	0064f333          	and	t1,s1,t1
   11f22:	445e                	lw	s0,212(sp)
   11f24:	44ce                	lw	s1,208(sp)
   11f26:	8c45                	or	s0,s0,s1
   11f28:	08847293          	andi	t0,s0,136
   11f2c:	0060a023          	sw	t1,0(ra)
   11f30:	74c1                	lui	s1,0xffff0
   11f32:	13412403          	lw	s0,308(sp)
   11f36:	8c65                	and	s0,s0,s1
   11f38:	30443073          	csrc	mie,s0
   11f3c:	444e                	lw	s0,208(sp)
   11f3e:	8821                	andi	s0,s0,8
   11f40:	c409                	beqz	s0,11f4a <__DATA_BEGIN__+0xed2>
   11f42:	445e                	lw	s0,212(sp)
   11f44:	8c65                	and	s0,s0,s1
   11f46:	30442073          	csrs	mie,s0
   11f4a:	445e                	lw	s0,212(sp)
   11f4c:	44ce                	lw	s1,208(sp)
   11f4e:	8c45                	or	s0,s0,s1
   11f50:	08847313          	andi	t1,s0,136
   11f54:	00628563          	beq	t0,t1,11f5e <__DATA_BEGIN__+0xee6>
   11f58:	4485                	li	s1,1
   11f5a:	0c918a23          	sb	s1,212(gp) # 1c974 <__global_pointer$+0xd4>
   11f5e:	445e                	lw	s0,212(sp)
   11f60:	8821                	andi	s0,s0,8
   11f62:	cc01                	beqz	s0,11f7a <__DATA_BEGIN__+0xf02>
   11f64:	444e                	lw	s0,208(sp)
   11f66:	8821                	andi	s0,s0,8
   11f68:	c809                	beqz	s0,11f7a <__DATA_BEGIN__+0xf02>
   11f6a:	14d14403          	lbu	s0,333(sp)
   11f6e:	c411                	beqz	s0,11f7a <__DATA_BEGIN__+0xf02>
   11f70:	4485                	li	s1,1
   11f72:	02000437          	lui	s0,0x2000
   11f76:	00942023          	sw	s1,0(s0) # 2000000 <__BSS_END__+0x1fe2f60>
   11f7a:	13412403          	lw	s0,308(sp)
   11f7e:	6485                	lui	s1,0x1
   11f80:	80048493          	addi	s1,s1,-2048 # 800 <_binary_multizone_bin_size-0xb824>
   11f84:	8c65                	and	s0,s0,s1
   11f86:	c835                	beqz	s0,11ffa <__DATA_BEGIN__+0xf82>
   11f88:	0c0020b7          	lui	ra,0xc002
   11f8c:	13812403          	lw	s0,312(sp)
   11f90:	c801                	beqz	s0,11fa0 <__DATA_BEGIN__+0xf28>
   11f92:	0000a483          	lw	s1,0(ra) # c002000 <__BSS_END__+0xbfe4f60>
   11f96:	fff44413          	not	s0,s0
   11f9a:	8ce1                	and	s1,s1,s0
   11f9c:	0090a023          	sw	s1,0(ra)
   11fa0:	13c12403          	lw	s0,316(sp)
   11fa4:	c801                	beqz	s0,11fb4 <__DATA_BEGIN__+0xf3c>
   11fa6:	0040a483          	lw	s1,4(ra)
   11faa:	fff44413          	not	s0,s0
   11fae:	8ce1                	and	s1,s1,s0
   11fb0:	0090a223          	sw	s1,4(ra)
   11fb4:	444e                	lw	s0,208(sp)
   11fb6:	8821                	andi	s0,s0,8
   11fb8:	c029                	beqz	s0,11ffa <__DATA_BEGIN__+0xf82>
   11fba:	445e                	lw	s0,212(sp)
   11fbc:	6305                	lui	t1,0x1
   11fbe:	80030313          	addi	t1,t1,-2048 # 800 <_binary_multizone_bin_size-0xb824>
   11fc2:	00837433          	and	s0,t1,s0
   11fc6:	c815                	beqz	s0,11ffa <__DATA_BEGIN__+0xf82>
   11fc8:	14012403          	lw	s0,320(sp)
   11fcc:	c411                	beqz	s0,11fd8 <__DATA_BEGIN__+0xf60>
   11fce:	0000a483          	lw	s1,0(ra)
   11fd2:	8cc1                	or	s1,s1,s0
   11fd4:	0090a023          	sw	s1,0(ra)
   11fd8:	14412403          	lw	s0,324(sp)
   11fdc:	c411                	beqz	s0,11fe8 <__DATA_BEGIN__+0xf70>
   11fde:	0040a483          	lw	s1,4(ra)
   11fe2:	8cc1                	or	s1,s1,s0
   11fe4:	0090a223          	sw	s1,4(ra)
   11fe8:	14812403          	lw	s0,328(sp)
   11fec:	c419                	beqz	s0,11ffa <__DATA_BEGIN__+0xf82>
   11fee:	80000337          	lui	t1,0x80000
   11ff2:	032d                	addi	t1,t1,11
   11ff4:	34231073          	csrw	mcause,t1
   11ff8:	d39a                	sw	t1,228(sp)
   11ffa:	a019                	j	12000 <__DATA_BEGIN__+0xf88>
   11ffc:	0060a023          	sw	t1,0(ra)
   12000:	34102473          	csrr	s0,mepc
   12004:	0411                	addi	s0,s0,4
   12006:	34141073          	csrw	mepc,s0
   1200a:	b611                	j	11b0e <__DATA_BEGIN__+0xa96>
   1200c:	bc91                	j	11a60 <__DATA_BEGIN__+0x9e8>
   1200e:	00c45293          	srli	t0,s0,0xc
   12012:	0ff2f293          	andi	t0,t0,255
   12016:	0022c293          	xori	t0,t0,2
   1201a:	a40293e3          	bnez	t0,11a60 <__DATA_BEGIN__+0x9e8>
   1201e:	00745313          	srli	t1,s0,0x7
   12022:	01f37313          	andi	t1,t1,31
   12026:	00533293          	sltiu	t0,t1,5
   1202a:	a2029be3          	bnez	t0,11a60 <__DATA_BEGIN__+0x9e8>
   1202e:	34400293          	li	t0,836
   12032:	00929563          	bne	t0,s1,1203c <__DATA_BEGIN__+0xfc4>
   12036:	344022f3          	csrr	t0,mip
   1203a:	a89d                	j	120b0 <__DATA_BEGIN__+0x1038>
   1203c:	6285                	lui	t0,0x1
   1203e:	b0028293          	addi	t0,t0,-1280 # b00 <_binary_multizone_bin_size-0xb524>
   12042:	00929563          	bne	t0,s1,1204c <__DATA_BEGIN__+0xfd4>
   12046:	b00022f3          	csrr	t0,mcycle
   1204a:	a09d                	j	120b0 <__DATA_BEGIN__+0x1038>
   1204c:	0289                	addi	t0,t0,2
   1204e:	00929563          	bne	t0,s1,12058 <__DATA_BEGIN__+0xfe0>
   12052:	b02022f3          	csrr	t0,minstret
   12056:	a8a9                	j	120b0 <__DATA_BEGIN__+0x1038>
   12058:	07e28293          	addi	t0,t0,126
   1205c:	00929563          	bne	t0,s1,12066 <__DATA_BEGIN__+0xfee>
   12060:	b80022f3          	csrr	t0,mcycleh
   12064:	a0b1                	j	120b0 <__DATA_BEGIN__+0x1038>
   12066:	0289                	addi	t0,t0,2
   12068:	00929563          	bne	t0,s1,12072 <__DATA_BEGIN__+0xffa>
   1206c:	b82022f3          	csrr	t0,minstreth
   12070:	a081                	j	120b0 <__DATA_BEGIN__+0x1038>
   12072:	72fd                	lui	t0,0xfffff
   12074:	07f28293          	addi	t0,t0,127 # fffffffffffff07f <__BSS_END__+0xfffffffffffe1fdf>
   12078:	0082f433          	and	s0,t0,s0
   1207c:	28046413          	ori	s0,s0,640
   12080:	00000297          	auipc	t0,0x0
   12084:	02828293          	addi	t0,t0,40 # 120a8 <__DATA_BEGIN__+0x1030>
   12088:	0002a483          	lw	s1,0(t0)
   1208c:	00940663          	beq	s0,s1,12098 <__DATA_BEGIN__+0x1020>
   12090:	0082a023          	sw	s0,0(t0)
   12094:	0000100f          	fence.i
   12098:	341024f3          	csrr	s1,mepc
   1209c:	00000417          	auipc	s0,0x0
   120a0:	03040413          	addi	s0,s0,48 # 120cc <__DATA_BEGIN__+0x1054>
   120a4:	30541473          	csrrw	s0,mtvec,s0
   120a8:	0000                	unimp
   120aa:	0000                	unimp
   120ac:	30541073          	csrw	mtvec,s0
   120b0:	00000097          	auipc	ra,0x0
   120b4:	3f608093          	addi	ra,ra,1014 # 124a6 <__DATA_BEGIN__+0x142e>
   120b8:	030a                	slli	t1,t1,0x2
   120ba:	909a                	add	ra,ra,t1
   120bc:	fec080e7          	jalr	-20(ra)
   120c0:	341024f3          	csrr	s1,mepc
   120c4:	0491                	addi	s1,s1,4
   120c6:	34149073          	csrw	mepc,s1
   120ca:	b491                	j	11b0e <__DATA_BEGIN__+0xa96>
   120cc:	30001073          	csrw	mstatus,zero
   120d0:	30541073          	csrw	mtvec,s0
   120d4:	34149073          	csrw	mepc,s1
   120d8:	b261                	j	11a60 <__DATA_BEGIN__+0x9e8>
   120da:	00544413          	xori	s0,s0,5
   120de:	343022f3          	csrr	t0,mtval
   120e2:	00401337          	lui	t1,0x401
   120e6:	7ff30313          	addi	t1,t1,2047 # 4017ff <__BSS_END__+0x3e475f>
   120ea:	0032d493          	srli	s1,t0,0x3
   120ee:	02648763          	beq	s1,t1,1211c <__DATA_BEGIN__+0x10a4>
   120f2:	00401337          	lui	t1,0x401
   120f6:	80030313          	addi	t1,t1,-2048 # 400800 <__BSS_END__+0x3e3760>
   120fa:	0032d493          	srli	s1,t0,0x3
   120fe:	02648363          	beq	s1,t1,12124 <__DATA_BEGIN__+0x10ac>
   12102:	03000313          	li	t1,48
   12106:	0162d493          	srli	s1,t0,0x16
   1210a:	04648263          	beq	s1,t1,1214e <__DATA_BEGIN__+0x10d6>
   1210e:	10000313          	li	t1,256
   12112:	0142d493          	srli	s1,t0,0x14
   12116:	16648063          	beq	s1,t1,12276 <__DATA_BEGIN__+0x11fe>
   1211a:	b299                	j	11a60 <__DATA_BEGIN__+0x9e8>
   1211c:	e019                	bnez	s0,12122 <__DATA_BEGIN__+0x10aa>
   1211e:	2cf9                	addiw	s9,s9,30
   12120:	b2fd                	j	11b0e <__DATA_BEGIN__+0xa96>
   12122:	ba3d                	j	11a60 <__DATA_BEGIN__+0x9e8>
   12124:	e809                	bnez	s0,12136 <__DATA_BEGIN__+0x10be>
   12126:	1260                	addi	s0,sp,300
   12128:	0042f493          	andi	s1,t0,4
   1212c:	8c45                	or	s0,s0,s1
   1212e:	34341073          	csrw	mtval,s0
   12132:	24e9                	addiw	s1,s1,26
   12134:	bae9                	j	11b0e <__DATA_BEGIN__+0xa96>
   12136:	2605                	addiw	a2,a2,1
   12138:	34302473          	csrr	s0,mtval
   1213c:	8811                	andi	s0,s0,4
   1213e:	00816433          	or	s0,sp,s0
   12142:	12642623          	sw	t1,300(s0)
   12146:	4485                	li	s1,1
   12148:	0c918a23          	sb	s1,212(gp) # 1c974 <__global_pointer$+0xd4>
   1214c:	b2c9                	j	11b0e <__DATA_BEGIN__+0xa96>
   1214e:	13412483          	lw	s1,308(sp)
   12152:	6305                	lui	t1,0x1
   12154:	80030313          	addi	t1,t1,-2048 # 800 <_binary_multizone_bin_size-0xb824>
   12158:	009374b3          	and	s1,t1,s1
   1215c:	900482e3          	beqz	s1,11a60 <__DATA_BEGIN__+0x9e8>
   12160:	0032f493          	andi	s1,t0,3
   12164:	8e049ee3          	bnez	s1,11a60 <__DATA_BEGIN__+0x9e8>
   12168:	e80d                	bnez	s0,1219a <__DATA_BEGIN__+0x1122>
   1216a:	0c200437          	lui	s0,0xc200
   1216e:	0411                	addi	s0,s0,4
   12170:	00541663          	bne	s0,t0,1217c <__DATA_BEGIN__+0x1104>
   12174:	02a0                	addi	s0,sp,328
   12176:	34341073          	csrw	mtval,s0
   1217a:	a831                	j	12196 <__DATA_BEGIN__+0x111e>
   1217c:	0c002437          	lui	s0,0xc002
   12180:	0082eb63          	bltu	t0,s0,12196 <__DATA_BEGIN__+0x111e>
   12184:	041d                	addi	s0,s0,7
   12186:	00546863          	bltu	s0,t0,12196 <__DATA_BEGIN__+0x111e>
   1218a:	0280                	addi	s0,sp,320
   1218c:	00c2f293          	andi	t0,t0,12
   12190:	9416                	add	s0,s0,t0
   12192:	34341073          	csrw	mtval,s0
   12196:	249d                	addiw	s1,s1,7
   12198:	ba9d                	j	11b0e <__DATA_BEGIN__+0xa96>
   1219a:	0c200437          	lui	s0,0xc200
   1219e:	0411                	addi	s0,s0,4
   121a0:	04541063          	bne	s0,t0,121e0 <__DATA_BEGIN__+0x1168>
   121a4:	14812403          	lw	s0,328(sp)
   121a8:	00545293          	srli	t0,s0,0x5
   121ac:	01f47313          	andi	t1,s0,31
   121b0:	0c0024b7          	lui	s1,0xc002
   121b4:	028a                	slli	t0,t0,0x2
   121b6:	9496                	add	s1,s1,t0
   121b8:	4285                	li	t0,1
   121ba:	006292b3          	sll	t0,t0,t1
   121be:	0004a303          	lw	t1,0(s1) # c002000 <__BSS_END__+0xbfe4f60>
   121c2:	005362b3          	or	t0,t1,t0
   121c6:	0054a023          	sw	t0,0(s1)
   121ca:	0c2002b7          	lui	t0,0xc200
   121ce:	0291                	addi	t0,t0,4
   121d0:	0082a023          	sw	s0,0(t0) # c200000 <__BSS_END__+0xc1e2f60>
   121d4:	14012423          	sw	zero,328(sp)
   121d8:	0064a023          	sw	t1,0(s1)
   121dc:	2cad                	addiw	s9,s9,11
   121de:	ba05                	j	11b0e <__DATA_BEGIN__+0xa96>
   121e0:	0c002437          	lui	s0,0xc002
   121e4:	0482e863          	bltu	t0,s0,12234 <__DATA_BEGIN__+0x11bc>
   121e8:	00740493          	addi	s1,s0,7 # c002007 <__BSS_END__+0xbfe4f67>
   121ec:	0454e463          	bltu	s1,t0,12234 <__DATA_BEGIN__+0x11bc>
   121f0:	249d                	addiw	s1,s1,7
   121f2:	343022f3          	csrr	t0,mtval
   121f6:	00c2f293          	andi	t0,t0,12
   121fa:	928a                	add	t0,t0,sp
   121fc:	1382a483          	lw	s1,312(t0)
   12200:	0064f333          	and	t1,s1,t1
   12204:	34302473          	csrr	s0,mtval
   12208:	4000                	lw	s0,0(s0)
   1220a:	fff4c493          	not	s1,s1
   1220e:	8c65                	and	s0,s0,s1
   12210:	00646333          	or	t1,s0,t1
   12214:	1462a023          	sw	t1,320(t0)
   12218:	444e                	lw	s0,208(sp)
   1221a:	8821                	andi	s0,s0,8
   1221c:	c819                	beqz	s0,12232 <__DATA_BEGIN__+0x11ba>
   1221e:	445e                	lw	s0,212(sp)
   12220:	6485                	lui	s1,0x1
   12222:	80048493          	addi	s1,s1,-2048 # 800 <_binary_multizone_bin_size-0xb824>
   12226:	8c65                	and	s0,s0,s1
   12228:	c409                	beqz	s0,12232 <__DATA_BEGIN__+0x11ba>
   1222a:	343022f3          	csrr	t0,mtval
   1222e:	0062a023          	sw	t1,0(t0)
   12232:	b8f1                	j	11b0e <__DATA_BEGIN__+0xa96>
   12234:	0c000437          	lui	s0,0xc000
   12238:	0282ed63          	bltu	t0,s0,12272 <__DATA_BEGIN__+0x11fa>
   1223c:	0ff40493          	addi	s1,s0,255 # c0000ff <__BSS_END__+0xbfe305f>
   12240:	0254e963          	bltu	s1,t0,12272 <__DATA_BEGIN__+0x11fa>
   12244:	40828333          	sub	t1,t0,s0
   12248:	00235313          	srli	t1,t1,0x2
   1224c:	00535413          	srli	s0,t1,0x5
   12250:	01f37493          	andi	s1,t1,31
   12254:	040a                	slli	s0,s0,0x2
   12256:	940a                	add	s0,s0,sp
   12258:	13842403          	lw	s0,312(s0)
   1225c:	4305                	li	t1,1
   1225e:	009314b3          	sll	s1,t1,s1
   12262:	8c65                	and	s0,s0,s1
   12264:	c411                	beqz	s0,12270 <__DATA_BEGIN__+0x11f8>
   12266:	2ac5                	addiw	s5,s5,17
   12268:	343022f3          	csrr	t0,mtval
   1226c:	0062a023          	sw	t1,0(t0)
   12270:	b879                	j	11b0e <__DATA_BEGIN__+0xa96>
   12272:	feeff06f          	j	11a60 <__DATA_BEGIN__+0x9e8>
   12276:	01318493          	addi	s1,gp,19 # 1c8b3 <__global_pointer$+0x13>
   1227a:	0004c483          	lbu	s1,0(s1)
   1227e:	948e                	add	s1,s1,gp
   12280:	4084                	lw	s1,0(s1)
   12282:	fc249f63          	bne	s1,sp,11a60 <__DATA_BEGIN__+0x9e8>
   12286:	e031                	bnez	s0,122ca <__DATA_BEGIN__+0x1252>
   12288:	0ff2f413          	andi	s0,t0,255
   1228c:	04800493          	li	s1,72
   12290:	00941563          	bne	s0,s1,1229a <__DATA_BEGIN__+0x1222>
   12294:	0dc18313          	addi	t1,gp,220 # 1c97c <__global_pointer$+0xdc>
   12298:	a02d                	j	122c2 <__DATA_BEGIN__+0x124a>
   1229a:	0491                	addi	s1,s1,4
   1229c:	00941563          	bne	s0,s1,122a6 <__DATA_BEGIN__+0x122e>
   122a0:	0e018313          	addi	t1,gp,224 # 1c980 <__global_pointer$+0xe0>
   122a4:	a839                	j	122c2 <__DATA_BEGIN__+0x124a>
   122a6:	0491                	addi	s1,s1,4
   122a8:	00941563          	bne	s0,s1,122b2 <__DATA_BEGIN__+0x123a>
   122ac:	0e418313          	addi	t1,gp,228 # 1c984 <__global_pointer$+0xe4>
   122b0:	a809                	j	122c2 <__DATA_BEGIN__+0x124a>
   122b2:	14d1                	addi	s1,s1,-12
   122b4:	00941563          	bne	s0,s1,122be <__DATA_BEGIN__+0x1246>
   122b8:	0d818313          	addi	t1,gp,216 # 1c978 <__global_pointer$+0xd8>
   122bc:	a019                	j	122c2 <__DATA_BEGIN__+0x124a>
   122be:	fa2ff06f          	j	11a60 <__DATA_BEGIN__+0x9e8>
   122c2:	34331073          	csrw	mtval,t1
   122c6:	2a1d                	addiw	s4,s4,7
   122c8:	b099                	j	11b0e <__DATA_BEGIN__+0xa96>
   122ca:	0ff2f413          	andi	s0,t0,255
   122ce:	03000493          	li	s1,48
   122d2:	00941463          	bne	s0,s1,122da <__DATA_BEGIN__+0x1262>
   122d6:	2241                	addiw	tp,tp,16
   122d8:	b81d                	j	11b0e <__DATA_BEGIN__+0xa96>
   122da:	04e1                	addi	s1,s1,24
   122dc:	00941663          	bne	s0,s1,122e8 <__DATA_BEGIN__+0x1270>
   122e0:	2a9d                	addiw	s5,s5,7
   122e2:	0c61ae23          	sw	t1,220(gp) # 1c97c <__global_pointer$+0xdc>
   122e6:	b025                	j	11b0e <__DATA_BEGIN__+0xa96>
   122e8:	0491                	addi	s1,s1,4
   122ea:	00941663          	bne	s0,s1,122f6 <__DATA_BEGIN__+0x127e>
   122ee:	22a5                	addiw	t0,t0,9
   122f0:	0e61a023          	sw	t1,224(gp) # 1c980 <__global_pointer$+0xe0>
   122f4:	b829                	j	11b0e <__DATA_BEGIN__+0xa96>
   122f6:	0491                	addi	s1,s1,4
   122f8:	00941663          	bne	s0,s1,12304 <__DATA_BEGIN__+0x128c>
   122fc:	2aa9                	addiw	s5,s5,10
   122fe:	0e61a223          	sw	t1,228(gp) # 1c984 <__global_pointer$+0xe4>
   12302:	b031                	j	11b0e <__DATA_BEGIN__+0xa96>
   12304:	14d1                	addi	s1,s1,-12
   12306:	0e941963          	bne	s0,s1,123f8 <__DATA_BEGIN__+0x1380>
   1230a:	22b1                	addiw	t0,t0,12
   1230c:	0c61ac23          	sw	t1,216(gp) # 1c978 <__global_pointer$+0xd8>
   12310:	0dc1a403          	lw	s0,220(gp) # 1c97c <__global_pointer$+0xdc>
   12314:	183ff297          	auipc	t0,0x183ff
   12318:	4b428293          	addi	t0,t0,1204 # 184117c8 <__BSS_END__+0x183f4728>
   1231c:	04028313          	addi	t1,t0,64
   12320:	0002a483          	lw	s1,0(t0)
   12324:	8885                	andi	s1,s1,1
   12326:	c899                	beqz	s1,1233c <__DATA_BEGIN__+0x12c4>
   12328:	0002a483          	lw	s1,0(t0)
   1232c:	98f1                	andi	s1,s1,-4
   1232e:	00946763          	bltu	s0,s1,1233c <__DATA_BEGIN__+0x12c4>
   12332:	0042a483          	lw	s1,4(t0)
   12336:	00947363          	bgeu	s0,s1,1233c <__DATA_BEGIN__+0x12c4>
   1233a:	a031                	j	12346 <__DATA_BEGIN__+0x12ce>
   1233c:	02a1                	addi	t0,t0,8
   1233e:	fe62e1e3          	bltu	t0,t1,12320 <__DATA_BEGIN__+0x12a8>
   12342:	fccff06f          	j	11b0e <__DATA_BEGIN__+0xa96>
   12346:	0e41a483          	lw	s1,228(gp) # 1c984 <__global_pointer$+0xe4>
   1234a:	9426                	add	s0,s0,s1
   1234c:	0002a483          	lw	s1,0(t0)
   12350:	98f1                	andi	s1,s1,-4
   12352:	fa946e63          	bltu	s0,s1,11b0e <__DATA_BEGIN__+0xa96>
   12356:	0042a483          	lw	s1,4(t0)
   1235a:	fa84ea63          	bltu	s1,s0,11b0e <__DATA_BEGIN__+0xa96>
   1235e:	0e01a403          	lw	s0,224(gp) # 1c980 <__global_pointer$+0xe0>
   12362:	183ff297          	auipc	t0,0x183ff
   12366:	46628293          	addi	t0,t0,1126 # 184117c8 <__BSS_END__+0x183f4728>
   1236a:	0002a483          	lw	s1,0(t0)
   1236e:	8889                	andi	s1,s1,2
   12370:	c899                	beqz	s1,12386 <__DATA_BEGIN__+0x130e>
   12372:	0002a483          	lw	s1,0(t0)
   12376:	98f1                	andi	s1,s1,-4
   12378:	00946763          	bltu	s0,s1,12386 <__DATA_BEGIN__+0x130e>
   1237c:	0042a483          	lw	s1,4(t0)
   12380:	00947363          	bgeu	s0,s1,12386 <__DATA_BEGIN__+0x130e>
   12384:	a031                	j	12390 <__DATA_BEGIN__+0x1318>
   12386:	02a1                	addi	t0,t0,8
   12388:	fe62e1e3          	bltu	t0,t1,1236a <__DATA_BEGIN__+0x12f2>
   1238c:	f82ff06f          	j	11b0e <__DATA_BEGIN__+0xa96>
   12390:	0e41a483          	lw	s1,228(gp) # 1c984 <__global_pointer$+0xe4>
   12394:	9426                	add	s0,s0,s1
   12396:	0002a483          	lw	s1,0(t0)
   1239a:	98f1                	andi	s1,s1,-4
   1239c:	f6946963          	bltu	s0,s1,11b0e <__DATA_BEGIN__+0xa96>
   123a0:	0042a483          	lw	s1,4(t0)
   123a4:	f684e563          	bltu	s1,s0,11b0e <__DATA_BEGIN__+0xa96>
   123a8:	0dc1a403          	lw	s0,220(gp) # 1c97c <__global_pointer$+0xdc>
   123ac:	0e01a483          	lw	s1,224(gp) # 1c980 <__global_pointer$+0xe0>
   123b0:	0e41a303          	lw	t1,228(gp) # 1c984 <__global_pointer$+0xe4>
   123b4:	f4030d63          	beqz	t1,11b0e <__DATA_BEGIN__+0xa96>
   123b8:	62c1                	lui	t0,0x10
   123ba:	f462ea63          	bltu	t0,t1,11b0e <__DATA_BEGIN__+0xa96>
   123be:	00044283          	lbu	t0,0(s0)
   123c2:	00548023          	sb	t0,0(s1)
   123c6:	0405                	addi	s0,s0,1
   123c8:	0485                	addi	s1,s1,1
   123ca:	137d                	addi	t1,t1,-1
   123cc:	fe0319e3          	bnez	t1,123be <__DATA_BEGIN__+0x1346>
   123d0:	0c81ae23          	sw	s0,220(gp) # 1c97c <__global_pointer$+0xdc>
   123d4:	0e91a023          	sw	s1,224(gp) # 1c980 <__global_pointer$+0xe0>
   123d8:	0e01a223          	sw	zero,228(gp) # 1c984 <__global_pointer$+0xe4>
   123dc:	445e                	lw	s0,212(sp)
   123de:	000804b7          	lui	s1,0x80
   123e2:	8c65                	and	s0,s0,s1
   123e4:	f2040563          	beqz	s0,11b0e <__DATA_BEGIN__+0xa96>
   123e8:	80000437          	lui	s0,0x80000
   123ec:	044d                	addi	s0,s0,19
   123ee:	34241073          	csrw	mcause,s0
   123f2:	444d                	li	s0,19
   123f4:	d64ff06f          	j	11958 <__DATA_BEGIN__+0x8e0>
   123f8:	e68ff06f          	j	11a60 <__DATA_BEGIN__+0x9e8>
   123fc:	1011a423          	sw	ra,264(gp) # 1c9a8 <__global_pointer$+0x108>
   12400:	34102473          	csrr	s0,mepc
   12404:	2249                	addiw	tp,tp,18
   12406:	1081a083          	lw	ra,264(gp) # 1c9a8 <__global_pointer$+0x108>
   1240a:	34102373          	csrr	t1,mepc
   1240e:	00347493          	andi	s1,s0,3
   12412:	c085                	beqz	s1,12432 <__DATA_BEGIN__+0x13ba>
   12414:	00c45493          	srli	s1,s0,0xc
   12418:	889d                	andi	s1,s1,7
   1241a:	0024c493          	xori	s1,s1,2
   1241e:	e4049163          	bnez	s1,11a60 <__DATA_BEGIN__+0x9e8>
   12422:	801d                	srli	s0,s0,0x7
   12424:	887d                	andi	s0,s0,31
   12426:	00543493          	sltiu	s1,s0,5
   1242a:	e2049b63          	bnez	s1,11a60 <__DATA_BEGIN__+0x9e8>
   1242e:	0311                	addi	t1,t1,4
   12430:	a029                	j	1243a <__DATA_BEGIN__+0x13c2>
   12432:	8009                	srli	s0,s0,0x2
   12434:	881d                	andi	s0,s0,7
   12436:	0421                	addi	s0,s0,8
   12438:	0309                	addi	t1,t1,2
   1243a:	34131073          	csrw	mepc,t1
   1243e:	343024f3          	csrr	s1,mtval
   12442:	0004a283          	lw	t0,0(s1) # 80000 <__BSS_END__+0x62f60>
   12446:	00000497          	auipc	s1,0x0
   1244a:	06048493          	addi	s1,s1,96 # 124a6 <__DATA_BEGIN__+0x142e>
   1244e:	040a                	slli	s0,s0,0x2
   12450:	94a2                	add	s1,s1,s0
   12452:	fec48067          	jr	-20(s1)
   12456:	1011a423          	sw	ra,264(gp) # 1c9a8 <__global_pointer$+0x108>
   1245a:	34102473          	csrr	s0,mepc
   1245e:	2225                	addiw	tp,tp,9
   12460:	1081a083          	lw	ra,264(gp) # 1c9a8 <__global_pointer$+0x108>
   12464:	34102373          	csrr	t1,mepc
   12468:	00347493          	andi	s1,s0,3
   1246c:	cc99                	beqz	s1,1248a <__DATA_BEGIN__+0x1412>
   1246e:	00c45493          	srli	s1,s0,0xc
   12472:	889d                	andi	s1,s1,7
   12474:	0024c493          	xori	s1,s1,2
   12478:	de049463          	bnez	s1,11a60 <__DATA_BEGIN__+0x9e8>
   1247c:	8051                	srli	s0,s0,0x14
   1247e:	887d                	andi	s0,s0,31
   12480:	4495                	li	s1,5
   12482:	dc946f63          	bltu	s0,s1,11a60 <__DATA_BEGIN__+0x9e8>
   12486:	0311                	addi	t1,t1,4
   12488:	a029                	j	12492 <__DATA_BEGIN__+0x141a>
   1248a:	8009                	srli	s0,s0,0x2
   1248c:	881d                	andi	s0,s0,7
   1248e:	0421                	addi	s0,s0,8
   12490:	0309                	addi	t1,t1,2
   12492:	34131073          	csrw	mepc,t1
   12496:	00000497          	auipc	s1,0x0
   1249a:	07c48493          	addi	s1,s1,124 # 12512 <__DATA_BEGIN__+0x149a>
   1249e:	040a                	slli	s0,s0,0x2
   124a0:	94a2                	add	s1,s1,s0
   124a2:	fec48067          	jr	-20(s1)
   124a6:	ca16                	sw	t0,20(sp)
   124a8:	8082                	ret
   124aa:	cc16                	sw	t0,24(sp)
   124ac:	8082                	ret
   124ae:	8396                	mv	t2,t0
   124b0:	8082                	ret
   124b2:	d016                	sw	t0,32(sp)
   124b4:	8082                	ret
   124b6:	d216                	sw	t0,36(sp)
   124b8:	8082                	ret
   124ba:	8516                	mv	a0,t0
   124bc:	8082                	ret
   124be:	8596                	mv	a1,t0
   124c0:	8082                	ret
   124c2:	8616                	mv	a2,t0
   124c4:	8082                	ret
   124c6:	8696                	mv	a3,t0
   124c8:	8082                	ret
   124ca:	8716                	mv	a4,t0
   124cc:	8082                	ret
   124ce:	8796                	mv	a5,t0
   124d0:	8082                	ret
   124d2:	8816                	mv	a6,t0
   124d4:	8082                	ret
   124d6:	8896                	mv	a7,t0
   124d8:	8082                	ret
   124da:	8916                	mv	s2,t0
   124dc:	8082                	ret
   124de:	8996                	mv	s3,t0
   124e0:	8082                	ret
   124e2:	8a16                	mv	s4,t0
   124e4:	8082                	ret
   124e6:	8a96                	mv	s5,t0
   124e8:	8082                	ret
   124ea:	8b16                	mv	s6,t0
   124ec:	8082                	ret
   124ee:	8b96                	mv	s7,t0
   124f0:	8082                	ret
   124f2:	8c16                	mv	s8,t0
   124f4:	8082                	ret
   124f6:	8c96                	mv	s9,t0
   124f8:	8082                	ret
   124fa:	8d16                	mv	s10,t0
   124fc:	8082                	ret
   124fe:	8d96                	mv	s11,t0
   12500:	8082                	ret
   12502:	8e16                	mv	t3,t0
   12504:	8082                	ret
   12506:	8e96                	mv	t4,t0
   12508:	8082                	ret
   1250a:	8f16                	mv	t5,t0
   1250c:	8082                	ret
   1250e:	8f96                	mv	t6,t0
   12510:	8082                	ret
   12512:	4352                	lw	t1,20(sp)
   12514:	8082                	ret
   12516:	4362                	lw	t1,24(sp)
   12518:	8082                	ret
   1251a:	831e                	mv	t1,t2
   1251c:	8082                	ret
   1251e:	5302                	lw	t1,32(sp)
   12520:	8082                	ret
   12522:	5312                	lw	t1,36(sp)
   12524:	8082                	ret
   12526:	832a                	mv	t1,a0
   12528:	8082                	ret
   1252a:	832e                	mv	t1,a1
   1252c:	8082                	ret
   1252e:	8332                	mv	t1,a2
   12530:	8082                	ret
   12532:	8336                	mv	t1,a3
   12534:	8082                	ret
   12536:	833a                	mv	t1,a4
   12538:	8082                	ret
   1253a:	833e                	mv	t1,a5
   1253c:	8082                	ret
   1253e:	8342                	mv	t1,a6
   12540:	8082                	ret
   12542:	8346                	mv	t1,a7
   12544:	8082                	ret
   12546:	834a                	mv	t1,s2
   12548:	8082                	ret
   1254a:	834e                	mv	t1,s3
   1254c:	8082                	ret
   1254e:	8352                	mv	t1,s4
   12550:	8082                	ret
   12552:	8356                	mv	t1,s5
   12554:	8082                	ret
   12556:	835a                	mv	t1,s6
   12558:	8082                	ret
   1255a:	835e                	mv	t1,s7
   1255c:	8082                	ret
   1255e:	8362                	mv	t1,s8
   12560:	8082                	ret
   12562:	8366                	mv	t1,s9
   12564:	8082                	ret
   12566:	836a                	mv	t1,s10
   12568:	8082                	ret
   1256a:	836e                	mv	t1,s11
   1256c:	8082                	ret
   1256e:	8372                	mv	t1,t3
   12570:	8082                	ret
   12572:	8376                	mv	t1,t4
   12574:	8082                	ret
   12576:	837a                	mv	t1,t5
   12578:	8082                	ret
   1257a:	837e                	mv	t1,t6
   1257c:	8082                	ret
   1257e:	3425d073          	csrwi	mcause,11
   12582:	cdeff06f          	j	11a60 <__DATA_BEGIN__+0x9e8>
   12586:	10c18293          	addi	t0,gp,268 # 1c9ac <__global_pointer$+0x10c>
   1258a:	1b028313          	addi	t1,t0,432 # 101b0 <_binary_multizone_bin_size+0x418c>
   1258e:	0002a483          	lw	s1,0(t0)
   12592:	00941563          	bne	s0,s1,1259c <__DATA_BEGIN__+0x1524>
   12596:	0042a403          	lw	s0,4(t0)
   1259a:	8082                	ret
   1259c:	02a1                	addi	t0,t0,8
   1259e:	fe6298e3          	bne	t0,t1,1258e <__DATA_BEGIN__+0x1516>
   125a2:	2bc1a283          	lw	t0,700(gp) # 1cb5c <__global_pointer$+0x2bc>
   125a6:	0082a023          	sw	s0,0(t0)
   125aa:	00247493          	andi	s1,s0,2
   125ae:	e099                	bnez	s1,125b4 <__DATA_BEGIN__+0x153c>
   125b0:	4000                	lw	s0,0(s0)
   125b2:	a039                	j	125c0 <__DATA_BEGIN__+0x1548>
   125b4:	00045483          	lhu	s1,0(s0) # ffffffff80000000 <__BSS_END__+0xffffffff7ffe2f60>
   125b8:	00245403          	lhu	s0,2(s0)
   125bc:	0442                	slli	s0,s0,0x10
   125be:	8c45                	or	s0,s0,s1
   125c0:	0082a223          	sw	s0,4(t0)
   125c4:	02a1                	addi	t0,t0,8
   125c6:	2bc18313          	addi	t1,gp,700 # 1cb5c <__global_pointer$+0x2bc>
   125ca:	0062e463          	bltu	t0,t1,125d2 <__DATA_BEGIN__+0x155a>
   125ce:	10c18293          	addi	t0,gp,268 # 1c9ac <__global_pointer$+0x10c>
   125d2:	2a51ae23          	sw	t0,700(gp) # 1cb5c <__global_pointer$+0x2bc>
   125d6:	8082                	ret
   125d8:	0000                	unimp
   125da:	0000                	unimp
   125dc:	34009073          	csrw	mscratch,ra
   125e0:	6a09e437          	lui	s0,0x6a09e
   125e4:	66740413          	addi	s0,s0,1639 # 6a09e667 <__BSS_END__+0x6a0815c7>
   125e8:	bb67b4b7          	lui	s1,0xbb67b
   125ec:	e8548493          	addi	s1,s1,-379 # ffffffffbb67ae85 <__BSS_END__+0xffffffffbb65dde5>
   125f0:	3c6ef937          	lui	s2,0x3c6ef
   125f4:	37290913          	addi	s2,s2,882 # 3c6ef372 <__BSS_END__+0x3c6d22d2>
   125f8:	a54ff9b7          	lui	s3,0xa54ff
   125fc:	53a98993          	addi	s3,s3,1338 # ffffffffa54ff53a <__BSS_END__+0xffffffffa54e249a>
   12600:	510e5a37          	lui	s4,0x510e5
   12604:	27fa0a13          	addi	s4,s4,639 # 510e527f <__BSS_END__+0x510c81df>
   12608:	9b057ab7          	lui	s5,0x9b057
   1260c:	88ca8a93          	addi	s5,s5,-1908 # ffffffff9b05688c <__BSS_END__+0xffffffff9b0397ec>
   12610:	1f83eb37          	lui	s6,0x1f83e
   12614:	9abb0b13          	addi	s6,s6,-1621 # 1f83d9ab <__BSS_END__+0x1f82090b>
   12618:	5be0dbb7          	lui	s7,0x5be0d
   1261c:	d19b8b93          	addi	s7,s7,-743 # 5be0cd19 <__BSS_END__+0x5bdefc79>
   12620:	18400c17          	auipc	s8,0x18400
   12624:	fe0c0c13          	addi	s8,s8,-32 # 18412600 <__BSS_END__+0x183f5560>
   12628:	18402c97          	auipc	s9,0x18402
   1262c:	9d8c8c93          	addi	s9,s9,-1576 # 18414000 <__BSS_END__+0x183f6f60>
   12630:	78000d17          	auipc	s10,0x78000
   12634:	facd0d13          	addi	s10,s10,-84 # 780125dc <__BSS_END__+0x77ff553c>
   12638:	418c8db3          	sub	s11,s9,s8
   1263c:	04000393          	li	t2,64
   12640:	01b3c963          	blt	t2,s11,12652 <__DATA_BEGIN__+0x15da>
   12644:	047d8863          	beq	s11,t2,12694 <__DATA_BEGIN__+0x161c>
   12648:	03800393          	li	t2,56
   1264c:	0c7dc063          	blt	s11,t2,1270c <__DATA_BEGIN__+0x1694>
   12650:	a281                	j	12790 <__DATA_BEGIN__+0x1718>
   12652:	040c0313          	addi	t1,s8,64
   12656:	83ea                	mv	t2,s10
   12658:	000c2e03          	lw	t3,0(s8)
   1265c:	018e5113          	srli	sp,t3,0x18
   12660:	008e1193          	slli	gp,t3,0x8
   12664:	0181d193          	srli	gp,gp,0x18
   12668:	01a2                	slli	gp,gp,0x8
   1266a:	00316133          	or	sp,sp,gp
   1266e:	010e1193          	slli	gp,t3,0x10
   12672:	0181d193          	srli	gp,gp,0x18
   12676:	01c2                	slli	gp,gp,0x10
   12678:	00316133          	or	sp,sp,gp
   1267c:	018e1193          	slli	gp,t3,0x18
   12680:	00316e33          	or	t3,sp,gp
   12684:	01c3a023          	sw	t3,0(t2)
   12688:	0c11                	addi	s8,s8,4
   1268a:	0391                	addi	t2,t2,4
   1268c:	fc6c66e3          	bltu	s8,t1,12658 <__DATA_BEGIN__+0x15e0>
   12690:	2a4d                	addiw	s4,s4,19
   12692:	b75d                	j	12638 <__DATA_BEGIN__+0x15c0>
   12694:	040c0313          	addi	t1,s8,64
   12698:	83ea                	mv	t2,s10
   1269a:	000c2e03          	lw	t3,0(s8)
   1269e:	018e5113          	srli	sp,t3,0x18
   126a2:	008e1193          	slli	gp,t3,0x8
   126a6:	0181d193          	srli	gp,gp,0x18
   126aa:	01a2                	slli	gp,gp,0x8
   126ac:	00316133          	or	sp,sp,gp
   126b0:	010e1193          	slli	gp,t3,0x10
   126b4:	0181d193          	srli	gp,gp,0x18
   126b8:	01c2                	slli	gp,gp,0x10
   126ba:	00316133          	or	sp,sp,gp
   126be:	018e1193          	slli	gp,t3,0x18
   126c2:	00316e33          	or	t3,sp,gp
   126c6:	01c3a023          	sw	t3,0(t2)
   126ca:	0c11                	addi	s8,s8,4
   126cc:	0391                	addi	t2,t2,4
   126ce:	fc6c66e3          	bltu	s8,t1,1269a <__DATA_BEGIN__+0x1622>
   126d2:	2a85                	addiw	s5,s5,1
   126d4:	83ea                	mv	t2,s10
   126d6:	038d0313          	addi	t1,s10,56
   126da:	80000e37          	lui	t3,0x80000
   126de:	01c3a023          	sw	t3,0(t2)
   126e2:	0391                	addi	t2,t2,4
   126e4:	0003a023          	sw	zero,0(t2)
   126e8:	0391                	addi	t2,t2,4
   126ea:	fe63ede3          	bltu	t2,t1,126e4 <__DATA_BEGIN__+0x166c>
   126ee:	18400c17          	auipc	s8,0x18400
   126f2:	f12c0c13          	addi	s8,s8,-238 # 18412600 <__BSS_END__+0x183f5560>
   126f6:	418c8db3          	sub	s11,s9,s8
   126fa:	01dddd13          	srli	s10,s11,0x1d
   126fe:	01a3a023          	sw	s10,0(t2)
   12702:	0d8e                	slli	s11,s11,0x3
   12704:	01b3a223          	sw	s11,4(t2)
   12708:	2a2d                	addiw	s4,s4,11
   1270a:	aa29                	j	12824 <__DATA_BEGIN__+0x17ac>
   1270c:	83ea                	mv	t2,s10
   1270e:	000c4e03          	lbu	t3,0(s8)
   12712:	01c38023          	sb	t3,0(t2)
   12716:	0c05                	addi	s8,s8,1
   12718:	0385                	addi	t2,t2,1
   1271a:	ff9c6ae3          	bltu	s8,s9,1270e <__DATA_BEGIN__+0x1696>
   1271e:	08000e13          	li	t3,128
   12722:	01c38023          	sb	t3,0(t2)
   12726:	0385                	addi	t2,t2,1
   12728:	038d0313          	addi	t1,s10,56
   1272c:	00038023          	sb	zero,0(t2)
   12730:	0385                	addi	t2,t2,1
   12732:	fe63ede3          	bltu	t2,t1,1272c <__DATA_BEGIN__+0x16b4>
   12736:	83ea                	mv	t2,s10
   12738:	038d0313          	addi	t1,s10,56
   1273c:	0003ae03          	lw	t3,0(t2)
   12740:	018e5113          	srli	sp,t3,0x18
   12744:	008e1193          	slli	gp,t3,0x8
   12748:	0181d193          	srli	gp,gp,0x18
   1274c:	01a2                	slli	gp,gp,0x8
   1274e:	00316133          	or	sp,sp,gp
   12752:	010e1193          	slli	gp,t3,0x10
   12756:	0181d193          	srli	gp,gp,0x18
   1275a:	01c2                	slli	gp,gp,0x10
   1275c:	00316133          	or	sp,sp,gp
   12760:	018e1193          	slli	gp,t3,0x18
   12764:	00316e33          	or	t3,sp,gp
   12768:	01c3a023          	sw	t3,0(t2)
   1276c:	0391                	addi	t2,t2,4
   1276e:	fc63e7e3          	bltu	t2,t1,1273c <__DATA_BEGIN__+0x16c4>
   12772:	18400c17          	auipc	s8,0x18400
   12776:	e8ec0c13          	addi	s8,s8,-370 # 18412600 <__BSS_END__+0x183f5560>
   1277a:	418c8db3          	sub	s11,s9,s8
   1277e:	01dddd13          	srli	s10,s11,0x1d
   12782:	01a3a023          	sw	s10,0(t2)
   12786:	0d8e                	slli	s11,s11,0x3
   12788:	01b3a223          	sw	s11,4(t2)
   1278c:	285d                	addiw	a6,a6,23
   1278e:	a859                	j	12824 <__DATA_BEGIN__+0x17ac>
   12790:	83ea                	mv	t2,s10
   12792:	000c4e03          	lbu	t3,0(s8)
   12796:	01c38023          	sb	t3,0(t2)
   1279a:	0c05                	addi	s8,s8,1
   1279c:	0385                	addi	t2,t2,1
   1279e:	ff9c6ae3          	bltu	s8,s9,12792 <__DATA_BEGIN__+0x171a>
   127a2:	08000e13          	li	t3,128
   127a6:	01c38023          	sb	t3,0(t2)
   127aa:	0385                	addi	t2,t2,1
   127ac:	040d0313          	addi	t1,s10,64
   127b0:	0063f763          	bgeu	t2,t1,127be <__DATA_BEGIN__+0x1746>
   127b4:	00038023          	sb	zero,0(t2)
   127b8:	0385                	addi	t2,t2,1
   127ba:	fe63ede3          	bltu	t2,t1,127b4 <__DATA_BEGIN__+0x173c>
   127be:	83ea                	mv	t2,s10
   127c0:	0003ae03          	lw	t3,0(t2)
   127c4:	018e5113          	srli	sp,t3,0x18
   127c8:	008e1193          	slli	gp,t3,0x8
   127cc:	0181d193          	srli	gp,gp,0x18
   127d0:	01a2                	slli	gp,gp,0x8
   127d2:	00316133          	or	sp,sp,gp
   127d6:	010e1193          	slli	gp,t3,0x10
   127da:	0181d193          	srli	gp,gp,0x18
   127de:	01c2                	slli	gp,gp,0x10
   127e0:	00316133          	or	sp,sp,gp
   127e4:	018e1193          	slli	gp,t3,0x18
   127e8:	00316e33          	or	t3,sp,gp
   127ec:	01c3a023          	sw	t3,0(t2)
   127f0:	0391                	addi	t2,t2,4
   127f2:	fc63e7e3          	bltu	t2,t1,127c0 <__DATA_BEGIN__+0x1748>
   127f6:	20b1                	addiw	ra,ra,12
   127f8:	83ea                	mv	t2,s10
   127fa:	038d0313          	addi	t1,s10,56
   127fe:	0003a023          	sw	zero,0(t2)
   12802:	0391                	addi	t2,t2,4
   12804:	fe63ede3          	bltu	t2,t1,127fe <__DATA_BEGIN__+0x1786>
   12808:	18400c17          	auipc	s8,0x18400
   1280c:	df8c0c13          	addi	s8,s8,-520 # 18412600 <__BSS_END__+0x183f5560>
   12810:	418c8db3          	sub	s11,s9,s8
   12814:	01dddd13          	srli	s10,s11,0x1d
   12818:	01a3a023          	sw	s10,0(t2)
   1281c:	0d8e                	slli	s11,s11,0x3
   1281e:	01b3a223          	sw	s11,4(t2)
   12822:	2005                	0x2005
   12824:	78000117          	auipc	sp,0x78000
   12828:	db810113          	addi	sp,sp,-584 # 780125dc <__BSS_END__+0x77ff553c>
   1282c:	c022                	sw	s0,0(sp)
   1282e:	c226                	sw	s1,4(sp)
   12830:	c44a                	sw	s2,8(sp)
   12832:	c64e                	sw	s3,12(sp)
   12834:	c852                	sw	s4,16(sp)
   12836:	ca56                	sw	s5,20(sp)
   12838:	cc5a                	sw	s6,24(sp)
   1283a:	ce5e                	sw	s7,28(sp)
   1283c:	340020f3          	csrr	ra,mscratch
   12840:	8082                	ret
   12842:	78000397          	auipc	t2,0x78000
   12846:	dda38393          	addi	t2,t2,-550 # 7801261c <__BSS_END__+0x77ff557c>
   1284a:	0c038313          	addi	t1,t2,192
   1284e:	ff83ae03          	lw	t3,-8(t2)
   12852:	011e5193          	srli	gp,t3,0x11
   12856:	00fe1113          	slli	sp,t3,0xf
   1285a:	0021e1b3          	or	gp,gp,sp
   1285e:	013e5213          	srli	tp,t3,0x13
   12862:	00de1113          	slli	sp,t3,0xd
   12866:	00226233          	or	tp,tp,sp
   1286a:	0041cf33          	xor	t5,gp,tp
   1286e:	00ae5193          	srli	gp,t3,0xa
   12872:	003f4f33          	xor	t5,t5,gp
   12876:	fe43ae03          	lw	t3,-28(t2)
   1287a:	9f72                	add	t5,t5,t3
   1287c:	fc43ae03          	lw	t3,-60(t2)
   12880:	007e5193          	srli	gp,t3,0x7
   12884:	019e1113          	slli	sp,t3,0x19
   12888:	0021e1b3          	or	gp,gp,sp
   1288c:	012e5213          	srli	tp,t3,0x12
   12890:	00ee1113          	slli	sp,t3,0xe
   12894:	00226233          	or	tp,tp,sp
   12898:	0041ceb3          	xor	t4,gp,tp
   1289c:	003e5193          	srli	gp,t3,0x3
   128a0:	003eceb3          	xor	t4,t4,gp
   128a4:	9f76                	add	t5,t5,t4
   128a6:	fc03ae03          	lw	t3,-64(t2)
   128aa:	9f72                	add	t5,t5,t3
   128ac:	01e3a023          	sw	t5,0(t2)
   128b0:	0391                	addi	t2,t2,4
   128b2:	f863eee3          	bltu	t2,t1,1284e <__DATA_BEGIN__+0x17d6>
   128b6:	8522                	mv	a0,s0
   128b8:	85a6                	mv	a1,s1
   128ba:	864a                	mv	a2,s2
   128bc:	86ce                	mv	a3,s3
   128be:	8752                	mv	a4,s4
   128c0:	87d6                	mv	a5,s5
   128c2:	885a                	mv	a6,s6
   128c4:	88de                	mv	a7,s7
   128c6:	00000e17          	auipc	t3,0x0
   128ca:	0d2e0e13          	addi	t3,t3,210 # 12998 <__DATA_BEGIN__+0x1920>
   128ce:	100e0e93          	addi	t4,t3,256
   128d2:	78000f17          	auipc	t5,0x78000
   128d6:	d0af0f13          	addi	t5,t5,-758 # 780125dc <__BSS_END__+0x77ff553c>
   128da:	00675193          	srli	gp,a4,0x6
   128de:	01a71113          	slli	sp,a4,0x1a
   128e2:	0021e1b3          	or	gp,gp,sp
   128e6:	00b75213          	srli	tp,a4,0xb
   128ea:	01571113          	slli	sp,a4,0x15
   128ee:	00226233          	or	tp,tp,sp
   128f2:	0041cfb3          	xor	t6,gp,tp
   128f6:	01975193          	srli	gp,a4,0x19
   128fa:	00771113          	slli	sp,a4,0x7
   128fe:	0021e1b3          	or	gp,gp,sp
   12902:	003fcfb3          	xor	t6,t6,gp
   12906:	011f8333          	add	t1,t6,a7
   1290a:	00f77fb3          	and	t6,a4,a5
   1290e:	fff74113          	not	sp,a4
   12912:	01017133          	and	sp,sp,a6
   12916:	002fcfb3          	xor	t6,t6,sp
   1291a:	937e                	add	t1,t1,t6
   1291c:	000e2f83          	lw	t6,0(t3)
   12920:	937e                	add	t1,t1,t6
   12922:	000f2f83          	lw	t6,0(t5)
   12926:	937e                	add	t1,t1,t6
   12928:	00255193          	srli	gp,a0,0x2
   1292c:	01e51113          	slli	sp,a0,0x1e
   12930:	0021e1b3          	or	gp,gp,sp
   12934:	00d55213          	srli	tp,a0,0xd
   12938:	01351113          	slli	sp,a0,0x13
   1293c:	00226233          	or	tp,tp,sp
   12940:	0041c3b3          	xor	t2,gp,tp
   12944:	01655213          	srli	tp,a0,0x16
   12948:	00a51113          	slli	sp,a0,0xa
   1294c:	00226233          	or	tp,tp,sp
   12950:	0043c3b3          	xor	t2,t2,tp
   12954:	00b57fb3          	and	t6,a0,a1
   12958:	00c57133          	and	sp,a0,a2
   1295c:	002fcfb3          	xor	t6,t6,sp
   12960:	00c5f133          	and	sp,a1,a2
   12964:	002fcfb3          	xor	t6,t6,sp
   12968:	93fe                	add	t2,t2,t6
   1296a:	88c2                	mv	a7,a6
   1296c:	883e                	mv	a6,a5
   1296e:	87ba                	mv	a5,a4
   12970:	00668733          	add	a4,a3,t1
   12974:	86b2                	mv	a3,a2
   12976:	862e                	mv	a2,a1
   12978:	85aa                	mv	a1,a0
   1297a:	00730533          	add	a0,t1,t2
   1297e:	0e11                	addi	t3,t3,4
   12980:	0f11                	addi	t5,t5,4
   12982:	f5de6ce3          	bltu	t3,t4,128da <__DATA_BEGIN__+0x1862>
   12986:	942a                	add	s0,s0,a0
   12988:	94ae                	add	s1,s1,a1
   1298a:	9932                	add	s2,s2,a2
   1298c:	99b6                	add	s3,s3,a3
   1298e:	9a3a                	add	s4,s4,a4
   12990:	9abe                	add	s5,s5,a5
   12992:	9b42                	add	s6,s6,a6
   12994:	9bc6                	add	s7,s7,a7
   12996:	8082                	ret
   12998:	2f98                	fld	fa4,24(a5)
   1299a:	428a                	lw	t0,128(sp)
   1299c:	4491                	li	s1,4
   1299e:	fbcf7137          	lui	sp,0xfbcf7
   129a2:	b5c0                	fsd	fs0,168(a1)
   129a4:	dba5                	beqz	a5,12914 <__DATA_BEGIN__+0x189c>
   129a6:	e9b5                	bnez	a1,12a1a <__DATA_BEGIN__+0x19a2>
   129a8:	3956c25b          	0x3956c25b
   129ac:	11f1                	addi	gp,gp,-4
   129ae:	59f1                	li	s3,-4
   129b0:	82a4                	0x82a4
   129b2:	5ed5923f aa98ab1c 	0xaa98ab1c5ed5923f
   129ba:	5b01d807          	0x5b01d807
   129be:	85be1283          	lh	t0,-1957(t3)
   129c2:	2431                	addiw	s0,s0,12
   129c4:	550c7dc3          	0x550c7dc3
   129c8:	5d74                	lw	a3,124(a0)
   129ca:	72be                	ld	t0,488(sp)
   129cc:	b1fe                	fsd	ft11,224(sp)
   129ce:	80de                	mv	ra,s7
   129d0:	9bdc06a7          	0x9bdc06a7
   129d4:	f174                	sd	a3,224(a0)
   129d6:	69c1c19b          	0x69c1c19b
   129da:	4786e49b          	0x4786e49b
   129de:	efbe                	sd	a5,472(sp)
   129e0:	9dc6                	add	s11,s11,a7
   129e2:	0fc1                	addi	t6,t6,16
   129e4:	a1cc                	fsd	fa1,128(a1)
   129e6:	240c                	fld	fa1,8(s0)
   129e8:	2de92c6f          	jal	s8,a4cc6 <__BSS_END__+0x87c26>
   129ec:	84aa                	mv	s1,a0
   129ee:	4a74                	lw	a3,84(a2)
   129f0:	a9dc                	fsd	fa5,144(a1)
   129f2:	5cb0                	lw	a2,120(s1)
   129f4:	88da                	mv	a7,s6
   129f6:	76f9                	lui	a3,0xffffe
   129f8:	5152                	lw	sp,52(sp)
   129fa:	983e                	add	a6,a6,a5
   129fc:	c66d                	beqz	a2,12ae6 <__DATA_BEGIN__+0x1a6e>
   129fe:	a831                	j	12a1a <__DATA_BEGIN__+0x19a2>
   12a00:	27c8                	fld	fa0,136(a5)
   12a02:	7fc7b003          	ld	zero,2044(a5)
   12a06:	bf59                	j	1299c <__DATA_BEGIN__+0x1924>
   12a08:	c6e00bf3          	0xc6e00bf3
   12a0c:	d5a79147          	0xd5a79147
   12a10:	6351                	lui	t1,0x14
   12a12:	06ca                	slli	a3,a3,0x12
   12a14:	14292967          	0x14292967
   12a18:	0a85                	addi	s5,s5,1
   12a1a:	213827b7          	lui	a5,0x21382
   12a1e:	6dfc2e1b          	0x6dfc2e1b
   12a22:	4d2c                	lw	a1,88(a0)
   12a24:	53380d13          	addi	s10,a6,1331
   12a28:	7354                	ld	a3,160(a4)
   12a2a:	650a                	ld	a0,128(sp)
   12a2c:	766a0abb          	0x766a0abb
   12a30:	c92e                	sw	a1,144(sp)
   12a32:	81c2                	mv	gp,a6
   12a34:	2c85                	addiw	s9,s9,1
   12a36:	9272                	add	tp,tp,t3
   12a38:	e8a1                	bnez	s1,12a88 <__DATA_BEGIN__+0x1a10>
   12a3a:	664ba2bf 8b70a81a 	0x8b70a81a664ba2bf
   12a42:	51a3c24b          	fnmsub.s	ft4,ft7,fs10,fa0,rmm
   12a46:	c76c                	sw	a1,76(a4)
   12a48:	e819                	bnez	s0,12a5e <__DATA_BEGIN__+0x19e6>
   12a4a:	d192                	sw	tp,224(sp)
   12a4c:	0624                	addi	s1,sp,776
   12a4e:	d699                	beqz	a3,1295c <__DATA_BEGIN__+0x18e4>
   12a50:	3585                	addiw	a1,a1,-31
   12a52:	f40e                	sd	gp,40(sp)
   12a54:	a070                	fsd	fa2,192(s0)
   12a56:	106a                	c.slli	zero,0x3a
   12a58:	c116                	sw	t0,128(sp)
   12a5a:	19a4                	addi	s1,sp,248
   12a5c:	6c08                	ld	a0,24(s0)
   12a5e:	774c1e37          	lui	t3,0x774c1
   12a62:	2748                	fld	fa0,136(a4)
   12a64:	bcb5                	j	124e0 <__DATA_BEGIN__+0x1468>
   12a66:	34b0                	fld	fa2,104(s1)
   12a68:	391c0cb3          	0x391c0cb3
   12a6c:	aa4a                	fsd	fs2,272(sp)
   12a6e:	4ed8                	lw	a4,28(a3)
   12a70:	5b9cca4f          	fnmadd.d	fs4,fs9,fs9,fa1,rmm
   12a74:	682e6ff3          	csrrsi	t6,0x682,28
   12a78:	82ee                	mv	t0,s11
   12a7a:	636f748f          	0x636f748f
   12a7e:	78a5                	lui	a7,0xfffe9
   12a80:	7814                	ld	a3,48(s0)
   12a82:	84c8                	0x84c8
   12a84:	0208                	addi	a0,sp,256
   12a86:	fffa8cc7          	fmsub.q	fs9,fs5,ft11,ft11,rne
   12a8a:	90be                	add	ra,ra,a5
   12a8c:	a4506ceb          	0xa4506ceb
   12a90:	bef9a3f7          	0xbef9a3f7
   12a94:	78f2                	ld	a7,312(sp)
   12a96:	c671                	beqz	a2,12b62 <__DATA_BEGIN__+0x1aea>
	...
   13078:	0c0002b7          	lui	t0,0xc000
   1307c:	0c200337          	lui	t1,0xc200
   13080:	0321                	addi	t1,t1,8
   13082:	0002a023          	sw	zero,0(t0) # c000000 <__BSS_END__+0xbfe2f60>
   13086:	0291                	addi	t0,t0,4
   13088:	fe62ede3          	bltu	t0,t1,13082 <__DATA_BEGIN__+0x200a>
   1308c:	100122b7          	lui	t0,0x10012
   13090:	006b0337          	lui	t1,0x6b0
   13094:	0262ac23          	sw	t1,56(t0) # 10012038 <__BSS_END__+0xfff4f98>
   13098:	00680337          	lui	t1,0x680
   1309c:	0262ae23          	sw	t1,60(t0)
   130a0:	100252b7          	lui	t0,0x10025
   130a4:	0ff00313          	li	t1,255
   130a8:	0262a223          	sw	t1,36(t0) # 10025024 <__BSS_END__+0x10007f84>
   130ac:	0262a423          	sw	t1,40(t0)
   130b0:	0262a623          	sw	t1,44(t0)
   130b4:	00000073          	ecall
	...
   14078:	00000517          	auipc	a0,0x0
   1407c:	08450513          	addi	a0,a0,132 # 140fc <__DATA_BEGIN__+0x3084>
   14080:	30551073          	csrw	mtvec,a0
   14084:	3050e073          	csrsi	mtvec,1
   14088:	5fbfe197          	auipc	gp,0x5fbfe
   1408c:	05018193          	addi	gp,gp,80 # 5fc120d8 <__BSS_END__+0x5fbf5038>
   14090:	aa018113          	addi	sp,gp,-1376 # 1c340 <__DATA_BEGIN__+0xb2c8>
   14094:	00000517          	auipc	a0,0x0
   14098:	40450513          	addi	a0,a0,1028 # 14498 <__DATA_BEGIN__+0x3420>
   1409c:	5fbfd597          	auipc	a1,0x5fbfd
   140a0:	7dc58593          	addi	a1,a1,2012 # 5fc11878 <__BSS_END__+0x5fbf47d8>
   140a4:	5fbfe617          	auipc	a2,0x5fbfe
   140a8:	83860613          	addi	a2,a2,-1992 # 5fc118dc <__BSS_END__+0x5fbf483c>
   140ac:	00c5fa63          	bgeu	a1,a2,140c0 <__DATA_BEGIN__+0x3048>
   140b0:	00052283          	lw	t0,0(a0)
   140b4:	0055a023          	sw	t0,0(a1)
   140b8:	0511                	addi	a0,a0,4
   140ba:	0591                	addi	a1,a1,4
   140bc:	fec5eae3          	bltu	a1,a2,140b0 <__DATA_BEGIN__+0x3038>
   140c0:	5fbfe517          	auipc	a0,0x5fbfe
   140c4:	82050513          	addi	a0,a0,-2016 # 5fc118e0 <__BSS_END__+0x5fbf4840>
   140c8:	89818593          	addi	a1,gp,-1896 # 1c138 <__DATA_BEGIN__+0xb0c0>
   140cc:	00b57763          	bgeu	a0,a1,140da <__DATA_BEGIN__+0x3062>
   140d0:	00052023          	sw	zero,0(a0)
   140d4:	0511                	addi	a0,a0,4
   140d6:	feb56de3          	bltu	a0,a1,140d0 <__DATA_BEGIN__+0x3058>
   140da:	00000517          	auipc	a0,0x0
   140de:	18050513          	addi	a0,a0,384 # 1425a <__DATA_BEGIN__+0x31e2>
   140e2:	22bd                	addiw	t0,t0,15
   140e4:	2a45                	addiw	s4,s4,17
   140e6:	00000097          	auipc	ra,0x0
   140ea:	1141                	addi	sp,sp,-16
   140ec:	c406                	sw	ra,8(sp)
   140ee:	4501                	li	a0,0
   140f0:	4581                	li	a1,0
   140f2:	285d                	addiw	a6,a6,23
   140f4:	a071                	j	14180 <__DATA_BEGIN__+0x3108>
   140f6:	a001                	j	140f6 <__DATA_BEGIN__+0x307e>
   140f8:	8082                	ret
   140fa:	8082                	ret
   140fc:	0800006f          	j	1417c <__DATA_BEGIN__+0x3104>
   14100:	0000006f          	j	14100 <__DATA_BEGIN__+0x3088>
   14104:	0000006f          	j	14104 <__DATA_BEGIN__+0x308c>
   14108:	0740006f          	j	1417c <__DATA_BEGIN__+0x3104>
   1410c:	0000006f          	j	1410c <__DATA_BEGIN__+0x3094>
   14110:	0000006f          	j	14110 <__DATA_BEGIN__+0x3098>
   14114:	0000006f          	j	14114 <__DATA_BEGIN__+0x309c>
   14118:	0640006f          	j	1417c <__DATA_BEGIN__+0x3104>
   1411c:	0000006f          	j	1411c <__DATA_BEGIN__+0x30a4>
   14120:	0000006f          	j	14120 <__DATA_BEGIN__+0x30a8>
   14124:	0000006f          	j	14124 <__DATA_BEGIN__+0x30ac>
   14128:	0540006f          	j	1417c <__DATA_BEGIN__+0x3104>
   1412c:	0000006f          	j	1412c <__DATA_BEGIN__+0x30b4>
   14130:	0000006f          	j	14130 <__DATA_BEGIN__+0x30b8>
   14134:	0000006f          	j	14134 <__DATA_BEGIN__+0x30bc>
   14138:	0000006f          	j	14138 <__DATA_BEGIN__+0x30c0>
   1413c:	0400006f          	j	1417c <__DATA_BEGIN__+0x3104>
   14140:	03c0006f          	j	1417c <__DATA_BEGIN__+0x3104>
   14144:	0380006f          	j	1417c <__DATA_BEGIN__+0x3104>
   14148:	0340006f          	j	1417c <__DATA_BEGIN__+0x3104>
   1414c:	0000006f          	j	1414c <__DATA_BEGIN__+0x30d4>
   14150:	0000006f          	j	14150 <__DATA_BEGIN__+0x30d8>
   14154:	0000006f          	j	14154 <__DATA_BEGIN__+0x30dc>
   14158:	0000006f          	j	14158 <__DATA_BEGIN__+0x30e0>
   1415c:	0000006f          	j	1415c <__DATA_BEGIN__+0x30e4>
   14160:	0000006f          	j	14160 <__DATA_BEGIN__+0x30e8>
   14164:	0000006f          	j	14164 <__DATA_BEGIN__+0x30ec>
   14168:	0000006f          	j	14168 <__DATA_BEGIN__+0x30f0>
   1416c:	0000006f          	j	1416c <__DATA_BEGIN__+0x30f4>
   14170:	0000006f          	j	14170 <__DATA_BEGIN__+0x30f8>
   14174:	0000006f          	j	14174 <__DATA_BEGIN__+0x30fc>
   14178:	0000006f          	j	14178 <__DATA_BEGIN__+0x3100>
   1417c:	a001                	j	1417c <__DATA_BEGIN__+0x3104>
   1417e:	0000                	unimp
   14180:	1141                	addi	sp,sp,-16
   14182:	204037b7          	lui	a5,0x20403
   14186:	c422                	sw	s0,8(sp)
   14188:	c606                	sw	ra,12(sp)
   1418a:	31e78793          	addi	a5,a5,798 # 2040331e <__BSS_END__+0x203e627e>
   1418e:	842a                	mv	s0,a0
   14190:	c399                	beqz	a5,14196 <__DATA_BEGIN__+0x311e>
   14192:	4581                	li	a1,0
   14194:	2409                	addiw	s0,s0,2
   14196:	800017b7          	lui	a5,0x80001
   1419a:	8607a503          	lw	a0,-1952(a5) # ffffffff80000860 <__BSS_END__+0xffffffff7ffe37c0>
   1419e:	551c                	lw	a5,40(a0)
   141a0:	c391                	beqz	a5,141a4 <__DATA_BEGIN__+0x312c>
   141a2:	9782                	jalr	a5
   141a4:	8522                	mv	a0,s0
   141a6:	2c75                	addiw	s8,s8,29
   141a8:	7179                	addi	sp,sp,-48
   141aa:	d606                	sw	ra,44(sp)
   141ac:	3050f7f3          	csrrci	a5,mtvec,1
   141b0:	304467f3          	csrrsi	a5,mie,8
   141b4:	300477f3          	csrrci	a5,mstatus,8
   141b8:	a829                	j	141d2 <__DATA_BEGIN__+0x315a>
   141ba:	858a                	mv	a1,sp
   141bc:	20403537          	lui	a0,0x20403
   141c0:	3f850513          	addi	a0,a0,1016 # 204033f8 <__BSS_END__+0x203e6358>
   141c4:	2a1d                	addiw	s4,s4,7
   141c6:	e929                	bnez	a0,14218 <__DATA_BEGIN__+0x31a0>
   141c8:	300477f3          	csrrci	a5,mstatus,8
   141cc:	4505                	li	a0,1
   141ce:	00300073          	0x300073
   141d2:	4785                	li	a5,1
   141d4:	85be                	mv	a1,a5
   141d6:	450d                	li	a0,3
   141d8:	00300073          	0x300073
   141dc:	c032                	sw	a2,0(sp)
   141de:	c236                	sw	a3,4(sp)
   141e0:	c43a                	sw	a4,8(sp)
   141e2:	c63e                	sw	a5,12(sp)
   141e4:	d565                	beqz	a0,141cc <__DATA_BEGIN__+0x3154>
   141e6:	858a                	mv	a1,sp
   141e8:	20403537          	lui	a0,0x20403
   141ec:	3f050513          	addi	a0,a0,1008 # 204033f0 <__BSS_END__+0x203e6350>
   141f0:	2229                	addiw	tp,tp,10
   141f2:	f561                	bnez	a0,141ba <__DATA_BEGIN__+0x3142>
   141f4:	676e77b7          	lui	a5,0x676e7
   141f8:	f7078793          	addi	a5,a5,-144 # 676e6f70 <__BSS_END__+0x676c9ed0>
   141fc:	c83e                	sw	a5,16(sp)
   141fe:	ca02                	sw	zero,20(sp)
   14200:	cc02                	sw	zero,24(sp)
   14202:	ce02                	sw	zero,28(sp)
   14204:	4505                	li	a0,1
   14206:	85aa                	mv	a1,a0
   14208:	4642                	lw	a2,16(sp)
   1420a:	46d2                	lw	a3,20(sp)
   1420c:	4762                	lw	a4,24(sp)
   1420e:	47f2                	lw	a5,28(sp)
   14210:	4509                	li	a0,2
   14212:	00300073          	0x300073
   14216:	bf5d                	j	141cc <__DATA_BEGIN__+0x3154>
   14218:	858a                	mv	a1,sp
   1421a:	20403537          	lui	a0,0x20403
   1421e:	40850513          	addi	a0,a0,1032 # 20403408 <__BSS_END__+0x203e6368>
   14222:	28e1                	addiw	a7,a7,24
   14224:	e501                	bnez	a0,1422c <__DATA_BEGIN__+0x31b4>
   14226:	300467f3          	csrrsi	a5,mstatus,8
   1422a:	b74d                	j	141cc <__DATA_BEGIN__+0x3154>
   1422c:	858a                	mv	a1,sp
   1422e:	20403537          	lui	a0,0x20403
   14232:	41850513          	addi	a0,a0,1048 # 20403418 <__BSS_END__+0x203e6378>
   14236:	20d1                	addiw	ra,ra,20
   14238:	c919                	beqz	a0,1424e <__DATA_BEGIN__+0x31d6>
   1423a:	4505                	li	a0,1
   1423c:	85aa                	mv	a1,a0
   1423e:	4602                	lw	a2,0(sp)
   14240:	4692                	lw	a3,4(sp)
   14242:	4722                	lw	a4,8(sp)
   14244:	47b2                	lw	a5,12(sp)
   14246:	4509                	li	a0,2
   14248:	00300073          	0x300073
   1424c:	b741                	j	141cc <__DATA_BEGIN__+0x3154>
   1424e:	a001                	j	1424e <__DATA_BEGIN__+0x31d6>
   14250:	85aa                	mv	a1,a0
   14252:	4681                	li	a3,0
   14254:	4601                	li	a2,0
   14256:	4501                	li	a0,0
   14258:	a86d                	j	14312 <__DATA_BEGIN__+0x329a>
   1425a:	1141                	addi	sp,sp,-16
   1425c:	204037b7          	lui	a5,0x20403
   14260:	c422                	sw	s0,8(sp)
   14262:	20403437          	lui	s0,0x20403
   14266:	10878713          	addi	a4,a5,264 # 20403108 <__BSS_END__+0x203e6068>
   1426a:	10840413          	addi	s0,s0,264 # 20403108 <__BSS_END__+0x203e6068>
   1426e:	8c19                	sub	s0,s0,a4
   14270:	c226                	sw	s1,4(sp)
   14272:	c606                	sw	ra,12(sp)
   14274:	8409                	srai	s0,s0,0x2
   14276:	10878493          	addi	s1,a5,264
   1427a:	e411                	bnez	s0,14286 <__DATA_BEGIN__+0x320e>
   1427c:	40b2                	lw	ra,12(sp)
   1427e:	4422                	lw	s0,8(sp)
   14280:	4492                	lw	s1,4(sp)
   14282:	0141                	addi	sp,sp,16
   14284:	8082                	ret
   14286:	147d                	addi	s0,s0,-1
   14288:	00241793          	slli	a5,s0,0x2
   1428c:	97a6                	add	a5,a5,s1
   1428e:	439c                	lw	a5,0(a5)
   14290:	9782                	jalr	a5
   14292:	b7e5                	j	1427a <__DATA_BEGIN__+0x3202>
   14294:	1141                	addi	sp,sp,-16
   14296:	c422                	sw	s0,8(sp)
   14298:	c226                	sw	s1,4(sp)
   1429a:	20403437          	lui	s0,0x20403
   1429e:	204034b7          	lui	s1,0x20403
   142a2:	10848793          	addi	a5,s1,264 # 20403108 <__BSS_END__+0x203e6068>
   142a6:	10840413          	addi	s0,s0,264 # 20403108 <__BSS_END__+0x203e6068>
   142aa:	8c1d                	sub	s0,s0,a5
   142ac:	c04a                	sw	s2,0(sp)
   142ae:	c606                	sw	ra,12(sp)
   142b0:	8409                	srai	s0,s0,0x2
   142b2:	10848493          	addi	s1,s1,264
   142b6:	4901                	li	s2,0
   142b8:	02891763          	bne	s2,s0,142e6 <__DATA_BEGIN__+0x326e>
   142bc:	204034b7          	lui	s1,0x20403
   142c0:	20403437          	lui	s0,0x20403
   142c4:	10848793          	addi	a5,s1,264 # 20403108 <__BSS_END__+0x203e6068>
   142c8:	10840413          	addi	s0,s0,264 # 20403108 <__BSS_END__+0x203e6068>
   142cc:	8c1d                	sub	s0,s0,a5
   142ce:	8409                	srai	s0,s0,0x2
   142d0:	10848493          	addi	s1,s1,264
   142d4:	4901                	li	s2,0
   142d6:	00891d63          	bne	s2,s0,142f0 <__DATA_BEGIN__+0x3278>
   142da:	40b2                	lw	ra,12(sp)
   142dc:	4422                	lw	s0,8(sp)
   142de:	4492                	lw	s1,4(sp)
   142e0:	4902                	lw	s2,0(sp)
   142e2:	0141                	addi	sp,sp,16
   142e4:	8082                	ret
   142e6:	409c                	lw	a5,0(s1)
   142e8:	0905                	addi	s2,s2,1
   142ea:	0491                	addi	s1,s1,4
   142ec:	9782                	jalr	a5
   142ee:	b7e9                	j	142b8 <__DATA_BEGIN__+0x3240>
   142f0:	409c                	lw	a5,0(s1)
   142f2:	0905                	addi	s2,s2,1
   142f4:	0491                	addi	s1,s1,4
   142f6:	9782                	jalr	a5
   142f8:	bff9                	j	142d6 <__DATA_BEGIN__+0x325e>
   142fa:	00054603          	lbu	a2,0(a0)
   142fe:	0005c683          	lbu	a3,0(a1)
   14302:	0505                	addi	a0,a0,1
   14304:	0585                	addi	a1,a1,1
   14306:	00d61363          	bne	a2,a3,1430c <__DATA_BEGIN__+0x3294>
   1430a:	fa65                	bnez	a2,142fa <__DATA_BEGIN__+0x3282>
   1430c:	40d60533          	sub	a0,a2,a3
   14310:	8082                	ret
   14312:	80001837          	lui	a6,0x80001
   14316:	86882783          	lw	a5,-1944(a6) # ffffffff80000868 <__BSS_END__+0xffffffff7ffe37c8>
   1431a:	88aa                	mv	a7,a0
   1431c:	e39d                	bnez	a5,14342 <__DATA_BEGIN__+0x32ca>
   1431e:	80001737          	lui	a4,0x80001
   14322:	86c70513          	addi	a0,a4,-1940 # ffffffff8000086c <__BSS_END__+0xffffffff7ffe37cc>
   14326:	86a82423          	sw	a0,-1944(a6)
   1432a:	00000313          	li	t1,0
   1432e:	86c70793          	addi	a5,a4,-1940
   14332:	00030863          	beqz	t1,14342 <__DATA_BEGIN__+0x32ca>
   14336:	00002783          	lw	a5,0(zero) # 0 <_binary_multizone_bin_size-0xc024>
   1433a:	08f52423          	sw	a5,136(a0)
   1433e:	86c70793          	addi	a5,a4,-1940
   14342:	43d8                	lw	a4,4(a5)
   14344:	487d                	li	a6,31
   14346:	557d                	li	a0,-1
   14348:	04e84663          	blt	a6,a4,14394 <__DATA_BEGIN__+0x331c>
   1434c:	02088d63          	beqz	a7,14386 <__DATA_BEGIN__+0x330e>
   14350:	0887a803          	lw	a6,136(a5)
   14354:	04080063          	beqz	a6,14394 <__DATA_BEGIN__+0x331c>
   14358:	00271513          	slli	a0,a4,0x2
   1435c:	9542                	add	a0,a0,a6
   1435e:	c110                	sw	a2,0(a0)
   14360:	10082303          	lw	t1,256(a6)
   14364:	4605                	li	a2,1
   14366:	00e61633          	sll	a2,a2,a4
   1436a:	00c36333          	or	t1,t1,a2
   1436e:	10682023          	sw	t1,256(a6)
   14372:	08d52023          	sw	a3,128(a0)
   14376:	4689                	li	a3,2
   14378:	00d89763          	bne	a7,a3,14386 <__DATA_BEGIN__+0x330e>
   1437c:	10482683          	lw	a3,260(a6)
   14380:	8e55                	or	a2,a2,a3
   14382:	10c82223          	sw	a2,260(a6)
   14386:	00170693          	addi	a3,a4,1
   1438a:	070a                	slli	a4,a4,0x2
   1438c:	c3d4                	sw	a3,4(a5)
   1438e:	97ba                	add	a5,a5,a4
   14390:	c78c                	sw	a1,8(a5)
   14392:	4501                	li	a0,0
   14394:	8082                	ret
   14396:	7179                	addi	sp,sp,-48
   14398:	ca56                	sw	s5,20(sp)
   1439a:	c85a                	sw	s6,16(sp)
   1439c:	c65e                	sw	s7,12(sp)
   1439e:	c266                	sw	s9,4(sp)
   143a0:	d606                	sw	ra,44(sp)
   143a2:	d422                	sw	s0,40(sp)
   143a4:	d226                	sw	s1,36(sp)
   143a6:	d04a                	sw	s2,32(sp)
   143a8:	ce4e                	sw	s3,28(sp)
   143aa:	cc52                	sw	s4,24(sp)
   143ac:	c462                	sw	s8,8(sp)
   143ae:	c06a                	sw	s10,0(sp)
   143b0:	8b2a                	mv	s6,a0
   143b2:	8aae                	mv	s5,a1
   143b4:	80001bb7          	lui	s7,0x80001
   143b8:	4c85                	li	s9,1
   143ba:	868ba483          	lw	s1,-1944(s7) # ffffffff80000868 <__BSS_END__+0xffffffff7ffe37c8>
   143be:	868b8c13          	addi	s8,s7,-1944
   143c2:	cc81                	beqz	s1,143da <__DATA_BEGIN__+0x3362>
   143c4:	40c0                	lw	s0,4(s1)
   143c6:	0884a983          	lw	s3,136(s1)
   143ca:	fff40913          	addi	s2,s0,-1
   143ce:	040a                	slli	s0,s0,0x2
   143d0:	00898a33          	add	s4,s3,s0
   143d4:	9426                	add	s0,s0,s1
   143d6:	02095063          	bgez	s2,143f6 <__DATA_BEGIN__+0x337e>
   143da:	50b2                	lw	ra,44(sp)
   143dc:	5422                	lw	s0,40(sp)
   143de:	5492                	lw	s1,36(sp)
   143e0:	5902                	lw	s2,32(sp)
   143e2:	49f2                	lw	s3,28(sp)
   143e4:	4a62                	lw	s4,24(sp)
   143e6:	4ad2                	lw	s5,20(sp)
   143e8:	4b42                	lw	s6,16(sp)
   143ea:	4bb2                	lw	s7,12(sp)
   143ec:	4c22                	lw	s8,8(sp)
   143ee:	4c92                	lw	s9,4(sp)
   143f0:	4d02                	lw	s10,0(sp)
   143f2:	6145                	addi	sp,sp,48
   143f4:	8082                	ret
   143f6:	000a8c63          	beqz	s5,1440e <__DATA_BEGIN__+0x3396>
   143fa:	00099663          	bnez	s3,14406 <__DATA_BEGIN__+0x338e>
   143fe:	197d                	addi	s2,s2,-1
   14400:	1a71                	addi	s4,s4,-4
   14402:	1471                	addi	s0,s0,-4
   14404:	bfc9                	j	143d6 <__DATA_BEGIN__+0x335e>
   14406:	07ca2783          	lw	a5,124(s4)
   1440a:	ff579ae3          	bne	a5,s5,143fe <__DATA_BEGIN__+0x3386>
   1440e:	40d8                	lw	a4,4(s1)
   14410:	405c                	lw	a5,4(s0)
   14412:	177d                	addi	a4,a4,-1
   14414:	03271863          	bne	a4,s2,14444 <__DATA_BEGIN__+0x33cc>
   14418:	0124a223          	sw	s2,4(s1)
   1441c:	d3ed                	beqz	a5,143fe <__DATA_BEGIN__+0x3386>
   1441e:	0044ad03          	lw	s10,4(s1)
   14422:	00098863          	beqz	s3,14432 <__DATA_BEGIN__+0x33ba>
   14426:	1009a683          	lw	a3,256(s3)
   1442a:	012c9733          	sll	a4,s9,s2
   1442e:	8ef9                	and	a3,a3,a4
   14430:	ee89                	bnez	a3,1444a <__DATA_BEGIN__+0x33d2>
   14432:	9782                	jalr	a5
   14434:	40d8                	lw	a4,4(s1)
   14436:	000c2783          	lw	a5,0(s8)
   1443a:	f9a710e3          	bne	a4,s10,143ba <__DATA_BEGIN__+0x3342>
   1443e:	fcf480e3          	beq	s1,a5,143fe <__DATA_BEGIN__+0x3386>
   14442:	bfa5                	j	143ba <__DATA_BEGIN__+0x3342>
   14444:	00042223          	sw	zero,4(s0)
   14448:	bfd1                	j	1441c <__DATA_BEGIN__+0x33a4>
   1444a:	1049a683          	lw	a3,260(s3)
   1444e:	ffca2583          	lw	a1,-4(s4)
   14452:	8f75                	and	a4,a4,a3
   14454:	e701                	bnez	a4,1445c <__DATA_BEGIN__+0x33e4>
   14456:	855a                	mv	a0,s6
   14458:	9782                	jalr	a5
   1445a:	bfe9                	j	14434 <__DATA_BEGIN__+0x33bc>
   1445c:	852e                	mv	a0,a1
   1445e:	9782                	jalr	a5
   14460:	bfd1                	j	14434 <__DATA_BEGIN__+0x33bc>
   14462:	a001                	j	14462 <__DATA_BEGIN__+0x33ea>
   14464:	0000                	unimp
   14466:	0000                	unimp
   14468:	6970                	ld	a2,208(a0)
   1446a:	676e                	ld	a4,216(sp)
   1446c:	0000                	unimp
   1446e:	0000                	unimp
   14470:	736d                	lui	t1,0xffffb
   14472:	6174                	ld	a3,192(a0)
   14474:	7574                	ld	a3,232(a0)
   14476:	696d2e73          	csrrs	t3,0x696,s10
   1447a:	3d65                	addiw	s10,s10,-7
   1447c:	0030                	addi	a2,sp,8
   1447e:	0000                	unimp
   14480:	736d                	lui	t1,0xffffb
   14482:	6174                	ld	a3,192(a0)
   14484:	7574                	ld	a3,232(a0)
   14486:	696d2e73          	csrrs	t3,0x696,s10
   1448a:	3d65                	addiw	s10,s10,-7
   1448c:	0031                	c.nop	12
   1448e:	0000                	unimp
   14490:	6c62                	ld	s8,24(sp)
   14492:	006b636f          	jal	t1,ca498 <__BSS_END__+0xad3f8>
	...
   144f6:	0000                	unimp
   144f8:	0800                	addi	s0,sp,16
   144fa:	8000                	0x8000
	...
   15078:	00000517          	auipc	a0,0x0
   1507c:	08450513          	addi	a0,a0,132 # 150fc <__DATA_BEGIN__+0x4084>
   15080:	30551073          	csrw	mtvec,a0
   15084:	3050e073          	csrsi	mtvec,1
   15088:	5fbfe197          	auipc	gp,0x5fbfe
   1508c:	94818193          	addi	gp,gp,-1720 # 5fc129d0 <__BSS_END__+0x5fbf5930>
   15090:	9c818113          	addi	sp,gp,-1592 # 1c268 <__DATA_BEGIN__+0xb1f0>
   15094:	00001517          	auipc	a0,0x1
   15098:	ac450513          	addi	a0,a0,-1340 # 15b58 <__DATA_BEGIN__+0x4ae0>
   1509c:	5fbfd597          	auipc	a1,0x5fbfd
   150a0:	fdc58593          	addi	a1,a1,-36 # 5fc12078 <__BSS_END__+0x5fbf4fd8>
   150a4:	5fbfd617          	auipc	a2,0x5fbfd
   150a8:	13860613          	addi	a2,a2,312 # 5fc121dc <__BSS_END__+0x5fbf513c>
   150ac:	00c5fa63          	bgeu	a1,a2,150c0 <__DATA_BEGIN__+0x4048>
   150b0:	00052283          	lw	t0,0(a0)
   150b4:	0055a023          	sw	t0,0(a1)
   150b8:	0511                	addi	a0,a0,4
   150ba:	0591                	addi	a1,a1,4
   150bc:	fec5eae3          	bltu	a1,a2,150b0 <__DATA_BEGIN__+0x4038>
   150c0:	81018513          	addi	a0,gp,-2032 # 1c0b0 <__DATA_BEGIN__+0xb038>
   150c4:	8c818593          	addi	a1,gp,-1848 # 1c168 <__DATA_BEGIN__+0xb0f0>
   150c8:	00b57763          	bgeu	a0,a1,150d6 <__DATA_BEGIN__+0x405e>
   150cc:	00052023          	sw	zero,0(a0)
   150d0:	0511                	addi	a0,a0,4
   150d2:	feb56de3          	bltu	a0,a1,150cc <__DATA_BEGIN__+0x4054>
   150d6:	00001517          	auipc	a0,0x1
   150da:	80a50513          	addi	a0,a0,-2038 # 158e0 <__DATA_BEGIN__+0x4868>
   150de:	7f8000ef          	jal	ra,158d6 <__DATA_BEGIN__+0x485e>
   150e2:	039000ef          	jal	ra,1591a <__DATA_BEGIN__+0x48a2>
   150e6:	00000097          	auipc	ra,0x0
   150ea:	1141                	addi	sp,sp,-16
   150ec:	c406                	sw	ra,8(sp)
   150ee:	4501                	li	a0,0
   150f0:	4581                	li	a1,0
   150f2:	2595                	addiw	a1,a1,5
   150f4:	a071                	j	15180 <__DATA_BEGIN__+0x4108>
   150f6:	a001                	j	150f6 <__DATA_BEGIN__+0x407e>
   150f8:	8082                	ret
   150fa:	8082                	ret
   150fc:	3d00006f          	j	154cc <__DATA_BEGIN__+0x4454>
   15100:	0000006f          	j	15100 <__DATA_BEGIN__+0x4088>
   15104:	0000006f          	j	15104 <__DATA_BEGIN__+0x408c>
   15108:	0740006f          	j	1517c <__DATA_BEGIN__+0x4104>
   1510c:	0000006f          	j	1510c <__DATA_BEGIN__+0x4094>
   15110:	0000006f          	j	15110 <__DATA_BEGIN__+0x4098>
   15114:	0000006f          	j	15114 <__DATA_BEGIN__+0x409c>
   15118:	0640006f          	j	1517c <__DATA_BEGIN__+0x4104>
   1511c:	0000006f          	j	1511c <__DATA_BEGIN__+0x40a4>
   15120:	0000006f          	j	15120 <__DATA_BEGIN__+0x40a8>
   15124:	0000006f          	j	15124 <__DATA_BEGIN__+0x40ac>
   15128:	0540006f          	j	1517c <__DATA_BEGIN__+0x4104>
   1512c:	0000006f          	j	1512c <__DATA_BEGIN__+0x40b4>
   15130:	0000006f          	j	15130 <__DATA_BEGIN__+0x40b8>
   15134:	0000006f          	j	15134 <__DATA_BEGIN__+0x40bc>
   15138:	0000006f          	j	15138 <__DATA_BEGIN__+0x40c0>
   1513c:	0400006f          	j	1517c <__DATA_BEGIN__+0x4104>
   15140:	03c0006f          	j	1517c <__DATA_BEGIN__+0x4104>
   15144:	0380006f          	j	1517c <__DATA_BEGIN__+0x4104>
   15148:	0340006f          	j	1517c <__DATA_BEGIN__+0x4104>
   1514c:	0000006f          	j	1514c <__DATA_BEGIN__+0x40d4>
   15150:	0000006f          	j	15150 <__DATA_BEGIN__+0x40d8>
   15154:	0000006f          	j	15154 <__DATA_BEGIN__+0x40dc>
   15158:	0000006f          	j	15158 <__DATA_BEGIN__+0x40e0>
   1515c:	0000006f          	j	1515c <__DATA_BEGIN__+0x40e4>
   15160:	0000006f          	j	15160 <__DATA_BEGIN__+0x40e8>
   15164:	0000006f          	j	15164 <__DATA_BEGIN__+0x40ec>
   15168:	0000006f          	j	15168 <__DATA_BEGIN__+0x40f0>
   1516c:	0000006f          	j	1516c <__DATA_BEGIN__+0x40f4>
   15170:	0000006f          	j	15170 <__DATA_BEGIN__+0x40f8>
   15174:	0000006f          	j	15174 <__DATA_BEGIN__+0x40fc>
   15178:	0000006f          	j	15178 <__DATA_BEGIN__+0x4100>
   1517c:	a001                	j	1517c <__DATA_BEGIN__+0x4104>
   1517e:	0000                	unimp
   15180:	1141                	addi	sp,sp,-16
   15182:	204057b7          	lui	a5,0x20405
   15186:	c422                	sw	s0,8(sp)
   15188:	c606                	sw	ra,12(sp)
   1518a:	99c78793          	addi	a5,a5,-1636 # 2040499c <__BSS_END__+0x203e78fc>
   1518e:	842a                	mv	s0,a0
   15190:	c781                	beqz	a5,15198 <__DATA_BEGIN__+0x4120>
   15192:	4581                	li	a1,0
   15194:	081000ef          	jal	ra,15a14 <__DATA_BEGIN__+0x499c>
   15198:	800017b7          	lui	a5,0x80001
   1519c:	1587a503          	lw	a0,344(a5) # ffffffff80001158 <__BSS_END__+0xffffffff7ffe40b8>
   151a0:	551c                	lw	a5,40(a0)
   151a2:	c391                	beqz	a5,151a6 <__DATA_BEGIN__+0x412e>
   151a4:	9782                	jalr	a5
   151a6:	8522                	mv	a0,s0
   151a8:	135000ef          	jal	ra,15adc <__DATA_BEGIN__+0x4a64>
   151ac:	862a                	mv	a2,a0
   151ae:	4681                	li	a3,0
   151b0:	4501                	li	a0,0
   151b2:	a025                	j	151da <__DATA_BEGIN__+0x4162>
   151b4:	0506                	slli	a0,a0,0x1
   151b6:	01d54513          	xori	a0,a0,29
   151ba:	0ff57513          	andi	a0,a0,255
   151be:	0785                	addi	a5,a5,1
   151c0:	471d                	li	a4,7
   151c2:	00f74b63          	blt	a4,a5,151d8 <__DATA_BEGIN__+0x4160>
   151c6:	01851713          	slli	a4,a0,0x18
   151ca:	8761                	srai	a4,a4,0x18
   151cc:	fe0744e3          	bltz	a4,151b4 <__DATA_BEGIN__+0x413c>
   151d0:	0506                	slli	a0,a0,0x1
   151d2:	0ff57513          	andi	a0,a0,255
   151d6:	b7e5                	j	151be <__DATA_BEGIN__+0x4146>
   151d8:	0685                	addi	a3,a3,1
   151da:	4789                	li	a5,2
   151dc:	00d7c963          	blt	a5,a3,151ee <__DATA_BEGIN__+0x4176>
   151e0:	00d607b3          	add	a5,a2,a3
   151e4:	0007c783          	lbu	a5,0(a5)
   151e8:	8d3d                	xor	a0,a0,a5
   151ea:	4781                	li	a5,0
   151ec:	bfd1                	j	151c0 <__DATA_BEGIN__+0x4148>
   151ee:	8082                	ret
   151f0:	1101                	addi	sp,sp,-32
   151f2:	ce06                	sw	ra,28(sp)
   151f4:	cc22                	sw	s0,24(sp)
   151f6:	0ff57793          	andi	a5,a0,255
   151fa:	00f10623          	sb	a5,12(sp) # fffffffffbcf700c <__BSS_END__+0xfffffffffbcd9f6c>
   151fe:	00855593          	srli	a1,a0,0x8
   15202:	0ff5f593          	andi	a1,a1,255
   15206:	00b106a3          	sb	a1,13(sp)
   1520a:	8141                	srli	a0,a0,0x10
   1520c:	0ff57513          	andi	a0,a0,255
   15210:	00a10723          	sb	a0,14(sp)
   15214:	07e2                	slli	a5,a5,0x18
   15216:	05c2                	slli	a1,a1,0x10
   15218:	8ddd                	or	a1,a1,a5
   1521a:	0522                	slli	a0,a0,0x8
   1521c:	00a5e433          	or	s0,a1,a0
   15220:	0068                	addi	a0,sp,12
   15222:	3769                	addiw	a4,a4,-6
   15224:	00a465b3          	or	a1,s0,a0
   15228:	800007b7          	lui	a5,0x80000
   1522c:	4501                	li	a0,0
   1522e:	a811                	j	15242 <__DATA_BEGIN__+0x41ca>
   15230:	dff00693          	li	a3,-513
   15234:	10012737          	lui	a4,0x10012
   15238:	0731                	addi	a4,a4,12
   1523a:	60d7202f          	amoand.w	zero,a3,(a4)
   1523e:	a025                	j	15266 <__DATA_BEGIN__+0x41ee>
   15240:	8385                	srli	a5,a5,0x1
   15242:	c3b1                	beqz	a5,15286 <__DATA_BEGIN__+0x420e>
   15244:	40000693          	li	a3,1024
   15248:	10012737          	lui	a4,0x10012
   1524c:	0731                	addi	a4,a4,12
   1524e:	40d7202f          	amoor.w	zero,a3,(a4)
   15252:	00b7f733          	and	a4,a5,a1
   15256:	df69                	beqz	a4,15230 <__DATA_BEGIN__+0x41b8>
   15258:	20000693          	li	a3,512
   1525c:	10012737          	lui	a4,0x10012
   15260:	0731                	addi	a4,a4,12
   15262:	40d7202f          	amoor.w	zero,a3,(a4)
   15266:	10012737          	lui	a4,0x10012
   1526a:	00c70613          	addi	a2,a4,12 # 1001200c <__BSS_END__+0xfff4f6c>
   1526e:	bff00693          	li	a3,-1025
   15272:	60d6202f          	amoand.w	zero,a3,(a2)
   15276:	4318                	lw	a4,0(a4)
   15278:	6685                	lui	a3,0x1
   1527a:	80068693          	addi	a3,a3,-2048 # 800 <_binary_multizone_bin_size-0xb824>
   1527e:	8f75                	and	a4,a4,a3
   15280:	d361                	beqz	a4,15240 <__DATA_BEGIN__+0x41c8>
   15282:	8d5d                	or	a0,a0,a5
   15284:	bf75                	j	15240 <__DATA_BEGIN__+0x41c8>
   15286:	40f2                	lw	ra,28(sp)
   15288:	4462                	lw	s0,24(sp)
   1528a:	6105                	addi	sp,sp,32
   1528c:	8082                	ret
   1528e:	1141                	addi	sp,sp,-16
   15290:	c606                	sw	ra,12(sp)
   15292:	8001a823          	sw	zero,-2032(gp) # 1c0b0 <__DATA_BEGIN__+0xb038>
   15296:	4501                	li	a0,0
   15298:	3fa1                	addiw	t6,t6,-24
   1529a:	557d                	li	a0,-1
   1529c:	55fd                	li	a1,-1
   1529e:	40b2                	lw	ra,12(sp)
   152a0:	0141                	addi	sp,sp,16
   152a2:	8082                	ret
   152a4:	800017b7          	lui	a5,0x80001
   152a8:	15c7a703          	lw	a4,348(a5) # ffffffff8000115c <__BSS_END__+0xffffffff7ffe40bc>
   152ac:	4785                	li	a5,1
   152ae:	00e797b3          	sll	a5,a5,a4
   152b2:	fff7c793          	not	a5,a5
   152b6:	10012737          	lui	a4,0x10012
   152ba:	0731                	addi	a4,a4,12
   152bc:	60f7202f          	amoand.w	zero,a5,(a4)
   152c0:	557d                	li	a0,-1
   152c2:	55fd                	li	a1,-1
   152c4:	8082                	ret
   152c6:	8141a703          	lw	a4,-2028(gp) # 1c0b4 <__DATA_BEGIN__+0xb03c>
   152ca:	126707b7          	lui	a5,0x12670
   152ce:	00f70563          	beq	a4,a5,152d8 <__DATA_BEGIN__+0x4260>
   152d2:	557d                	li	a0,-1
   152d4:	55fd                	li	a1,-1
   152d6:	8082                	ret
   152d8:	1141                	addi	sp,sp,-16
   152da:	c606                	sw	ra,12(sp)
   152dc:	c422                	sw	s0,8(sp)
   152de:	c226                	sw	s1,4(sp)
   152e0:	2b85                	addiw	s7,s7,1
   152e2:	57fd                	li	a5,-1
   152e4:	04f50063          	beq	a0,a5,15324 <__DATA_BEGIN__+0x42ac>
   152e8:	235d                	addiw	t1,t1,23
   152ea:	3719                	addiw	a4,a4,-26
   152ec:	4511                	li	a0,4
   152ee:	00300073          	0x300073
   152f2:	84ae                	mv	s1,a1
   152f4:	842a                	mv	s0,a0
   152f6:	23c1                	addiw	t2,t2,16
   152f8:	00951793          	slli	a5,a0,0x9
   152fc:	97aa                	add	a5,a5,a0
   152fe:	0796                	slli	a5,a5,0x5
   15300:	3e800593          	li	a1,1000
   15304:	02b7c7b3          	div	a5,a5,a1
   15308:	41f7d713          	srai	a4,a5,0x1f
   1530c:	00878533          	add	a0,a5,s0
   15310:	00f537b3          	sltu	a5,a0,a5
   15314:	009705b3          	add	a1,a4,s1
   15318:	95be                	add	a1,a1,a5
   1531a:	40b2                	lw	ra,12(sp)
   1531c:	4422                	lw	s0,8(sp)
   1531e:	4492                	lw	s1,4(sp)
   15320:	0141                	addi	sp,sp,16
   15322:	8082                	ret
   15324:	557d                	li	a0,-1
   15326:	55fd                	li	a1,-1
   15328:	bfcd                	j	1531a <__DATA_BEGIN__+0x42a2>
   1532a:	00451793          	slli	a5,a0,0x4
   1532e:	80001537          	lui	a0,0x80001
   15332:	00050513          	mv	a0,a0
   15336:	953e                	add	a0,a0,a5
   15338:	c50c                	sw	a1,8(a0)
   1533a:	c550                	sw	a2,12(a0)
   1533c:	4681                	li	a3,0
   1533e:	58fd                	li	a7,-1
   15340:	587d                	li	a6,-1
   15342:	a021                	j	1534a <__DATA_BEGIN__+0x42d2>
   15344:	88ba                	mv	a7,a4
   15346:	883e                	mv	a6,a5
   15348:	0685                	addi	a3,a3,1
   1534a:	478d                	li	a5,3
   1534c:	02d7e263          	bltu	a5,a3,15370 <__DATA_BEGIN__+0x42f8>
   15350:	00469793          	slli	a5,a3,0x4
   15354:	80001737          	lui	a4,0x80001
   15358:	00070713          	mv	a4,a4
   1535c:	97ba                	add	a5,a5,a4
   1535e:	4798                	lw	a4,8(a5)
   15360:	47dc                	lw	a5,12(a5)
   15362:	ff07e1e3          	bltu	a5,a6,15344 <__DATA_BEGIN__+0x42cc>
   15366:	fef811e3          	bne	a6,a5,15348 <__DATA_BEGIN__+0x42d0>
   1536a:	fd177fe3          	bgeu	a4,a7,15348 <__DATA_BEGIN__+0x42d0>
   1536e:	bfd9                	j	15344 <__DATA_BEGIN__+0x42cc>
   15370:	85c6                	mv	a1,a7
   15372:	8642                	mv	a2,a6
   15374:	4519                	li	a0,6
   15376:	00300073          	0x300073
   1537a:	8082                	ret
   1537c:	7139                	addi	sp,sp,-64
   1537e:	de06                	sw	ra,60(sp)
   15380:	dc22                	sw	s0,56(sp)
   15382:	da26                	sw	s1,52(sp)
   15384:	01000537          	lui	a0,0x1000
   15388:	157d                	addi	a0,a0,-1
   1538a:	359d                	addiw	a1,a1,-25
   1538c:	c62a                	sw	a0,12(sp)
   1538e:	4732                	lw	a4,12(sp)
   15390:	8141a783          	lw	a5,-2028(gp) # 1c0b4 <__DATA_BEGIN__+0xb03c>
   15394:	02f70063          	beq	a4,a5,153b4 <__DATA_BEGIN__+0x433c>
   15398:	4732                	lw	a4,12(sp)
   1539a:	126707b7          	lui	a5,0x12670
   1539e:	06f70063          	beq	a4,a5,153fe <__DATA_BEGIN__+0x4386>
   153a2:	8141a703          	lw	a4,-2028(gp) # 1c0b4 <__DATA_BEGIN__+0xb03c>
   153a6:	126707b7          	lui	a5,0x12670
   153aa:	08f70563          	beq	a4,a5,15434 <__DATA_BEGIN__+0x43bc>
   153ae:	4732                	lw	a4,12(sp)
   153b0:	80e1aa23          	sw	a4,-2028(gp) # 1c0b4 <__DATA_BEGIN__+0xb03c>
   153b4:	4511                	li	a0,4
   153b6:	00300073          	0x300073
   153ba:	84ae                	mv	s1,a1
   153bc:	842a                	mv	s0,a0
   153be:	800017b7          	lui	a5,0x80001
   153c2:	15c7a703          	lw	a4,348(a5) # ffffffff8000115c <__BSS_END__+0xffffffff7ffe40bc>
   153c6:	4785                	li	a5,1
   153c8:	00e797b3          	sll	a5,a5,a4
   153cc:	10012737          	lui	a4,0x10012
   153d0:	0731                	addi	a4,a4,12
   153d2:	40f7202f          	amoor.w	zero,a5,(a4)
   153d6:	14050593          	addi	a1,a0,320 # 1000140 <__BSS_END__+0xfe30a0>
   153da:	00a5b633          	sltu	a2,a1,a0
   153de:	9626                	add	a2,a2,s1
   153e0:	450d                	li	a0,3
   153e2:	37a1                	addiw	a5,a5,-24
   153e4:	6511                	lui	a0,0x4
   153e6:	02050513          	addi	a0,a0,32 # 4020 <_binary_multizone_bin_size-0x8004>
   153ea:	9522                	add	a0,a0,s0
   153ec:	00853433          	sltu	s0,a0,s0
   153f0:	009405b3          	add	a1,s0,s1
   153f4:	50f2                	lw	ra,60(sp)
   153f6:	5462                	lw	s0,56(sp)
   153f8:	54d2                	lw	s1,52(sp)
   153fa:	6121                	addi	sp,sp,64
   153fc:	8082                	ret
   153fe:	800017b7          	lui	a5,0x80001
   15402:	4709                	li	a4,2
   15404:	14e7ae23          	sw	a4,348(a5) # ffffffff8000115c <__BSS_END__+0xffffffff7ffe40bc>
   15408:	204057b7          	lui	a5,0x20405
   1540c:	a6878793          	addi	a5,a5,-1432 # 20404a68 <__BSS_END__+0x203e79c8>
   15410:	4390                	lw	a2,0(a5)
   15412:	43d4                	lw	a3,4(a5)
   15414:	4798                	lw	a4,8(a5)
   15416:	47dc                	lw	a5,12(a5)
   15418:	c832                	sw	a2,16(sp)
   1541a:	ca36                	sw	a3,20(sp)
   1541c:	cc3a                	sw	a4,24(sp)
   1541e:	ce3e                	sw	a5,28(sp)
   15420:	4505                	li	a0,1
   15422:	85aa                	mv	a1,a0
   15424:	4642                	lw	a2,16(sp)
   15426:	46d2                	lw	a3,20(sp)
   15428:	4762                	lw	a4,24(sp)
   1542a:	47f2                	lw	a5,28(sp)
   1542c:	4509                	li	a0,2
   1542e:	00300073          	0x300073
   15432:	bfb5                	j	153ae <__DATA_BEGIN__+0x4336>
   15434:	800017b7          	lui	a5,0x80001
   15438:	4505                	li	a0,1
   1543a:	14a7ae23          	sw	a0,348(a5) # ffffffff8000115c <__BSS_END__+0xffffffff7ffe40bc>
   1543e:	204057b7          	lui	a5,0x20405
   15442:	ad078793          	addi	a5,a5,-1328 # 20404ad0 <__BSS_END__+0x203e7a30>
   15446:	4390                	lw	a2,0(a5)
   15448:	43d4                	lw	a3,4(a5)
   1544a:	4798                	lw	a4,8(a5)
   1544c:	d032                	sw	a2,32(sp)
   1544e:	d236                	sw	a3,36(sp)
   15450:	d43a                	sw	a4,40(sp)
   15452:	00c7d703          	lhu	a4,12(a5)
   15456:	02e11623          	sh	a4,44(sp)
   1545a:	00e7c783          	lbu	a5,14(a5)
   1545e:	02f10723          	sb	a5,46(sp)
   15462:	020107a3          	sb	zero,47(sp)
   15466:	85aa                	mv	a1,a0
   15468:	5602                	lw	a2,32(sp)
   1546a:	5692                	lw	a3,36(sp)
   1546c:	5722                	lw	a4,40(sp)
   1546e:	57b2                	lw	a5,44(sp)
   15470:	4509                	li	a0,2
   15472:	00300073          	0x300073
   15476:	26d9                	addiw	a3,a3,22
   15478:	bf1d                	j	153ae <__DATA_BEGIN__+0x4336>
   1547a:	1141                	addi	sp,sp,-16
   1547c:	c606                	sw	ra,12(sp)
   1547e:	c422                	sw	s0,8(sp)
   15480:	4401                	li	s0,0
   15482:	478d                	li	a5,3
   15484:	0487e063          	bltu	a5,s0,154c4 <__DATA_BEGIN__+0x444c>
   15488:	00441793          	slli	a5,s0,0x4
   1548c:	80001737          	lui	a4,0x80001
   15490:	00070713          	mv	a4,a4
   15494:	97ba                	add	a5,a5,a4
   15496:	4798                	lw	a4,8(a5)
   15498:	47dc                	lw	a5,12(a5)
   1549a:	00f5f463          	bgeu	a1,a5,154a2 <__DATA_BEGIN__+0x442a>
   1549e:	0405                	addi	s0,s0,1
   154a0:	b7cd                	j	15482 <__DATA_BEGIN__+0x440a>
   154a2:	00b79463          	bne	a5,a1,154aa <__DATA_BEGIN__+0x4432>
   154a6:	fee56ce3          	bltu	a0,a4,1549e <__DATA_BEGIN__+0x4426>
   154aa:	00441713          	slli	a4,s0,0x4
   154ae:	800017b7          	lui	a5,0x80001
   154b2:	00078793          	mv	a5,a5
   154b6:	97ba                	add	a5,a5,a4
   154b8:	439c                	lw	a5,0(a5)
   154ba:	9782                	jalr	a5
   154bc:	862e                	mv	a2,a1
   154be:	85aa                	mv	a1,a0
   154c0:	8522                	mv	a0,s0
   154c2:	35a5                	addiw	a1,a1,-23
   154c4:	40b2                	lw	ra,12(sp)
   154c6:	4422                	lw	s0,8(sp)
   154c8:	0141                	addi	sp,sp,16
   154ca:	8082                	ret
   154cc:	715d                	addi	sp,sp,-80
   154ce:	c686                	sw	ra,76(sp)
   154d0:	c496                	sw	t0,72(sp)
   154d2:	c29a                	sw	t1,68(sp)
   154d4:	c09e                	sw	t2,64(sp)
   154d6:	de2a                	sw	a0,60(sp)
   154d8:	dc2e                	sw	a1,56(sp)
   154da:	da32                	sw	a2,52(sp)
   154dc:	d836                	sw	a3,48(sp)
   154de:	d63a                	sw	a4,44(sp)
   154e0:	d43e                	sw	a5,40(sp)
   154e2:	d242                	sw	a6,36(sp)
   154e4:	d046                	sw	a7,32(sp)
   154e6:	ce72                	sw	t3,28(sp)
   154e8:	cc76                	sw	t4,24(sp)
   154ea:	ca7a                	sw	t5,20(sp)
   154ec:	c87e                	sw	t6,16(sp)
   154ee:	4515                	li	a0,5
   154f0:	85aa                	mv	a1,a0
   154f2:	4521                	li	a0,8
   154f4:	00300073          	0x300073
   154f8:	800007b7          	lui	a5,0x80000
   154fc:	078d                	addi	a5,a5,3
   154fe:	04f50d63          	beq	a0,a5,15558 <__DATA_BEGIN__+0x44e0>
   15502:	800007b7          	lui	a5,0x80000
   15506:	078d                	addi	a5,a5,3
   15508:	00a7eb63          	bltu	a5,a0,1551e <__DATA_BEGIN__+0x44a6>
   1550c:	4785                	li	a5,1
   1550e:	00a7f663          	bgeu	a5,a0,1551a <__DATA_BEGIN__+0x44a2>
   15512:	1575                	addi	a0,a0,-3
   15514:	4795                	li	a5,5
   15516:	00a7e363          	bltu	a5,a0,1551c <__DATA_BEGIN__+0x44a4>
   1551a:	a009                	j	1551c <__DATA_BEGIN__+0x44a4>
   1551c:	a001                	j	1551c <__DATA_BEGIN__+0x44a4>
   1551e:	800007b7          	lui	a5,0x80000
   15522:	079d                	addi	a5,a5,7
   15524:	02f51963          	bne	a0,a5,15556 <__DATA_BEGIN__+0x44de>
   15528:	4511                	li	a0,4
   1552a:	00300073          	0x300073
   1552e:	37b1                	addiw	a5,a5,-20
   15530:	40b6                	lw	ra,76(sp)
   15532:	42a6                	lw	t0,72(sp)
   15534:	4316                	lw	t1,68(sp)
   15536:	4386                	lw	t2,64(sp)
   15538:	5572                	lw	a0,60(sp)
   1553a:	55e2                	lw	a1,56(sp)
   1553c:	5652                	lw	a2,52(sp)
   1553e:	56c2                	lw	a3,48(sp)
   15540:	5732                	lw	a4,44(sp)
   15542:	57a2                	lw	a5,40(sp)
   15544:	5812                	lw	a6,36(sp)
   15546:	5882                	lw	a7,32(sp)
   15548:	4e72                	lw	t3,28(sp)
   1554a:	4ee2                	lw	t4,24(sp)
   1554c:	4f52                	lw	t5,20(sp)
   1554e:	4fc2                	lw	t6,16(sp)
   15550:	6161                	addi	sp,sp,80
   15552:	30200073          	mret
   15556:	b7d9                	j	1551c <__DATA_BEGIN__+0x44a4>
   15558:	4785                	li	a5,1
   1555a:	85be                	mv	a1,a5
   1555c:	450d                	li	a0,3
   1555e:	00300073          	0x300073
   15562:	c032                	sw	a2,0(sp)
   15564:	c236                	sw	a3,4(sp)
   15566:	c43a                	sw	a4,8(sp)
   15568:	c63e                	sw	a5,12(sp)
   1556a:	d179                	beqz	a0,15530 <__DATA_BEGIN__+0x44b8>
   1556c:	82818793          	addi	a5,gp,-2008 # 1c0c8 <__DATA_BEGIN__+0xb050>
   15570:	c390                	sw	a2,0(a5)
   15572:	c3d4                	sw	a3,4(a5)
   15574:	4722                	lw	a4,8(sp)
   15576:	c798                	sw	a4,8(a5)
   15578:	4732                	lw	a4,12(sp)
   1557a:	c7d8                	sw	a4,12(a5)
   1557c:	bf55                	j	15530 <__DATA_BEGIN__+0x44b8>
   1557e:	1141                	addi	sp,sp,-16
   15580:	c606                	sw	ra,12(sp)
   15582:	c422                	sw	s0,8(sp)
   15584:	c226                	sw	s1,4(sp)
   15586:	842a                	mv	s0,a0
   15588:	84ae                	mv	s1,a1
   1558a:	20405537          	lui	a0,0x20405
   1558e:	a7850513          	addi	a0,a0,-1416 # 20404a78 <__BSS_END__+0x203e79d8>
   15592:	26fd                	addiw	a3,a3,31
   15594:	e115                	bnez	a0,155b8 <__DATA_BEGIN__+0x4540>
   15596:	20405537          	lui	a0,0x20405
   1559a:	a8050513          	addi	a0,a0,-1408 # 20404a80 <__BSS_END__+0x203e79e0>
   1559e:	85a2                	mv	a1,s0
   155a0:	4110                	lw	a2,0(a0)
   155a2:	4154                	lw	a3,4(a0)
   155a4:	4518                	lw	a4,8(a0)
   155a6:	455c                	lw	a5,12(a0)
   155a8:	4509                	li	a0,2
   155aa:	00300073          	0x300073
   155ae:	40b2                	lw	ra,12(sp)
   155b0:	4422                	lw	s0,8(sp)
   155b2:	4492                	lw	s1,4(sp)
   155b4:	0141                	addi	sp,sp,16
   155b6:	8082                	ret
   155b8:	8141a703          	lw	a4,-2028(gp) # 1c0b4 <__DATA_BEGIN__+0xb03c>
   155bc:	126707b7          	lui	a5,0x12670
   155c0:	fef717e3          	bne	a4,a5,155ae <__DATA_BEGIN__+0x4536>
   155c4:	8101a783          	lw	a5,-2032(gp) # 1c0b0 <__DATA_BEGIN__+0xb038>
   155c8:	f3fd                	bnez	a5,155ae <__DATA_BEGIN__+0x4536>
   155ca:	85a6                	mv	a1,s1
   155cc:	20405537          	lui	a0,0x20405
   155d0:	a8850513          	addi	a0,a0,-1400 # 20404a88 <__BSS_END__+0x203e79e8>
   155d4:	2675                	addiw	a2,a2,29
   155d6:	e119                	bnez	a0,155dc <__DATA_BEGIN__+0x4564>
   155d8:	2cb1                	addiw	s9,s9,12
   155da:	bfd1                	j	155ae <__DATA_BEGIN__+0x4536>
   155dc:	2cc5                	addiw	s9,s9,17
   155de:	f961                	bnez	a0,155ae <__DATA_BEGIN__+0x4536>
   155e0:	85a6                	mv	a1,s1
   155e2:	20405537          	lui	a0,0x20405
   155e6:	a9050513          	addi	a0,a0,-1392 # 20404a90 <__BSS_END__+0x203e79f0>
   155ea:	2e59                	addiw	t3,t3,22
   155ec:	c915                	beqz	a0,15620 <__DATA_BEGIN__+0x45a8>
   155ee:	85a6                	mv	a1,s1
   155f0:	20405537          	lui	a0,0x20405
   155f4:	a9850513          	addi	a0,a0,-1384 # 20404a98 <__BSS_END__+0x203e79f8>
   155f8:	2661                	addiw	a2,a2,24
   155fa:	cd21                	beqz	a0,15652 <__DATA_BEGIN__+0x45da>
   155fc:	85a6                	mv	a1,s1
   155fe:	20405537          	lui	a0,0x20405
   15602:	aa050513          	addi	a0,a0,-1376 # 20404aa0 <__BSS_END__+0x203e7a00>
   15606:	2ead                	addiw	t4,t4,11
   15608:	cd21                	beqz	a0,15660 <__DATA_BEGIN__+0x45e8>
   1560a:	85a6                	mv	a1,s1
   1560c:	20405537          	lui	a0,0x20405
   15610:	aa850513          	addi	a0,a0,-1368 # 20404aa8 <__BSS_END__+0x203e7a08>
   15614:	26b5                	addiw	a3,a3,13
   15616:	ed21                	bnez	a0,1566e <__DATA_BEGIN__+0x45f6>
   15618:	4705                	li	a4,1
   1561a:	80e1a823          	sw	a4,-2032(gp) # 1c0b0 <__DATA_BEGIN__+0xb038>
   1561e:	a031                	j	1562a <__DATA_BEGIN__+0x45b2>
   15620:	226d                	addiw	tp,tp,27
   15622:	4581                	li	a1,0
   15624:	4601                	li	a2,0
   15626:	4501                	li	a0,0
   15628:	3309                	addiw	t1,t1,-30
   1562a:	8101a783          	lw	a5,-2032(gp) # 1c0b0 <__DATA_BEGIN__+0xb038>
   1562e:	d3c1                	beqz	a5,155ae <__DATA_BEGIN__+0x4536>
   15630:	8101a503          	lw	a0,-2032(gp) # 1c0b0 <__DATA_BEGIN__+0xb038>
   15634:	3e75                	addiw	t3,t3,-3
   15636:	4511                	li	a0,4
   15638:	00300073          	0x300073
   1563c:	862e                	mv	a2,a1
   1563e:	6585                	lui	a1,0x1
   15640:	c8058593          	addi	a1,a1,-896 # c80 <_binary_multizone_bin_size-0xb3a4>
   15644:	95aa                	add	a1,a1,a0
   15646:	00a5b533          	sltu	a0,a1,a0
   1564a:	962a                	add	a2,a2,a0
   1564c:	4505                	li	a0,1
   1564e:	39f1                	addiw	s3,s3,-4
   15650:	bfb9                	j	155ae <__DATA_BEGIN__+0x4536>
   15652:	4505                	li	a0,1
   15654:	2a9d                	addiw	s5,s5,7
   15656:	4581                	li	a1,0
   15658:	4601                	li	a2,0
   1565a:	4501                	li	a0,0
   1565c:	31f9                	addiw	gp,gp,-2
   1565e:	b7f1                	j	1562a <__DATA_BEGIN__+0x45b2>
   15660:	4509                	li	a0,2
   15662:	22a5                	addiw	t0,t0,9
   15664:	4581                	li	a1,0
   15666:	4601                	li	a2,0
   15668:	4501                	li	a0,0
   1566a:	31c1                	addiw	gp,gp,-16
   1566c:	bf7d                	j	1562a <__DATA_BEGIN__+0x45b2>
   1566e:	85a6                	mv	a1,s1
   15670:	20405537          	lui	a0,0x20405
   15674:	aac50513          	addi	a0,a0,-1364 # 20404aac <__BSS_END__+0x203e7a0c>
   15678:	2621                	addiw	a2,a2,8
   1567a:	e509                	bnez	a0,15684 <__DATA_BEGIN__+0x460c>
   1567c:	4709                	li	a4,2
   1567e:	80e1a823          	sw	a4,-2032(gp) # 1c0b0 <__DATA_BEGIN__+0xb038>
   15682:	b765                	j	1562a <__DATA_BEGIN__+0x45b2>
   15684:	85a6                	mv	a1,s1
   15686:	20405537          	lui	a0,0x20405
   1568a:	ab050513          	addi	a0,a0,-1360 # 20404ab0 <__BSS_END__+0x203e7a10>
   1568e:	2ccd                	addiw	s9,s9,19
   15690:	e509                	bnez	a0,1569a <__DATA_BEGIN__+0x4622>
   15692:	4711                	li	a4,4
   15694:	80e1a823          	sw	a4,-2032(gp) # 1c0b0 <__DATA_BEGIN__+0xb038>
   15698:	bf49                	j	1562a <__DATA_BEGIN__+0x45b2>
   1569a:	85a6                	mv	a1,s1
   1569c:	20405537          	lui	a0,0x20405
   156a0:	ab450513          	addi	a0,a0,-1356 # 20404ab4 <__BSS_END__+0x203e7a14>
   156a4:	2cf1                	addiw	s9,s9,28
   156a6:	e509                	bnez	a0,156b0 <__DATA_BEGIN__+0x4638>
   156a8:	4721                	li	a4,8
   156aa:	80e1a823          	sw	a4,-2032(gp) # 1c0b0 <__DATA_BEGIN__+0xb038>
   156ae:	bfb5                	j	1562a <__DATA_BEGIN__+0x45b2>
   156b0:	85a6                	mv	a1,s1
   156b2:	20405537          	lui	a0,0x20405
   156b6:	ab850513          	addi	a0,a0,-1352 # 20404ab8 <__BSS_END__+0x203e7a18>
   156ba:	24d9                	addiw	s1,s1,22
   156bc:	e509                	bnez	a0,156c6 <__DATA_BEGIN__+0x464e>
   156be:	4741                	li	a4,16
   156c0:	80e1a823          	sw	a4,-2032(gp) # 1c0b0 <__DATA_BEGIN__+0xb038>
   156c4:	b79d                	j	1562a <__DATA_BEGIN__+0x45b2>
   156c6:	85a6                	mv	a1,s1
   156c8:	20405537          	lui	a0,0x20405
   156cc:	abc50513          	addi	a0,a0,-1348 # 20404abc <__BSS_END__+0x203e7a1c>
   156d0:	2c45                	addiw	s8,s8,17
   156d2:	e511                	bnez	a0,156de <__DATA_BEGIN__+0x4666>
   156d4:	02000713          	li	a4,32
   156d8:	80e1a823          	sw	a4,-2032(gp) # 1c0b0 <__DATA_BEGIN__+0xb038>
   156dc:	b7b9                	j	1562a <__DATA_BEGIN__+0x45b2>
   156de:	85a6                	mv	a1,s1
   156e0:	20405537          	lui	a0,0x20405
   156e4:	ac050513          	addi	a0,a0,-1344 # 20404ac0 <__BSS_END__+0x203e7a20>
   156e8:	2c61                	addiw	s8,s8,24
   156ea:	e511                	bnez	a0,156f6 <__DATA_BEGIN__+0x467e>
   156ec:	04000713          	li	a4,64
   156f0:	80e1a823          	sw	a4,-2032(gp) # 1c0b0 <__DATA_BEGIN__+0xb038>
   156f4:	bf1d                	j	1562a <__DATA_BEGIN__+0x45b2>
   156f6:	85a6                	mv	a1,s1
   156f8:	20405537          	lui	a0,0x20405
   156fc:	ac450513          	addi	a0,a0,-1340 # 20404ac4 <__BSS_END__+0x203e7a24>
   15700:	2441                	addiw	s0,s0,16
   15702:	e511                	bnez	a0,1570e <__DATA_BEGIN__+0x4696>
   15704:	08000713          	li	a4,128
   15708:	80e1a823          	sw	a4,-2032(gp) # 1c0b0 <__DATA_BEGIN__+0xb038>
   1570c:	bf39                	j	1562a <__DATA_BEGIN__+0x45b2>
   1570e:	85a6                	mv	a1,s1
   15710:	20405537          	lui	a0,0x20405
   15714:	a9450513          	addi	a0,a0,-1388 # 20404a94 <__BSS_END__+0x203e79f4>
   15718:	24a5                	addiw	s1,s1,9
   1571a:	e511                	bnez	a0,15726 <__DATA_BEGIN__+0x46ae>
   1571c:	10000713          	li	a4,256
   15720:	80e1a823          	sw	a4,-2032(gp) # 1c0b0 <__DATA_BEGIN__+0xb038>
   15724:	b719                	j	1562a <__DATA_BEGIN__+0x45b2>
   15726:	85a6                	mv	a1,s1
   15728:	20405537          	lui	a0,0x20405
   1572c:	ac850513          	addi	a0,a0,-1336 # 20404ac8 <__BSS_END__+0x203e7a28>
   15730:	2c81                	sext.w	s9,s9
   15732:	e511                	bnez	a0,1573e <__DATA_BEGIN__+0x46c6>
   15734:	20000713          	li	a4,512
   15738:	80e1a823          	sw	a4,-2032(gp) # 1c0b0 <__DATA_BEGIN__+0xb038>
   1573c:	b5fd                	j	1562a <__DATA_BEGIN__+0x45b2>
   1573e:	85a6                	mv	a1,s1
   15740:	20405537          	lui	a0,0x20405
   15744:	acc50513          	addi	a0,a0,-1332 # 20404acc <__BSS_END__+0x203e7a2c>
   15748:	2c25                	addiw	s8,s8,9
   1574a:	ee0510e3          	bnez	a0,1562a <__DATA_BEGIN__+0x45b2>
   1574e:	6741                	lui	a4,0x10
   15750:	80e1a823          	sw	a4,-2032(gp) # 1c0b0 <__DATA_BEGIN__+0xb038>
   15754:	bdd9                	j	1562a <__DATA_BEGIN__+0x45b2>
   15756:	1141                	addi	sp,sp,-16
   15758:	c606                	sw	ra,12(sp)
   1575a:	c422                	sw	s0,8(sp)
   1575c:	100127b7          	lui	a5,0x10012
   15760:	43d4                	lw	a3,4(a5)
   15762:	6705                	lui	a4,0x1
   15764:	80070713          	addi	a4,a4,-2048 # 800 <_binary_multizone_bin_size-0xb824>
   15768:	8ed9                	or	a3,a3,a4
   1576a:	c3d4                	sw	a3,4(a5)
   1576c:	4b94                	lw	a3,16(a5)
   1576e:	8f55                	or	a4,a4,a3
   15770:	cb98                	sw	a4,16(a5)
   15772:	4798                	lw	a4,8(a5)
   15774:	60676713          	ori	a4,a4,1542
   15778:	c798                	sw	a4,8(a5)
   1577a:	4bd8                	lw	a4,20(a5)
   1577c:	60076713          	ori	a4,a4,1536
   15780:	cbd8                	sw	a4,20(a5)
   15782:	3050f7f3          	csrrci	a5,mtvec,1
   15786:	304467f3          	csrrsi	a5,mie,8
   1578a:	08000793          	li	a5,128
   1578e:	3047a7f3          	csrrs	a5,mie,a5
   15792:	300467f3          	csrrsi	a5,mstatus,8
   15796:	4581                	li	a1,0
   15798:	4601                	li	a2,0
   1579a:	4509                	li	a0,2
   1579c:	3679                	addiw	a2,a2,-2
   1579e:	a831                	j	157ba <__DATA_BEGIN__+0x4742>
   157a0:	82818413          	addi	s0,gp,-2008 # 1c0c8 <__DATA_BEGIN__+0xb050>
   157a4:	82818593          	addi	a1,gp,-2008 # 1c0c8 <__DATA_BEGIN__+0xb050>
   157a8:	4505                	li	a0,1
   157aa:	3bd1                	addiw	s7,s7,-12
   157ac:	00040023          	sb	zero,0(s0)
   157b0:	304467f3          	csrrsi	a5,mie,8
   157b4:	4505                	li	a0,1
   157b6:	00300073          	0x300073
   157ba:	304477f3          	csrrci	a5,mie,8
   157be:	8281c783          	lbu	a5,-2008(gp) # 1c0c8 <__DATA_BEGIN__+0xb050>
   157c2:	0ff7f793          	andi	a5,a5,255
   157c6:	d7ed                	beqz	a5,157b0 <__DATA_BEGIN__+0x4738>
   157c8:	bfe1                	j	157a0 <__DATA_BEGIN__+0x4728>
   157ca:	8181a783          	lw	a5,-2024(gp) # 1c0b8 <__DATA_BEGIN__+0xb040>
   157ce:	c391                	beqz	a5,157d2 <__DATA_BEGIN__+0x475a>
   157d0:	8082                	ret
   157d2:	4785                	li	a5,1
   157d4:	02f50463          	beq	a0,a5,157fc <__DATA_BEGIN__+0x4784>
   157d8:	4789                	li	a5,2
   157da:	02f50f63          	beq	a0,a5,15818 <__DATA_BEGIN__+0x47a0>
   157de:	f96d                	bnez	a0,157d0 <__DATA_BEGIN__+0x4758>
   157e0:	800017b7          	lui	a5,0x80001
   157e4:	06878793          	addi	a5,a5,104 # ffffffff80001068 <__BSS_END__+0xffffffff7ffe3fc8>
   157e8:	80f1ac23          	sw	a5,-2024(gp) # 1c0b8 <__DATA_BEGIN__+0xb040>
   157ec:	4739                	li	a4,14
   157ee:	80e1ae23          	sw	a4,-2020(gp) # 1c0bc <__DATA_BEGIN__+0xb044>
   157f2:	8201a023          	sw	zero,-2016(gp) # 1c0c0 <__DATA_BEGIN__+0xb048>
   157f6:	8001a423          	sw	zero,-2040(gp) # 1c0a8 <__DATA_BEGIN__+0xb030>
   157fa:	8082                	ret
   157fc:	800017b7          	lui	a5,0x80001
   15800:	04078793          	addi	a5,a5,64 # ffffffff80001040 <__BSS_END__+0xffffffff7ffe3fa0>
   15804:	80f1ac23          	sw	a5,-2024(gp) # 1c0b8 <__DATA_BEGIN__+0xb040>
   15808:	4715                	li	a4,5
   1580a:	80e1ae23          	sw	a4,-2020(gp) # 1c0bc <__DATA_BEGIN__+0xb044>
   1580e:	8201a023          	sw	zero,-2016(gp) # 1c0c0 <__DATA_BEGIN__+0xb048>
   15812:	8001a423          	sw	zero,-2040(gp) # 1c0a8 <__DATA_BEGIN__+0xb030>
   15816:	8082                	ret
   15818:	800017b7          	lui	a5,0x80001
   1581c:	0d878793          	addi	a5,a5,216 # ffffffff800010d8 <__BSS_END__+0xffffffff7ffe4038>
   15820:	80f1ac23          	sw	a5,-2024(gp) # 1c0b8 <__DATA_BEGIN__+0xb040>
   15824:	4711                	li	a4,4
   15826:	80e1ae23          	sw	a4,-2020(gp) # 1c0bc <__DATA_BEGIN__+0xb044>
   1582a:	8201a023          	sw	zero,-2016(gp) # 1c0c0 <__DATA_BEGIN__+0xb048>
   1582e:	8001a423          	sw	zero,-2040(gp) # 1c0a8 <__DATA_BEGIN__+0xb030>
   15832:	bf79                	j	157d0 <__DATA_BEGIN__+0x4758>
   15834:	4705                	li	a4,1
   15836:	80e1a423          	sw	a4,-2040(gp) # 1c0a8 <__DATA_BEGIN__+0xb030>
   1583a:	8082                	ret
   1583c:	8001ac23          	sw	zero,-2024(gp) # 1c0b8 <__DATA_BEGIN__+0xb040>
   15840:	8201a023          	sw	zero,-2016(gp) # 1c0c0 <__DATA_BEGIN__+0xb048>
   15844:	8001ae23          	sw	zero,-2020(gp) # 1c0bc <__DATA_BEGIN__+0xb044>
   15848:	4705                	li	a4,1
   1584a:	80e1a423          	sw	a4,-2040(gp) # 1c0a8 <__DATA_BEGIN__+0xb030>
   1584e:	8082                	ret
   15850:	8081a783          	lw	a5,-2040(gp) # 1c0a8 <__DATA_BEGIN__+0xb030>
   15854:	c791                	beqz	a5,15860 <__DATA_BEGIN__+0x47e8>
   15856:	8201a783          	lw	a5,-2016(gp) # 1c0c0 <__DATA_BEGIN__+0xb048>
   1585a:	e399                	bnez	a5,15860 <__DATA_BEGIN__+0x47e8>
   1585c:	8001ac23          	sw	zero,-2024(gp) # 1c0b8 <__DATA_BEGIN__+0xb040>
   15860:	8181a783          	lw	a5,-2024(gp) # 1c0b8 <__DATA_BEGIN__+0xb040>
   15864:	c39d                	beqz	a5,1588a <__DATA_BEGIN__+0x4812>
   15866:	82018713          	addi	a4,gp,-2016 # 1c0c0 <__DATA_BEGIN__+0xb048>
   1586a:	4308                	lw	a0,0(a4)
   1586c:	0505                	addi	a0,a0,1
   1586e:	81c1a683          	lw	a3,-2020(gp) # 1c0bc <__DATA_BEGIN__+0xb044>
   15872:	02d56533          	rem	a0,a0,a3
   15876:	c308                	sw	a0,0(a4)
   15878:	00351713          	slli	a4,a0,0x3
   1587c:	97ba                	add	a5,a5,a4
   1587e:	43dc                	lw	a5,4(a5)
   15880:	e791                	bnez	a5,1588c <__DATA_BEGIN__+0x4814>
   15882:	4705                	li	a4,1
   15884:	80e1a423          	sw	a4,-2040(gp) # 1c0a8 <__DATA_BEGIN__+0xb030>
   15888:	8082                	ret
   1588a:	557d                	li	a0,-1
   1588c:	8082                	ret
   1588e:	8181a783          	lw	a5,-2024(gp) # 1c0b8 <__DATA_BEGIN__+0xb040>
   15892:	c385                	beqz	a5,158b2 <__DATA_BEGIN__+0x483a>
   15894:	8201a703          	lw	a4,-2016(gp) # 1c0c0 <__DATA_BEGIN__+0xb048>
   15898:	070e                	slli	a4,a4,0x3
   1589a:	97ba                	add	a5,a5,a4
   1589c:	4388                	lw	a0,0(a5)
   1589e:	8081a783          	lw	a5,-2040(gp) # 1c0a8 <__DATA_BEGIN__+0xb030>
   158a2:	c789                	beqz	a5,158ac <__DATA_BEGIN__+0x4834>
   158a4:	77c1                	lui	a5,0xffff0
   158a6:	17fd                	addi	a5,a5,-1
   158a8:	8d7d                	and	a0,a0,a5
   158aa:	8082                	ret
   158ac:	67c1                	lui	a5,0x10
   158ae:	8d5d                	or	a0,a0,a5
   158b0:	8082                	ret
   158b2:	4501                	li	a0,0
   158b4:	8082                	ret
   158b6:	8181a783          	lw	a5,-2024(gp) # 1c0b8 <__DATA_BEGIN__+0xb040>
   158ba:	c799                	beqz	a5,158c8 <__DATA_BEGIN__+0x4850>
   158bc:	8201a703          	lw	a4,-2016(gp) # 1c0c0 <__DATA_BEGIN__+0xb048>
   158c0:	070e                	slli	a4,a4,0x3
   158c2:	97ba                	add	a5,a5,a4
   158c4:	43c8                	lw	a0,4(a5)
   158c6:	8082                	ret
   158c8:	4501                	li	a0,0
   158ca:	8082                	ret
   158cc:	8181a503          	lw	a0,-2024(gp) # 1c0b8 <__DATA_BEGIN__+0xb040>
   158d0:	00a03533          	snez	a0,a0
   158d4:	8082                	ret
   158d6:	85aa                	mv	a1,a0
   158d8:	4681                	li	a3,0
   158da:	4601                	li	a2,0
   158dc:	4501                	li	a0,0
   158de:	a86d                	j	15998 <__DATA_BEGIN__+0x4920>
   158e0:	1141                	addi	sp,sp,-16
   158e2:	204047b7          	lui	a5,0x20404
   158e6:	c422                	sw	s0,8(sp)
   158e8:	20404437          	lui	s0,0x20404
   158ec:	10878713          	addi	a4,a5,264 # 20404108 <__BSS_END__+0x203e7068>
   158f0:	10840413          	addi	s0,s0,264 # 20404108 <__BSS_END__+0x203e7068>
   158f4:	8c19                	sub	s0,s0,a4
   158f6:	c226                	sw	s1,4(sp)
   158f8:	c606                	sw	ra,12(sp)
   158fa:	8409                	srai	s0,s0,0x2
   158fc:	10878493          	addi	s1,a5,264
   15900:	e411                	bnez	s0,1590c <__DATA_BEGIN__+0x4894>
   15902:	40b2                	lw	ra,12(sp)
   15904:	4422                	lw	s0,8(sp)
   15906:	4492                	lw	s1,4(sp)
   15908:	0141                	addi	sp,sp,16
   1590a:	8082                	ret
   1590c:	147d                	addi	s0,s0,-1
   1590e:	00241793          	slli	a5,s0,0x2
   15912:	97a6                	add	a5,a5,s1
   15914:	439c                	lw	a5,0(a5)
   15916:	9782                	jalr	a5
   15918:	b7e5                	j	15900 <__DATA_BEGIN__+0x4888>
   1591a:	1141                	addi	sp,sp,-16
   1591c:	c422                	sw	s0,8(sp)
   1591e:	c226                	sw	s1,4(sp)
   15920:	20404437          	lui	s0,0x20404
   15924:	204044b7          	lui	s1,0x20404
   15928:	10848793          	addi	a5,s1,264 # 20404108 <__BSS_END__+0x203e7068>
   1592c:	10840413          	addi	s0,s0,264 # 20404108 <__BSS_END__+0x203e7068>
   15930:	8c1d                	sub	s0,s0,a5
   15932:	c04a                	sw	s2,0(sp)
   15934:	c606                	sw	ra,12(sp)
   15936:	8409                	srai	s0,s0,0x2
   15938:	10848493          	addi	s1,s1,264
   1593c:	4901                	li	s2,0
   1593e:	02891763          	bne	s2,s0,1596c <__DATA_BEGIN__+0x48f4>
   15942:	204044b7          	lui	s1,0x20404
   15946:	20404437          	lui	s0,0x20404
   1594a:	10848793          	addi	a5,s1,264 # 20404108 <__BSS_END__+0x203e7068>
   1594e:	10840413          	addi	s0,s0,264 # 20404108 <__BSS_END__+0x203e7068>
   15952:	8c1d                	sub	s0,s0,a5
   15954:	8409                	srai	s0,s0,0x2
   15956:	10848493          	addi	s1,s1,264
   1595a:	4901                	li	s2,0
   1595c:	00891d63          	bne	s2,s0,15976 <__DATA_BEGIN__+0x48fe>
   15960:	40b2                	lw	ra,12(sp)
   15962:	4422                	lw	s0,8(sp)
   15964:	4492                	lw	s1,4(sp)
   15966:	4902                	lw	s2,0(sp)
   15968:	0141                	addi	sp,sp,16
   1596a:	8082                	ret
   1596c:	409c                	lw	a5,0(s1)
   1596e:	0905                	addi	s2,s2,1
   15970:	0491                	addi	s1,s1,4
   15972:	9782                	jalr	a5
   15974:	b7e9                	j	1593e <__DATA_BEGIN__+0x48c6>
   15976:	409c                	lw	a5,0(s1)
   15978:	0905                	addi	s2,s2,1
   1597a:	0491                	addi	s1,s1,4
   1597c:	9782                	jalr	a5
   1597e:	bff9                	j	1595c <__DATA_BEGIN__+0x48e4>
   15980:	00054603          	lbu	a2,0(a0)
   15984:	0005c683          	lbu	a3,0(a1)
   15988:	0505                	addi	a0,a0,1
   1598a:	0585                	addi	a1,a1,1
   1598c:	00d61363          	bne	a2,a3,15992 <__DATA_BEGIN__+0x491a>
   15990:	fa65                	bnez	a2,15980 <__DATA_BEGIN__+0x4908>
   15992:	40d60533          	sub	a0,a2,a3
   15996:	8082                	ret
   15998:	8241a783          	lw	a5,-2012(gp) # 1c0c4 <__DATA_BEGIN__+0xb04c>
   1599c:	88aa                	mv	a7,a0
   1599e:	e38d                	bnez	a5,159c0 <__DATA_BEGIN__+0x4948>
   159a0:	83818513          	addi	a0,gp,-1992 # 1c0d8 <__DATA_BEGIN__+0xb060>
   159a4:	82a1a223          	sw	a0,-2012(gp) # 1c0c4 <__DATA_BEGIN__+0xb04c>
   159a8:	00000313          	li	t1,0
   159ac:	83818793          	addi	a5,gp,-1992 # 1c0d8 <__DATA_BEGIN__+0xb060>
   159b0:	00030863          	beqz	t1,159c0 <__DATA_BEGIN__+0x4948>
   159b4:	00002783          	lw	a5,0(zero) # 0 <_binary_multizone_bin_size-0xc024>
   159b8:	08f52423          	sw	a5,136(a0)
   159bc:	83818793          	addi	a5,gp,-1992 # 1c0d8 <__DATA_BEGIN__+0xb060>
   159c0:	43d8                	lw	a4,4(a5)
   159c2:	487d                	li	a6,31
   159c4:	557d                	li	a0,-1
   159c6:	04e84663          	blt	a6,a4,15a12 <__DATA_BEGIN__+0x499a>
   159ca:	02088d63          	beqz	a7,15a04 <__DATA_BEGIN__+0x498c>
   159ce:	0887a803          	lw	a6,136(a5)
   159d2:	04080063          	beqz	a6,15a12 <__DATA_BEGIN__+0x499a>
   159d6:	00271513          	slli	a0,a4,0x2
   159da:	9542                	add	a0,a0,a6
   159dc:	c110                	sw	a2,0(a0)
   159de:	10082303          	lw	t1,256(a6)
   159e2:	4605                	li	a2,1
   159e4:	00e61633          	sll	a2,a2,a4
   159e8:	00c36333          	or	t1,t1,a2
   159ec:	10682023          	sw	t1,256(a6)
   159f0:	08d52023          	sw	a3,128(a0)
   159f4:	4689                	li	a3,2
   159f6:	00d89763          	bne	a7,a3,15a04 <__DATA_BEGIN__+0x498c>
   159fa:	10482683          	lw	a3,260(a6)
   159fe:	8e55                	or	a2,a2,a3
   15a00:	10c82223          	sw	a2,260(a6)
   15a04:	00170693          	addi	a3,a4,1
   15a08:	070a                	slli	a4,a4,0x2
   15a0a:	c3d4                	sw	a3,4(a5)
   15a0c:	97ba                	add	a5,a5,a4
   15a0e:	c78c                	sw	a1,8(a5)
   15a10:	4501                	li	a0,0
   15a12:	8082                	ret
   15a14:	7179                	addi	sp,sp,-48
   15a16:	ca56                	sw	s5,20(sp)
   15a18:	c85a                	sw	s6,16(sp)
   15a1a:	c65e                	sw	s7,12(sp)
   15a1c:	c266                	sw	s9,4(sp)
   15a1e:	d606                	sw	ra,44(sp)
   15a20:	d422                	sw	s0,40(sp)
   15a22:	d226                	sw	s1,36(sp)
   15a24:	d04a                	sw	s2,32(sp)
   15a26:	ce4e                	sw	s3,28(sp)
   15a28:	cc52                	sw	s4,24(sp)
   15a2a:	c462                	sw	s8,8(sp)
   15a2c:	c06a                	sw	s10,0(sp)
   15a2e:	8b2a                	mv	s6,a0
   15a30:	8aae                	mv	s5,a1
   15a32:	4c85                	li	s9,1
   15a34:	8241a483          	lw	s1,-2012(gp) # 1c0c4 <__DATA_BEGIN__+0xb04c>
   15a38:	82418c13          	addi	s8,gp,-2012 # 1c0c4 <__DATA_BEGIN__+0xb04c>
   15a3c:	cc81                	beqz	s1,15a54 <__DATA_BEGIN__+0x49dc>
   15a3e:	40c0                	lw	s0,4(s1)
   15a40:	0884a983          	lw	s3,136(s1)
   15a44:	fff40913          	addi	s2,s0,-1
   15a48:	040a                	slli	s0,s0,0x2
   15a4a:	00898a33          	add	s4,s3,s0
   15a4e:	9426                	add	s0,s0,s1
   15a50:	02095063          	bgez	s2,15a70 <__DATA_BEGIN__+0x49f8>
   15a54:	50b2                	lw	ra,44(sp)
   15a56:	5422                	lw	s0,40(sp)
   15a58:	5492                	lw	s1,36(sp)
   15a5a:	5902                	lw	s2,32(sp)
   15a5c:	49f2                	lw	s3,28(sp)
   15a5e:	4a62                	lw	s4,24(sp)
   15a60:	4ad2                	lw	s5,20(sp)
   15a62:	4b42                	lw	s6,16(sp)
   15a64:	4bb2                	lw	s7,12(sp)
   15a66:	4c22                	lw	s8,8(sp)
   15a68:	4c92                	lw	s9,4(sp)
   15a6a:	4d02                	lw	s10,0(sp)
   15a6c:	6145                	addi	sp,sp,48
   15a6e:	8082                	ret
   15a70:	000a8c63          	beqz	s5,15a88 <__DATA_BEGIN__+0x4a10>
   15a74:	00099663          	bnez	s3,15a80 <__DATA_BEGIN__+0x4a08>
   15a78:	197d                	addi	s2,s2,-1
   15a7a:	1a71                	addi	s4,s4,-4
   15a7c:	1471                	addi	s0,s0,-4
   15a7e:	bfc9                	j	15a50 <__DATA_BEGIN__+0x49d8>
   15a80:	07ca2783          	lw	a5,124(s4)
   15a84:	ff579ae3          	bne	a5,s5,15a78 <__DATA_BEGIN__+0x4a00>
   15a88:	40d8                	lw	a4,4(s1)
   15a8a:	405c                	lw	a5,4(s0)
   15a8c:	177d                	addi	a4,a4,-1
   15a8e:	03271863          	bne	a4,s2,15abe <__DATA_BEGIN__+0x4a46>
   15a92:	0124a223          	sw	s2,4(s1)
   15a96:	d3ed                	beqz	a5,15a78 <__DATA_BEGIN__+0x4a00>
   15a98:	0044ad03          	lw	s10,4(s1)
   15a9c:	00098863          	beqz	s3,15aac <__DATA_BEGIN__+0x4a34>
   15aa0:	1009a683          	lw	a3,256(s3)
   15aa4:	012c9733          	sll	a4,s9,s2
   15aa8:	8ef9                	and	a3,a3,a4
   15aaa:	ee89                	bnez	a3,15ac4 <__DATA_BEGIN__+0x4a4c>
   15aac:	9782                	jalr	a5
   15aae:	40d8                	lw	a4,4(s1)
   15ab0:	000c2783          	lw	a5,0(s8)
   15ab4:	f9a710e3          	bne	a4,s10,15a34 <__DATA_BEGIN__+0x49bc>
   15ab8:	fcf480e3          	beq	s1,a5,15a78 <__DATA_BEGIN__+0x4a00>
   15abc:	bfa5                	j	15a34 <__DATA_BEGIN__+0x49bc>
   15abe:	00042223          	sw	zero,4(s0)
   15ac2:	bfd1                	j	15a96 <__DATA_BEGIN__+0x4a1e>
   15ac4:	1049a683          	lw	a3,260(s3)
   15ac8:	ffca2583          	lw	a1,-4(s4)
   15acc:	8f75                	and	a4,a4,a3
   15ace:	e701                	bnez	a4,15ad6 <__DATA_BEGIN__+0x4a5e>
   15ad0:	855a                	mv	a0,s6
   15ad2:	9782                	jalr	a5
   15ad4:	bfe9                	j	15aae <__DATA_BEGIN__+0x4a36>
   15ad6:	852e                	mv	a0,a1
   15ad8:	9782                	jalr	a5
   15ada:	bfd1                	j	15aae <__DATA_BEGIN__+0x4a36>
   15adc:	a001                	j	15adc <__DATA_BEGIN__+0x4a64>
   15ade:	0000                	unimp
   15ae0:	5355                	li	t1,-11
   15ae2:	2042                	fld	ft0,16(sp)
   15ae4:	4449                	li	s0,18
   15ae6:	3120                	fld	fs0,96(a0)
   15ae8:	3632                	fld	fa2,296(sp)
   15aea:	30303037          	lui	zero,0x30303
   15aee:	0030                	addi	a2,sp,8
   15af0:	6970                	ld	a2,208(a0)
   15af2:	676e                	ld	a4,216(sp)
   15af4:	0000                	unimp
   15af6:	0000                	unimp
   15af8:	6f70                	ld	a2,216(a4)
   15afa:	676e                	ld	a4,216(sp)
   15afc:	0000                	unimp
   15afe:	0000                	unimp
   15b00:	706f7473          	csrrci	s0,0x706,30
   15b04:	0000                	unimp
   15b06:	0000                	unimp
   15b08:	72617473          	csrrci	s0,0x726,2
   15b0c:	0074                	addi	a3,sp,12
   15b0e:	0000                	unimp
   15b10:	6f66                	ld	t5,88(sp)
   15b12:	646c                	ld	a1,200(s0)
   15b14:	0000                	unimp
   15b16:	0000                	unimp
   15b18:	6e75                	lui	t3,0x1d
   15b1a:	6f66                	ld	t5,88(sp)
   15b1c:	646c                	ld	a1,200(s0)
   15b1e:	0000                	unimp
   15b20:	0071                	c.nop	28
   15b22:	0000                	unimp
   15b24:	0061                	c.nop	24
   15b26:	0000                	unimp
   15b28:	00000077          	0x77
   15b2c:	00000073          	ecall
   15b30:	0065                	c.nop	25
   15b32:	0000                	unimp
   15b34:	0064                	addi	s1,sp,12
   15b36:	0000                	unimp
   15b38:	0072                	c.slli	zero,0x1c
   15b3a:	0000                	unimp
   15b3c:	0066                	c.slli	zero,0x19
   15b3e:	0000                	unimp
   15b40:	00000067          	jr	zero # 0 <_binary_multizone_bin_size-0xc024>
   15b44:	0079                	c.nop	30
   15b46:	0000                	unimp
   15b48:	5355                	li	t1,-11
   15b4a:	2042                	fld	ft0,16(sp)
   15b4c:	4944                	lw	s1,20(a0)
   15b4e:	4e4f4353          	0x4e4f4353
   15b52:	454e                	lw	a0,208(sp)
   15b54:	00005443          	fmadd.s	fs0,ft0,ft0,ft0,unknown
   15b58:	424e                	lw	tp,208(sp)
   15b5a:	2040                	fld	fs0,128(s0)
   15b5c:	0000                	unimp
   15b5e:	0000                	unimp
   15b60:	ffff                	0xffff
   15b62:	ffff                	0xffff
   15b64:	ffff                	0xffff
   15b66:	ffff                	0xffff
   15b68:	4216                	lw	tp,68(sp)
   15b6a:	2040                	fld	fs0,128(s0)
   15b6c:	0000                	unimp
   15b6e:	0000                	unimp
   15b70:	ffff                	0xffff
   15b72:	ffff                	0xffff
   15b74:	ffff                	0xffff
   15b76:	ffff                	0xffff
   15b78:	4304                	lw	s1,0(a4)
   15b7a:	2040                	fld	fs0,128(s0)
   15b7c:	0000                	unimp
   15b7e:	0000                	unimp
   15b80:	ffff                	0xffff
   15b82:	ffff                	0xffff
   15b84:	ffff                	0xffff
   15b86:	ffff                	0xffff
   15b88:	422c                	lw	a1,64(a2)
   15b8a:	2040                	fld	fs0,128(s0)
   15b8c:	0000                	unimp
   15b8e:	0000                	unimp
   15b90:	ffff                	0xffff
   15b92:	ffff                	0xffff
   15b94:	ffff                	0xffff
   15b96:	ffff                	0xffff
	...
   15ba0:	0002                	c.slli64	zero
   15ba2:	0000                	unimp
   15ba4:	0064                	addi	s1,sp,12
   15ba6:	0000                	unimp
   15ba8:	0068                	addi	a0,sp,12
   15baa:	0000                	unimp
   15bac:	1194                	addi	a3,sp,224
   15bae:	0000                	unimp
   15bb0:	0020                	addi	s0,sp,8
   15bb2:	0000                	unimp
   15bb4:	00e1                	addi	ra,ra,24
   15bb6:	0000                	unimp
   15bb8:	0040                	addi	s0,sp,4
   15bba:	0000                	unimp
   15bbc:	04b0                	addi	a2,sp,584
   15bbe:	0000                	unimp
   15bc0:	0000                	unimp
   15bc2:	0000                	unimp
   15bc4:	03e8                	addi	a0,sp,460
   15bc6:	0000                	unimp
   15bc8:	0001                	nop
   15bca:	0000                	unimp
   15bcc:	04b0                	addi	a2,sp,584
   15bce:	0000                	unimp
   15bd0:	0004                	0x4
   15bd2:	0000                	unimp
   15bd4:	0708                	addi	a0,sp,896
   15bd6:	0000                	unimp
   15bd8:	01a4                	addi	s1,sp,200
   15bda:	0000                	unimp
   15bdc:	0708                	addi	a0,sp,896
   15bde:	0000                	unimp
   15be0:	0100                	addi	s0,sp,128
   15be2:	0000                	unimp
   15be4:	0bb8                	addi	a4,sp,472
   15be6:	0000                	unimp
   15be8:	0002                	c.slli64	zero
   15bea:	0000                	unimp
   15bec:	04b0                	addi	a2,sp,584
   15bee:	0000                	unimp
   15bf0:	0000                	unimp
   15bf2:	0000                	unimp
   15bf4:	03e8                	addi	a0,sp,460
   15bf6:	0000                	unimp
   15bf8:	0001                	nop
   15bfa:	0000                	unimp
   15bfc:	04b0                	addi	a2,sp,584
   15bfe:	0000                	unimp
   15c00:	0200                	addi	s0,sp,256
   15c02:	0000                	unimp
   15c04:	0bb8                	addi	a4,sp,472
   15c06:	0000                	unimp
   15c08:	0200                	addi	s0,sp,256
   15c0a:	0000                	unimp
   15c0c:	05a0                	addi	s0,sp,712
   15c0e:	0000                	unimp
   15c10:	0058                	addi	a4,sp,4
   15c12:	0000                	unimp
   15c14:	0762                	slli	a4,a4,0x18
   15c16:	0000                	unimp
   15c18:	0010                	0x10
   15c1a:	0000                	unimp
   15c1c:	005a                	c.slli	zero,0x16
   15c1e:	0000                	unimp
   15c20:	0008                	0x8
   15c22:	0000                	unimp
   15c24:	05a0                	addi	s0,sp,712
   15c26:	0000                	unimp
   15c28:	0002                	c.slli64	zero
   15c2a:	0000                	unimp
   15c2c:	04b0                	addi	a2,sp,584
	...
   15c36:	0000                	unimp
   15c38:	0010                	0x10
   15c3a:	0000                	unimp
   15c3c:	01c2                	slli	gp,gp,0x10
   15c3e:	0000                	unimp
   15c40:	0080                	addi	s0,sp,64
   15c42:	0000                	unimp
   15c44:	05dc                	addi	a5,sp,708
   15c46:	0000                	unimp
   15c48:	0094                	addi	a3,sp,64
   15c4a:	0000                	unimp
   15c4c:	1194                	addi	a3,sp,224
	...
   15cae:	0000                	unimp
   15cb0:	10f8                	addi	a4,sp,108
   15cb2:	8000                	0x8000
   15cb4:	0001                	nop
   15cb6:	0000                	unimp
   15cb8:	0001                	nop
	...
   17076:	0000                	unimp
   17078:	00000517          	auipc	a0,0x0
   1707c:	08450513          	addi	a0,a0,132 # 170fc <__DATA_BEGIN__+0x6084>
   17080:	30551073          	csrw	mtvec,a0
   17084:	3050e073          	csrsi	mtvec,1
   17088:	5fbfd197          	auipc	gp,0x5fbfd
   1708c:	85018193          	addi	gp,gp,-1968 # 5fc138d8 <__BSS_END__+0x5fbf6838>
   17090:	cd018113          	addi	sp,gp,-816 # 1c570 <__DATA_BEGIN__+0xb4f8>
   17094:	00001517          	auipc	a0,0x1
   17098:	81450513          	addi	a0,a0,-2028 # 178a8 <__DATA_BEGIN__+0x6830>
   1709c:	5fbfc597          	auipc	a1,0x5fbfc
   170a0:	fdc58593          	addi	a1,a1,-36 # 5fc13078 <__BSS_END__+0x5fbf5fd8>
   170a4:	5fbfc617          	auipc	a2,0x5fbfc
   170a8:	03a60613          	addi	a2,a2,58 # 5fc130de <__BSS_END__+0x5fbf603e>
   170ac:	00c5fa63          	bgeu	a1,a2,170c0 <__DATA_BEGIN__+0x6048>
   170b0:	00052283          	lw	t0,0(a0)
   170b4:	0055a023          	sw	t0,0(a1)
   170b8:	0511                	addi	a0,a0,4
   170ba:	0591                	addi	a1,a1,4
   170bc:	fec5eae3          	bltu	a1,a2,170b0 <__DATA_BEGIN__+0x6038>
   170c0:	5fbfc517          	auipc	a0,0x5fbfc
   170c4:	02050513          	addi	a0,a0,32 # 5fc130e0 <__BSS_END__+0x5fbf6040>
   170c8:	8d018593          	addi	a1,gp,-1840 # 1c170 <__DATA_BEGIN__+0xb0f8>
   170cc:	00b57763          	bgeu	a0,a1,170da <__DATA_BEGIN__+0x6062>
   170d0:	00052023          	sw	zero,0(a0)
   170d4:	0511                	addi	a0,a0,4
   170d6:	feb56de3          	bltu	a0,a1,170d0 <__DATA_BEGIN__+0x6058>
   170da:	00000517          	auipc	a0,0x0
   170de:	5a050513          	addi	a0,a0,1440 # 1767a <__DATA_BEGIN__+0x6602>
   170e2:	2379                	addiw	t1,t1,30
   170e4:	2bc1                	addiw	s7,s7,16
   170e6:	00000097          	auipc	ra,0x0
   170ea:	1141                	addi	sp,sp,-16
   170ec:	c406                	sw	ra,8(sp)
   170ee:	4501                	li	a0,0
   170f0:	4581                	li	a1,0
   170f2:	2195                	addiw	gp,gp,5
   170f4:	a071                	j	17180 <__DATA_BEGIN__+0x6108>
   170f6:	a001                	j	170f6 <__DATA_BEGIN__+0x607e>
   170f8:	8082                	ret
   170fa:	8082                	ret
   170fc:	0ac0006f          	j	171a8 <__DATA_BEGIN__+0x6130>
   17100:	0000006f          	j	17100 <__DATA_BEGIN__+0x6088>
   17104:	0000006f          	j	17104 <__DATA_BEGIN__+0x608c>
   17108:	0b20006f          	j	171ba <__DATA_BEGIN__+0x6142>
   1710c:	0000006f          	j	1710c <__DATA_BEGIN__+0x6094>
   17110:	0000006f          	j	17110 <__DATA_BEGIN__+0x6098>
   17114:	0000006f          	j	17114 <__DATA_BEGIN__+0x609c>
   17118:	0d80006f          	j	171f0 <__DATA_BEGIN__+0x6178>
   1711c:	0000006f          	j	1711c <__DATA_BEGIN__+0x60a4>
   17120:	0000006f          	j	17120 <__DATA_BEGIN__+0x60a8>
   17124:	0000006f          	j	17124 <__DATA_BEGIN__+0x60ac>
   17128:	0540006f          	j	1717c <__DATA_BEGIN__+0x6104>
   1712c:	0000006f          	j	1712c <__DATA_BEGIN__+0x60b4>
   17130:	0000006f          	j	17130 <__DATA_BEGIN__+0x60b8>
   17134:	0000006f          	j	17134 <__DATA_BEGIN__+0x60bc>
   17138:	0000006f          	j	17138 <__DATA_BEGIN__+0x60c0>
   1713c:	1960006f          	j	172d2 <__DATA_BEGIN__+0x625a>
   17140:	23a0006f          	j	1737a <__DATA_BEGIN__+0x6302>
   17144:	2e00006f          	j	17424 <__DATA_BEGIN__+0x63ac>
   17148:	0340006f          	j	1717c <__DATA_BEGIN__+0x6104>
   1714c:	0000006f          	j	1714c <__DATA_BEGIN__+0x60d4>
   17150:	0000006f          	j	17150 <__DATA_BEGIN__+0x60d8>
   17154:	0000006f          	j	17154 <__DATA_BEGIN__+0x60dc>
   17158:	0000006f          	j	17158 <__DATA_BEGIN__+0x60e0>
   1715c:	0000006f          	j	1715c <__DATA_BEGIN__+0x60e4>
   17160:	0000006f          	j	17160 <__DATA_BEGIN__+0x60e8>
   17164:	0000006f          	j	17164 <__DATA_BEGIN__+0x60ec>
   17168:	0000006f          	j	17168 <__DATA_BEGIN__+0x60f0>
   1716c:	0000006f          	j	1716c <__DATA_BEGIN__+0x60f4>
   17170:	0000006f          	j	17170 <__DATA_BEGIN__+0x60f8>
   17174:	0000006f          	j	17174 <__DATA_BEGIN__+0x60fc>
   17178:	0000006f          	j	17178 <__DATA_BEGIN__+0x6100>
   1717c:	a001                	j	1717c <__DATA_BEGIN__+0x6104>
   1717e:	0000                	unimp
   17180:	1141                	addi	sp,sp,-16
   17182:	204067b7          	lui	a5,0x20406
   17186:	c422                	sw	s0,8(sp)
   17188:	c606                	sw	ra,12(sp)
   1718a:	73678793          	addi	a5,a5,1846 # 20406736 <__BSS_END__+0x203e9696>
   1718e:	842a                	mv	s0,a0
   17190:	c399                	beqz	a5,17196 <__DATA_BEGIN__+0x611e>
   17192:	4581                	li	a1,0
   17194:	2d29                	addiw	s10,s10,10
   17196:	800027b7          	lui	a5,0x80002
   1719a:	0607a503          	lw	a0,96(a5) # ffffffff80002060 <__BSS_END__+0xffffffff7ffe4fc0>
   1719e:	551c                	lw	a5,40(a0)
   171a0:	c391                	beqz	a5,171a4 <__DATA_BEGIN__+0x612c>
   171a2:	9782                	jalr	a5
   171a4:	8522                	mv	a0,s0
   171a6:	2dc1                	addiw	s11,s11,16
   171a8:	1141                	addi	sp,sp,-16
   171aa:	c62a                	sw	a0,12(sp)
   171ac:	c42e                	sw	a1,8(sp)
   171ae:	4515                	li	a0,5
   171b0:	85aa                	mv	a1,a0
   171b2:	4521                	li	a0,8
   171b4:	00300073          	0x300073
   171b8:	a001                	j	171b8 <__DATA_BEGIN__+0x6140>
   171ba:	1101                	addi	sp,sp,-32
   171bc:	ce2a                	sw	a0,28(sp)
   171be:	cc2e                	sw	a1,24(sp)
   171c0:	ca32                	sw	a2,20(sp)
   171c2:	c836                	sw	a3,16(sp)
   171c4:	c63a                	sw	a4,12(sp)
   171c6:	c43e                	sw	a5,8(sp)
   171c8:	4785                	li	a5,1
   171ca:	85be                	mv	a1,a5
   171cc:	450d                	li	a0,3
   171ce:	00300073          	0x300073
   171d2:	83018593          	addi	a1,gp,-2000 # 1c0d0 <__DATA_BEGIN__+0xb058>
   171d6:	c190                	sw	a2,0(a1)
   171d8:	c1d4                	sw	a3,4(a1)
   171da:	c598                	sw	a4,8(a1)
   171dc:	c5dc                	sw	a5,12(a1)
   171de:	4572                	lw	a0,28(sp)
   171e0:	45e2                	lw	a1,24(sp)
   171e2:	4652                	lw	a2,20(sp)
   171e4:	46c2                	lw	a3,16(sp)
   171e6:	4732                	lw	a4,12(sp)
   171e8:	47a2                	lw	a5,8(sp)
   171ea:	6105                	addi	sp,sp,32
   171ec:	30200073          	mret
   171f0:	1101                	addi	sp,sp,-32
   171f2:	ce2a                	sw	a0,28(sp)
   171f4:	cc2e                	sw	a1,24(sp)
   171f6:	ca32                	sw	a2,20(sp)
   171f8:	c836                	sw	a3,16(sp)
   171fa:	c63a                	sw	a4,12(sp)
   171fc:	c43e                	sw	a5,8(sp)
   171fe:	800027b7          	lui	a5,0x80002
   17202:	0647d783          	lhu	a5,100(a5) # ffffffff80002064 <__BSS_END__+0xffffffff7ffe4fc4>
   17206:	c395                	beqz	a5,1722a <__DATA_BEGIN__+0x61b2>
   17208:	80002737          	lui	a4,0x80002
   1720c:	06875703          	lhu	a4,104(a4) # ffffffff80002068 <__BSS_END__+0xffffffff7ffe4fc8>
   17210:	ef09                	bnez	a4,1722a <__DATA_BEGIN__+0x61b2>
   17212:	17fd                	addi	a5,a5,-1
   17214:	80002737          	lui	a4,0x80002
   17218:	06f71223          	sh	a5,100(a4) # ffffffff80002064 <__BSS_END__+0xffffffff7ffe4fc4>
   1721c:	82818793          	addi	a5,gp,-2008 # 1c0c8 <__DATA_BEGIN__+0xb050>
   17220:	0007d703          	lhu	a4,0(a5)
   17224:	0705                	addi	a4,a4,1
   17226:	00e79023          	sh	a4,0(a5)
   1722a:	8281d783          	lhu	a5,-2008(gp) # 1c0c8 <__DATA_BEGIN__+0xb050>
   1722e:	c395                	beqz	a5,17252 <__DATA_BEGIN__+0x61da>
   17230:	80002737          	lui	a4,0x80002
   17234:	06475703          	lhu	a4,100(a4) # ffffffff80002064 <__BSS_END__+0xffffffff7ffe4fc4>
   17238:	ef09                	bnez	a4,17252 <__DATA_BEGIN__+0x61da>
   1723a:	17fd                	addi	a5,a5,-1
   1723c:	82f19423          	sh	a5,-2008(gp) # 1c0c8 <__DATA_BEGIN__+0xb050>
   17240:	800027b7          	lui	a5,0x80002
   17244:	06878793          	addi	a5,a5,104 # ffffffff80002068 <__BSS_END__+0xffffffff7ffe4fc8>
   17248:	0007d703          	lhu	a4,0(a5)
   1724c:	0705                	addi	a4,a4,1
   1724e:	00e79023          	sh	a4,0(a5)
   17252:	800027b7          	lui	a5,0x80002
   17256:	0687d783          	lhu	a5,104(a5) # ffffffff80002068 <__BSS_END__+0xffffffff7ffe4fc8>
   1725a:	c395                	beqz	a5,1727e <__DATA_BEGIN__+0x6206>
   1725c:	8281d703          	lhu	a4,-2008(gp) # 1c0c8 <__DATA_BEGIN__+0xb050>
   17260:	ef19                	bnez	a4,1727e <__DATA_BEGIN__+0x6206>
   17262:	80002737          	lui	a4,0x80002
   17266:	06470713          	addi	a4,a4,100 # ffffffff80002064 <__BSS_END__+0xffffffff7ffe4fc4>
   1726a:	00075683          	lhu	a3,0(a4)
   1726e:	0685                	addi	a3,a3,1
   17270:	00d71023          	sh	a3,0(a4)
   17274:	17fd                	addi	a5,a5,-1
   17276:	80002737          	lui	a4,0x80002
   1727a:	06f71423          	sh	a5,104(a4) # ffffffff80002068 <__BSS_END__+0xffffffff7ffe4fc8>
   1727e:	800027b7          	lui	a5,0x80002
   17282:	0647d703          	lhu	a4,100(a5) # ffffffff80002064 <__BSS_END__+0xffffffff7ffe4fc4>
   17286:	8309                	srli	a4,a4,0x2
   17288:	0ff00793          	li	a5,255
   1728c:	40e78733          	sub	a4,a5,a4
   17290:	100256b7          	lui	a3,0x10025
   17294:	d2d8                	sw	a4,36(a3)
   17296:	8281d703          	lhu	a4,-2008(gp) # 1c0c8 <__DATA_BEGIN__+0xb050>
   1729a:	8309                	srli	a4,a4,0x2
   1729c:	40e78733          	sub	a4,a5,a4
   172a0:	d698                	sw	a4,40(a3)
   172a2:	80002737          	lui	a4,0x80002
   172a6:	06875703          	lhu	a4,104(a4) # ffffffff80002068 <__BSS_END__+0xffffffff7ffe4fc8>
   172aa:	8309                	srli	a4,a4,0x2
   172ac:	8f99                	sub	a5,a5,a4
   172ae:	d6dc                	sw	a5,44(a3)
   172b0:	05200793          	li	a5,82
   172b4:	4701                	li	a4,0
   172b6:	85be                	mv	a1,a5
   172b8:	863a                	mv	a2,a4
   172ba:	451d                	li	a0,7
   172bc:	00300073          	0x300073
   172c0:	4572                	lw	a0,28(sp)
   172c2:	45e2                	lw	a1,24(sp)
   172c4:	4652                	lw	a2,20(sp)
   172c6:	46c2                	lw	a3,16(sp)
   172c8:	4732                	lw	a4,12(sp)
   172ca:	47a2                	lw	a5,8(sp)
   172cc:	6105                	addi	sp,sp,32
   172ce:	30200073          	mret
   172d2:	7179                	addi	sp,sp,-48
   172d4:	d62a                	sw	a0,44(sp)
   172d6:	d42e                	sw	a1,40(sp)
   172d8:	d232                	sw	a2,36(sp)
   172da:	d036                	sw	a3,32(sp)
   172dc:	ce3a                	sw	a4,28(sp)
   172de:	cc3e                	sw	a5,24(sp)
   172e0:	ca42                	sw	a6,20(sp)
   172e2:	4511                	li	a0,4
   172e4:	00300073          	0x300073
   172e8:	82018793          	addi	a5,gp,-2016 # 1c0c0 <__DATA_BEGIN__+0xb048>
   172ec:	4394                	lw	a3,0(a5)
   172ee:	43dc                	lw	a5,4(a5)
   172f0:	00b7e663          	bltu	a5,a1,172fc <__DATA_BEGIN__+0x6284>
   172f4:	06f59263          	bne	a1,a5,17358 <__DATA_BEGIN__+0x62e0>
   172f8:	06a6f063          	bgeu	a3,a0,17358 <__DATA_BEGIN__+0x62e0>
   172fc:	6805                	lui	a6,0x1
   172fe:	0821                	addi	a6,a6,8
   17300:	01050733          	add	a4,a0,a6
   17304:	00a73533          	sltu	a0,a4,a0
   17308:	952e                	add	a0,a0,a1
   1730a:	82018793          	addi	a5,gp,-2016 # 1c0c0 <__DATA_BEGIN__+0xb048>
   1730e:	c398                	sw	a4,0(a5)
   17310:	c3c8                	sw	a0,4(a5)
   17312:	205157b7          	lui	a5,0x20515
   17316:	24978793          	addi	a5,a5,585 # 20515249 <__BSS_END__+0x204f81a9>
   1731a:	c03e                	sw	a5,0(sp)
   1731c:	304e57b7          	lui	a5,0x304e5
   17320:	44278793          	addi	a5,a5,1090 # 304e5442 <__BSS_END__+0x304c83a2>
   17324:	c23e                	sw	a5,4(sp)
   17326:	c402                	sw	zero,8(sp)
   17328:	c602                	sw	zero,12(sp)
   1732a:	4505                	li	a0,1
   1732c:	85aa                	mv	a1,a0
   1732e:	4602                	lw	a2,0(sp)
   17330:	4692                	lw	a3,4(sp)
   17332:	4722                	lw	a4,8(sp)
   17334:	47b2                	lw	a5,12(sp)
   17336:	4509                	li	a0,2
   17338:	00300073          	0x300073
   1733c:	100257b7          	lui	a5,0x10025
   17340:	0ff00713          	li	a4,255
   17344:	d3d8                	sw	a4,36(a5)
   17346:	0207a423          	sw	zero,40(a5) # 10025028 <__BSS_END__+0x10007f88>
   1734a:	d7d8                	sw	a4,44(a5)
   1734c:	4781                	li	a5,0
   1734e:	85c2                	mv	a1,a6
   17350:	863e                	mv	a2,a5
   17352:	451d                	li	a0,7
   17354:	00300073          	0x300073
   17358:	6721                	lui	a4,0x8
   1735a:	100127b7          	lui	a5,0x10012
   1735e:	02c78793          	addi	a5,a5,44 # 1001202c <__BSS_END__+0xfff4f8c>
   17362:	40e7a02f          	amoor.w	zero,a4,(a5)
   17366:	5532                	lw	a0,44(sp)
   17368:	55a2                	lw	a1,40(sp)
   1736a:	5612                	lw	a2,36(sp)
   1736c:	5682                	lw	a3,32(sp)
   1736e:	4772                	lw	a4,28(sp)
   17370:	47e2                	lw	a5,24(sp)
   17372:	4852                	lw	a6,20(sp)
   17374:	6145                	addi	sp,sp,48
   17376:	30200073          	mret
   1737a:	7179                	addi	sp,sp,-48
   1737c:	d62a                	sw	a0,44(sp)
   1737e:	d42e                	sw	a1,40(sp)
   17380:	d232                	sw	a2,36(sp)
   17382:	d036                	sw	a3,32(sp)
   17384:	ce3a                	sw	a4,28(sp)
   17386:	cc3e                	sw	a5,24(sp)
   17388:	ca42                	sw	a6,20(sp)
   1738a:	4511                	li	a0,4
   1738c:	00300073          	0x300073
   17390:	81818793          	addi	a5,gp,-2024 # 1c0b8 <__DATA_BEGIN__+0xb040>
   17394:	4394                	lw	a3,0(a5)
   17396:	43dc                	lw	a5,4(a5)
   17398:	00b7e663          	bltu	a5,a1,173a4 <__DATA_BEGIN__+0x632c>
   1739c:	06f59263          	bne	a1,a5,17400 <__DATA_BEGIN__+0x6388>
   173a0:	06a6f063          	bgeu	a3,a0,17400 <__DATA_BEGIN__+0x6388>
   173a4:	6805                	lui	a6,0x1
   173a6:	0821                	addi	a6,a6,8
   173a8:	01050733          	add	a4,a0,a6
   173ac:	00a73533          	sltu	a0,a4,a0
   173b0:	952e                	add	a0,a0,a1
   173b2:	81818793          	addi	a5,gp,-2024 # 1c0b8 <__DATA_BEGIN__+0xb040>
   173b6:	c398                	sw	a4,0(a5)
   173b8:	c3c8                	sw	a0,4(a5)
   173ba:	205157b7          	lui	a5,0x20515
   173be:	24978793          	addi	a5,a5,585 # 20515249 <__BSS_END__+0x204f81a9>
   173c2:	c03e                	sw	a5,0(sp)
   173c4:	314e57b7          	lui	a5,0x314e5
   173c8:	44278793          	addi	a5,a5,1090 # 314e5442 <__BSS_END__+0x314c83a2>
   173cc:	c23e                	sw	a5,4(sp)
   173ce:	c402                	sw	zero,8(sp)
   173d0:	c602                	sw	zero,12(sp)
   173d2:	4505                	li	a0,1
   173d4:	85aa                	mv	a1,a0
   173d6:	4602                	lw	a2,0(sp)
   173d8:	4692                	lw	a3,4(sp)
   173da:	4722                	lw	a4,8(sp)
   173dc:	47b2                	lw	a5,12(sp)
   173de:	4509                	li	a0,2
   173e0:	00300073          	0x300073
   173e4:	100257b7          	lui	a5,0x10025
   173e8:	0207a223          	sw	zero,36(a5) # 10025024 <__BSS_END__+0x10007f84>
   173ec:	0ff00713          	li	a4,255
   173f0:	d798                	sw	a4,40(a5)
   173f2:	d7d8                	sw	a4,44(a5)
   173f4:	4781                	li	a5,0
   173f6:	85c2                	mv	a1,a6
   173f8:	863e                	mv	a2,a5
   173fa:	451d                	li	a0,7
   173fc:	00300073          	0x300073
   17400:	40000737          	lui	a4,0x40000
   17404:	100127b7          	lui	a5,0x10012
   17408:	02c78793          	addi	a5,a5,44 # 1001202c <__BSS_END__+0xfff4f8c>
   1740c:	40e7a02f          	amoor.w	zero,a4,(a5)
   17410:	5532                	lw	a0,44(sp)
   17412:	55a2                	lw	a1,40(sp)
   17414:	5612                	lw	a2,36(sp)
   17416:	5682                	lw	a3,32(sp)
   17418:	4772                	lw	a4,28(sp)
   1741a:	47e2                	lw	a5,24(sp)
   1741c:	4852                	lw	a6,20(sp)
   1741e:	6145                	addi	sp,sp,48
   17420:	30200073          	mret
   17424:	7179                	addi	sp,sp,-48
   17426:	d62a                	sw	a0,44(sp)
   17428:	d42e                	sw	a1,40(sp)
   1742a:	d232                	sw	a2,36(sp)
   1742c:	d036                	sw	a3,32(sp)
   1742e:	ce3a                	sw	a4,28(sp)
   17430:	cc3e                	sw	a5,24(sp)
   17432:	ca42                	sw	a6,20(sp)
   17434:	4511                	li	a0,4
   17436:	00300073          	0x300073
   1743a:	81018793          	addi	a5,gp,-2032 # 1c0b0 <__DATA_BEGIN__+0xb038>
   1743e:	4394                	lw	a3,0(a5)
   17440:	43dc                	lw	a5,4(a5)
   17442:	00b7e663          	bltu	a5,a1,1744e <__DATA_BEGIN__+0x63d6>
   17446:	06f59263          	bne	a1,a5,174aa <__DATA_BEGIN__+0x6432>
   1744a:	06a6f063          	bgeu	a3,a0,174aa <__DATA_BEGIN__+0x6432>
   1744e:	6805                	lui	a6,0x1
   17450:	0821                	addi	a6,a6,8
   17452:	01050733          	add	a4,a0,a6
   17456:	00a73533          	sltu	a0,a4,a0
   1745a:	952e                	add	a0,a0,a1
   1745c:	81018793          	addi	a5,gp,-2032 # 1c0b0 <__DATA_BEGIN__+0xb038>
   17460:	c398                	sw	a4,0(a5)
   17462:	c3c8                	sw	a0,4(a5)
   17464:	205157b7          	lui	a5,0x20515
   17468:	24978793          	addi	a5,a5,585 # 20515249 <__BSS_END__+0x204f81a9>
   1746c:	c03e                	sw	a5,0(sp)
   1746e:	324e57b7          	lui	a5,0x324e5
   17472:	44278793          	addi	a5,a5,1090 # 324e5442 <__BSS_END__+0x324c83a2>
   17476:	c23e                	sw	a5,4(sp)
   17478:	c402                	sw	zero,8(sp)
   1747a:	c602                	sw	zero,12(sp)
   1747c:	4505                	li	a0,1
   1747e:	85aa                	mv	a1,a0
   17480:	4602                	lw	a2,0(sp)
   17482:	4692                	lw	a3,4(sp)
   17484:	4722                	lw	a4,8(sp)
   17486:	47b2                	lw	a5,12(sp)
   17488:	4509                	li	a0,2
   1748a:	00300073          	0x300073
   1748e:	100257b7          	lui	a5,0x10025
   17492:	0ff00713          	li	a4,255
   17496:	d3d8                	sw	a4,36(a5)
   17498:	d798                	sw	a4,40(a5)
   1749a:	0207a623          	sw	zero,44(a5) # 1002502c <__BSS_END__+0x10007f8c>
   1749e:	4781                	li	a5,0
   174a0:	85c2                	mv	a1,a6
   174a2:	863e                	mv	a2,a5
   174a4:	451d                	li	a0,7
   174a6:	00300073          	0x300073
   174aa:	80000737          	lui	a4,0x80000
   174ae:	100127b7          	lui	a5,0x10012
   174b2:	02c78793          	addi	a5,a5,44 # 1001202c <__BSS_END__+0xfff4f8c>
   174b6:	40e7a02f          	amoor.w	zero,a4,(a5)
   174ba:	5532                	lw	a0,44(sp)
   174bc:	55a2                	lw	a1,40(sp)
   174be:	5612                	lw	a2,36(sp)
   174c0:	5682                	lw	a3,32(sp)
   174c2:	4772                	lw	a4,28(sp)
   174c4:	47e2                	lw	a5,24(sp)
   174c6:	4852                	lw	a6,20(sp)
   174c8:	6145                	addi	sp,sp,48
   174ca:	30200073          	mret
   174ce:	100127b7          	lui	a5,0x10012
   174d2:	5f98                	lw	a4,56(a5)
   174d4:	76e1                	lui	a3,0xffff8
   174d6:	16fd                	addi	a3,a3,-1
   174d8:	8f75                	and	a4,a4,a3
   174da:	df98                	sw	a4,56(a5)
   174dc:	43d8                	lw	a4,4(a5)
   174de:	66a1                	lui	a3,0x8
   174e0:	8f55                	or	a4,a4,a3
   174e2:	c3d8                	sw	a4,4(a5)
   174e4:	4b98                	lw	a4,16(a5)
   174e6:	8f55                	or	a4,a4,a3
   174e8:	cb98                	sw	a4,16(a5)
   174ea:	5798                	lw	a4,40(a5)
   174ec:	8f55                	or	a4,a4,a3
   174ee:	d798                	sw	a4,40(a5)
   174f0:	67c1                	lui	a5,0x10
   174f2:	3047a7f3          	csrrs	a5,mie,a5
   174f6:	8082                	ret
   174f8:	100127b7          	lui	a5,0x10012
   174fc:	5f98                	lw	a4,56(a5)
   174fe:	c00006b7          	lui	a3,0xc0000
   17502:	16fd                	addi	a3,a3,-1
   17504:	8f75                	and	a4,a4,a3
   17506:	df98                	sw	a4,56(a5)
   17508:	43d8                	lw	a4,4(a5)
   1750a:	400006b7          	lui	a3,0x40000
   1750e:	8f55                	or	a4,a4,a3
   17510:	c3d8                	sw	a4,4(a5)
   17512:	4b98                	lw	a4,16(a5)
   17514:	8f55                	or	a4,a4,a3
   17516:	cb98                	sw	a4,16(a5)
   17518:	5798                	lw	a4,40(a5)
   1751a:	8f55                	or	a4,a4,a3
   1751c:	d798                	sw	a4,40(a5)
   1751e:	000207b7          	lui	a5,0x20
   17522:	3047a7f3          	csrrs	a5,mie,a5
   17526:	8082                	ret
   17528:	100127b7          	lui	a5,0x10012
   1752c:	5f94                	lw	a3,56(a5)
   1752e:	80000737          	lui	a4,0x80000
   17532:	fff74613          	not	a2,a4
   17536:	8ef1                	and	a3,a3,a2
   17538:	df94                	sw	a3,56(a5)
   1753a:	43d4                	lw	a3,4(a5)
   1753c:	8ed9                	or	a3,a3,a4
   1753e:	c3d4                	sw	a3,4(a5)
   17540:	4b94                	lw	a3,16(a5)
   17542:	8ed9                	or	a3,a3,a4
   17544:	cb94                	sw	a3,16(a5)
   17546:	5794                	lw	a3,40(a5)
   17548:	8f55                	or	a4,a4,a3
   1754a:	d798                	sw	a4,40(a5)
   1754c:	000407b7          	lui	a5,0x40
   17550:	3047a7f3          	csrrs	a5,mie,a5
   17554:	8082                	ret
   17556:	7179                	addi	sp,sp,-48
   17558:	d606                	sw	ra,44(sp)
   1755a:	10025737          	lui	a4,0x10025
   1755e:	6785                	lui	a5,0x1
   17560:	20078793          	addi	a5,a5,512 # 1200 <_binary_multizone_bin_size-0xae24>
   17564:	c31c                	sw	a5,0(a4)
   17566:	0fe00793          	li	a5,254
   1756a:	d31c                	sw	a5,32(a4)
   1756c:	378d                	addiw	a5,a5,-29
   1756e:	3769                	addiw	a4,a4,-6
   17570:	3f65                	addiw	t5,t5,-7
   17572:	05200793          	li	a5,82
   17576:	4701                	li	a4,0
   17578:	85be                	mv	a1,a5
   1757a:	863a                	mv	a2,a4
   1757c:	451d                	li	a0,7
   1757e:	00300073          	0x300073
   17582:	08000793          	li	a5,128
   17586:	3047a7f3          	csrrs	a5,mie,a5
   1758a:	304467f3          	csrrsi	a5,mie,8
   1758e:	300467f3          	csrrsi	a5,mstatus,8
   17592:	a825                	j	175ca <__DATA_BEGIN__+0x6552>
   17594:	858a                	mv	a1,sp
   17596:	20407537          	lui	a0,0x20407
   1759a:	80850513          	addi	a0,a0,-2040 # 20406808 <__BSS_END__+0x203e9768>
   1759e:	2ab5                	addiw	s5,s5,13
   175a0:	e149                	bnez	a0,17622 <__DATA_BEGIN__+0x65aa>
   175a2:	300477f3          	csrrci	a5,mstatus,8
   175a6:	4505                	li	a0,1
   175a8:	00300073          	0x300073
   175ac:	300027f3          	csrr	a5,mstatus
   175b0:	8ba1                	andi	a5,a5,8
   175b2:	ef81                	bnez	a5,175ca <__DATA_BEGIN__+0x6552>
   175b4:	4805                	li	a6,1
   175b6:	85c2                	mv	a1,a6
   175b8:	450d                	li	a0,3
   175ba:	00300073          	0x300073
   175be:	c032                	sw	a2,0(sp)
   175c0:	c236                	sw	a3,4(sp)
   175c2:	c43a                	sw	a4,8(sp)
   175c4:	c63e                	sw	a5,12(sp)
   175c6:	09050c63          	beq	a0,a6,1765e <__DATA_BEGIN__+0x65e6>
   175ca:	304477f3          	csrrci	a5,mie,8
   175ce:	83018793          	addi	a5,gp,-2000 # 1c0d0 <__DATA_BEGIN__+0xb058>
   175d2:	438c                	lw	a1,0(a5)
   175d4:	43d0                	lw	a2,4(a5)
   175d6:	4794                	lw	a3,8(a5)
   175d8:	47d8                	lw	a4,12(a5)
   175da:	c02e                	sw	a1,0(sp)
   175dc:	c232                	sw	a2,4(sp)
   175de:	c436                	sw	a3,8(sp)
   175e0:	c63a                	sw	a4,12(sp)
   175e2:	00078023          	sb	zero,0(a5)
   175e6:	304467f3          	csrrsi	a5,mie,8
   175ea:	00014783          	lbu	a5,0(sp)
   175ee:	dfc5                	beqz	a5,175a6 <__DATA_BEGIN__+0x652e>
   175f0:	858a                	mv	a1,sp
   175f2:	20407537          	lui	a0,0x20407
   175f6:	80050513          	addi	a0,a0,-2048 # 20406800 <__BSS_END__+0x203e9760>
   175fa:	2205                	addiw	tp,tp,1
   175fc:	fd41                	bnez	a0,17594 <__DATA_BEGIN__+0x651c>
   175fe:	676e77b7          	lui	a5,0x676e7
   17602:	f7078793          	addi	a5,a5,-144 # 676e6f70 <__BSS_END__+0x676c9ed0>
   17606:	c83e                	sw	a5,16(sp)
   17608:	ca02                	sw	zero,20(sp)
   1760a:	cc02                	sw	zero,24(sp)
   1760c:	ce02                	sw	zero,28(sp)
   1760e:	4505                	li	a0,1
   17610:	85aa                	mv	a1,a0
   17612:	4642                	lw	a2,16(sp)
   17614:	46d2                	lw	a3,20(sp)
   17616:	4762                	lw	a4,24(sp)
   17618:	47f2                	lw	a5,28(sp)
   1761a:	4509                	li	a0,2
   1761c:	00300073          	0x300073
   17620:	b759                	j	175a6 <__DATA_BEGIN__+0x652e>
   17622:	858a                	mv	a1,sp
   17624:	20407537          	lui	a0,0x20407
   17628:	81850513          	addi	a0,a0,-2024 # 20406818 <__BSS_END__+0x203e9778>
   1762c:	20fd                	addiw	ra,ra,31
   1762e:	e501                	bnez	a0,17636 <__DATA_BEGIN__+0x65be>
   17630:	300467f3          	csrrsi	a5,mstatus,8
   17634:	bf8d                	j	175a6 <__DATA_BEGIN__+0x652e>
   17636:	858a                	mv	a1,sp
   17638:	20407537          	lui	a0,0x20407
   1763c:	82850513          	addi	a0,a0,-2008 # 20406828 <__BSS_END__+0x203e9788>
   17640:	28e9                	addiw	a7,a7,26
   17642:	c919                	beqz	a0,17658 <__DATA_BEGIN__+0x65e0>
   17644:	4505                	li	a0,1
   17646:	85aa                	mv	a1,a0
   17648:	4602                	lw	a2,0(sp)
   1764a:	4692                	lw	a3,4(sp)
   1764c:	4722                	lw	a4,8(sp)
   1764e:	47b2                	lw	a5,12(sp)
   17650:	4509                	li	a0,2
   17652:	00300073          	0x300073
   17656:	bf81                	j	175a6 <__DATA_BEGIN__+0x652e>
   17658:	300477f3          	csrrci	a5,mstatus,8
   1765c:	a001                	j	1765c <__DATA_BEGIN__+0x65e4>
   1765e:	83018793          	addi	a5,gp,-2000 # 1c0d0 <__DATA_BEGIN__+0xb058>
   17662:	c390                	sw	a2,0(a5)
   17664:	c3d4                	sw	a3,4(a5)
   17666:	4722                	lw	a4,8(sp)
   17668:	c798                	sw	a4,8(a5)
   1766a:	4732                	lw	a4,12(sp)
   1766c:	c7d8                	sw	a4,12(a5)
   1766e:	bfb1                	j	175ca <__DATA_BEGIN__+0x6552>
   17670:	85aa                	mv	a1,a0
   17672:	4681                	li	a3,0
   17674:	4601                	li	a2,0
   17676:	4501                	li	a0,0
   17678:	a86d                	j	17732 <__DATA_BEGIN__+0x66ba>
   1767a:	1141                	addi	sp,sp,-16
   1767c:	204067b7          	lui	a5,0x20406
   17680:	c422                	sw	s0,8(sp)
   17682:	20406437          	lui	s0,0x20406
   17686:	10878713          	addi	a4,a5,264 # 20406108 <__BSS_END__+0x203e9068>
   1768a:	10840413          	addi	s0,s0,264 # 20406108 <__BSS_END__+0x203e9068>
   1768e:	8c19                	sub	s0,s0,a4
   17690:	c226                	sw	s1,4(sp)
   17692:	c606                	sw	ra,12(sp)
   17694:	8409                	srai	s0,s0,0x2
   17696:	10878493          	addi	s1,a5,264
   1769a:	e411                	bnez	s0,176a6 <__DATA_BEGIN__+0x662e>
   1769c:	40b2                	lw	ra,12(sp)
   1769e:	4422                	lw	s0,8(sp)
   176a0:	4492                	lw	s1,4(sp)
   176a2:	0141                	addi	sp,sp,16
   176a4:	8082                	ret
   176a6:	147d                	addi	s0,s0,-1
   176a8:	00241793          	slli	a5,s0,0x2
   176ac:	97a6                	add	a5,a5,s1
   176ae:	439c                	lw	a5,0(a5)
   176b0:	9782                	jalr	a5
   176b2:	b7e5                	j	1769a <__DATA_BEGIN__+0x6622>
   176b4:	1141                	addi	sp,sp,-16
   176b6:	c422                	sw	s0,8(sp)
   176b8:	c226                	sw	s1,4(sp)
   176ba:	20406437          	lui	s0,0x20406
   176be:	204064b7          	lui	s1,0x20406
   176c2:	10848793          	addi	a5,s1,264 # 20406108 <__BSS_END__+0x203e9068>
   176c6:	10840413          	addi	s0,s0,264 # 20406108 <__BSS_END__+0x203e9068>
   176ca:	8c1d                	sub	s0,s0,a5
   176cc:	c04a                	sw	s2,0(sp)
   176ce:	c606                	sw	ra,12(sp)
   176d0:	8409                	srai	s0,s0,0x2
   176d2:	10848493          	addi	s1,s1,264
   176d6:	4901                	li	s2,0
   176d8:	02891763          	bne	s2,s0,17706 <__DATA_BEGIN__+0x668e>
   176dc:	204064b7          	lui	s1,0x20406
   176e0:	20406437          	lui	s0,0x20406
   176e4:	10848793          	addi	a5,s1,264 # 20406108 <__BSS_END__+0x203e9068>
   176e8:	10840413          	addi	s0,s0,264 # 20406108 <__BSS_END__+0x203e9068>
   176ec:	8c1d                	sub	s0,s0,a5
   176ee:	8409                	srai	s0,s0,0x2
   176f0:	10848493          	addi	s1,s1,264
   176f4:	4901                	li	s2,0
   176f6:	00891d63          	bne	s2,s0,17710 <__DATA_BEGIN__+0x6698>
   176fa:	40b2                	lw	ra,12(sp)
   176fc:	4422                	lw	s0,8(sp)
   176fe:	4492                	lw	s1,4(sp)
   17700:	4902                	lw	s2,0(sp)
   17702:	0141                	addi	sp,sp,16
   17704:	8082                	ret
   17706:	409c                	lw	a5,0(s1)
   17708:	0905                	addi	s2,s2,1
   1770a:	0491                	addi	s1,s1,4
   1770c:	9782                	jalr	a5
   1770e:	b7e9                	j	176d8 <__DATA_BEGIN__+0x6660>
   17710:	409c                	lw	a5,0(s1)
   17712:	0905                	addi	s2,s2,1
   17714:	0491                	addi	s1,s1,4
   17716:	9782                	jalr	a5
   17718:	bff9                	j	176f6 <__DATA_BEGIN__+0x667e>
   1771a:	00054603          	lbu	a2,0(a0)
   1771e:	0005c683          	lbu	a3,0(a1)
   17722:	0505                	addi	a0,a0,1
   17724:	0585                	addi	a1,a1,1
   17726:	00d61363          	bne	a2,a3,1772c <__DATA_BEGIN__+0x66b4>
   1772a:	fa65                	bnez	a2,1771a <__DATA_BEGIN__+0x66a2>
   1772c:	40d60533          	sub	a0,a2,a3
   17730:	8082                	ret
   17732:	82c1a783          	lw	a5,-2004(gp) # 1c0cc <__DATA_BEGIN__+0xb054>
   17736:	88aa                	mv	a7,a0
   17738:	e38d                	bnez	a5,1775a <__DATA_BEGIN__+0x66e2>
   1773a:	84018513          	addi	a0,gp,-1984 # 1c0e0 <__DATA_BEGIN__+0xb068>
   1773e:	82a1a623          	sw	a0,-2004(gp) # 1c0cc <__DATA_BEGIN__+0xb054>
   17742:	00000313          	li	t1,0
   17746:	84018793          	addi	a5,gp,-1984 # 1c0e0 <__DATA_BEGIN__+0xb068>
   1774a:	00030863          	beqz	t1,1775a <__DATA_BEGIN__+0x66e2>
   1774e:	00002783          	lw	a5,0(zero) # 0 <_binary_multizone_bin_size-0xc024>
   17752:	08f52423          	sw	a5,136(a0)
   17756:	84018793          	addi	a5,gp,-1984 # 1c0e0 <__DATA_BEGIN__+0xb068>
   1775a:	43d8                	lw	a4,4(a5)
   1775c:	487d                	li	a6,31
   1775e:	557d                	li	a0,-1
   17760:	04e84663          	blt	a6,a4,177ac <__DATA_BEGIN__+0x6734>
   17764:	02088d63          	beqz	a7,1779e <__DATA_BEGIN__+0x6726>
   17768:	0887a803          	lw	a6,136(a5)
   1776c:	04080063          	beqz	a6,177ac <__DATA_BEGIN__+0x6734>
   17770:	00271513          	slli	a0,a4,0x2
   17774:	9542                	add	a0,a0,a6
   17776:	c110                	sw	a2,0(a0)
   17778:	10082303          	lw	t1,256(a6) # 1100 <_binary_multizone_bin_size-0xaf24>
   1777c:	4605                	li	a2,1
   1777e:	00e61633          	sll	a2,a2,a4
   17782:	00c36333          	or	t1,t1,a2
   17786:	10682023          	sw	t1,256(a6)
   1778a:	08d52023          	sw	a3,128(a0)
   1778e:	4689                	li	a3,2
   17790:	00d89763          	bne	a7,a3,1779e <__DATA_BEGIN__+0x6726>
   17794:	10482683          	lw	a3,260(a6)
   17798:	8e55                	or	a2,a2,a3
   1779a:	10c82223          	sw	a2,260(a6)
   1779e:	00170693          	addi	a3,a4,1 # 10025001 <__BSS_END__+0x10007f61>
   177a2:	070a                	slli	a4,a4,0x2
   177a4:	c3d4                	sw	a3,4(a5)
   177a6:	97ba                	add	a5,a5,a4
   177a8:	c78c                	sw	a1,8(a5)
   177aa:	4501                	li	a0,0
   177ac:	8082                	ret
   177ae:	7179                	addi	sp,sp,-48
   177b0:	ca56                	sw	s5,20(sp)
   177b2:	c85a                	sw	s6,16(sp)
   177b4:	c65e                	sw	s7,12(sp)
   177b6:	c266                	sw	s9,4(sp)
   177b8:	d606                	sw	ra,44(sp)
   177ba:	d422                	sw	s0,40(sp)
   177bc:	d226                	sw	s1,36(sp)
   177be:	d04a                	sw	s2,32(sp)
   177c0:	ce4e                	sw	s3,28(sp)
   177c2:	cc52                	sw	s4,24(sp)
   177c4:	c462                	sw	s8,8(sp)
   177c6:	c06a                	sw	s10,0(sp)
   177c8:	8b2a                	mv	s6,a0
   177ca:	8aae                	mv	s5,a1
   177cc:	4c85                	li	s9,1
   177ce:	82c1a483          	lw	s1,-2004(gp) # 1c0cc <__DATA_BEGIN__+0xb054>
   177d2:	82c18c13          	addi	s8,gp,-2004 # 1c0cc <__DATA_BEGIN__+0xb054>
   177d6:	cc81                	beqz	s1,177ee <__DATA_BEGIN__+0x6776>
   177d8:	40c0                	lw	s0,4(s1)
   177da:	0884a983          	lw	s3,136(s1)
   177de:	fff40913          	addi	s2,s0,-1
   177e2:	040a                	slli	s0,s0,0x2
   177e4:	00898a33          	add	s4,s3,s0
   177e8:	9426                	add	s0,s0,s1
   177ea:	02095063          	bgez	s2,1780a <__DATA_BEGIN__+0x6792>
   177ee:	50b2                	lw	ra,44(sp)
   177f0:	5422                	lw	s0,40(sp)
   177f2:	5492                	lw	s1,36(sp)
   177f4:	5902                	lw	s2,32(sp)
   177f6:	49f2                	lw	s3,28(sp)
   177f8:	4a62                	lw	s4,24(sp)
   177fa:	4ad2                	lw	s5,20(sp)
   177fc:	4b42                	lw	s6,16(sp)
   177fe:	4bb2                	lw	s7,12(sp)
   17800:	4c22                	lw	s8,8(sp)
   17802:	4c92                	lw	s9,4(sp)
   17804:	4d02                	lw	s10,0(sp)
   17806:	6145                	addi	sp,sp,48
   17808:	8082                	ret
   1780a:	000a8c63          	beqz	s5,17822 <__DATA_BEGIN__+0x67aa>
   1780e:	00099663          	bnez	s3,1781a <__DATA_BEGIN__+0x67a2>
   17812:	197d                	addi	s2,s2,-1
   17814:	1a71                	addi	s4,s4,-4
   17816:	1471                	addi	s0,s0,-4
   17818:	bfc9                	j	177ea <__DATA_BEGIN__+0x6772>
   1781a:	07ca2783          	lw	a5,124(s4)
   1781e:	ff579ae3          	bne	a5,s5,17812 <__DATA_BEGIN__+0x679a>
   17822:	40d8                	lw	a4,4(s1)
   17824:	405c                	lw	a5,4(s0)
   17826:	177d                	addi	a4,a4,-1
   17828:	03271863          	bne	a4,s2,17858 <__DATA_BEGIN__+0x67e0>
   1782c:	0124a223          	sw	s2,4(s1)
   17830:	d3ed                	beqz	a5,17812 <__DATA_BEGIN__+0x679a>
   17832:	0044ad03          	lw	s10,4(s1)
   17836:	00098863          	beqz	s3,17846 <__DATA_BEGIN__+0x67ce>
   1783a:	1009a683          	lw	a3,256(s3)
   1783e:	012c9733          	sll	a4,s9,s2
   17842:	8ef9                	and	a3,a3,a4
   17844:	ee89                	bnez	a3,1785e <__DATA_BEGIN__+0x67e6>
   17846:	9782                	jalr	a5
   17848:	40d8                	lw	a4,4(s1)
   1784a:	000c2783          	lw	a5,0(s8)
   1784e:	f9a710e3          	bne	a4,s10,177ce <__DATA_BEGIN__+0x6756>
   17852:	fcf480e3          	beq	s1,a5,17812 <__DATA_BEGIN__+0x679a>
   17856:	bfa5                	j	177ce <__DATA_BEGIN__+0x6756>
   17858:	00042223          	sw	zero,4(s0)
   1785c:	bfd1                	j	17830 <__DATA_BEGIN__+0x67b8>
   1785e:	1049a683          	lw	a3,260(s3)
   17862:	ffca2583          	lw	a1,-4(s4)
   17866:	8f75                	and	a4,a4,a3
   17868:	e701                	bnez	a4,17870 <__DATA_BEGIN__+0x67f8>
   1786a:	855a                	mv	a0,s6
   1786c:	9782                	jalr	a5
   1786e:	bfe9                	j	17848 <__DATA_BEGIN__+0x67d0>
   17870:	852e                	mv	a0,a1
   17872:	9782                	jalr	a5
   17874:	bfd1                	j	17848 <__DATA_BEGIN__+0x67d0>
   17876:	a001                	j	17876 <__DATA_BEGIN__+0x67fe>
   17878:	6970                	ld	a2,208(a0)
   1787a:	676e                	ld	a4,216(sp)
   1787c:	0000                	unimp
   1787e:	0000                	unimp
   17880:	736d                	lui	t1,0xffffb
   17882:	6174                	ld	a3,192(a0)
   17884:	7574                	ld	a3,232(a0)
   17886:	696d2e73          	csrrs	t3,0x696,s10
   1788a:	3d65                	addiw	s10,s10,-7
   1788c:	0030                	addi	a2,sp,8
   1788e:	0000                	unimp
   17890:	736d                	lui	t1,0xffffb
   17892:	6174                	ld	a3,192(a0)
   17894:	7574                	ld	a3,232(a0)
   17896:	696d2e73          	csrrs	t3,0x696,s10
   1789a:	3d65                	addiw	s10,s10,-7
   1789c:	0031                	c.nop	12
   1789e:	0000                	unimp
   178a0:	6c62                	ld	s8,24(sp)
   178a2:	006b636f          	jal	t1,cd8a8 <__BSS_END__+0xb0808>
	...
   17906:	0000                	unimp
   17908:	2000                	fld	fs0,0(s0)
   1790a:	8000                	0x8000
   1790c:	0000003f 00000000 	0x3f
	...
   19078:	00000517          	auipc	a0,0x0
   1907c:	08850513          	addi	a0,a0,136 # 19100 <__DATA_BEGIN__+0x8088>
   19080:	30551073          	csrw	mtvec,a0
   19084:	3050e073          	csrsi	mtvec,1
   19088:	5fbfc197          	auipc	gp,0x5fbfc
   1908c:	85018193          	addi	gp,gp,-1968 # 5fc148d8 <__BSS_END__+0x5fbf7838>
   19090:	e5018113          	addi	sp,gp,-432 # 1c6f0 <__DATA_BEGIN__+0xb678>
   19094:	00004517          	auipc	a0,0x4
   19098:	f9c50513          	addi	a0,a0,-100 # 1d030 <__global_pointer$+0x790>
   1909c:	5fbfb597          	auipc	a1,0x5fbfb
   190a0:	fdc58593          	addi	a1,a1,-36 # 5fc14078 <__BSS_END__+0x5fbf6fd8>
   190a4:	5fbfb617          	auipc	a2,0x5fbfb
   190a8:	04060613          	addi	a2,a2,64 # 5fc140e4 <__BSS_END__+0x5fbf7044>
   190ac:	00c5fa63          	bgeu	a1,a2,190c0 <__DATA_BEGIN__+0x8048>
   190b0:	00052283          	lw	t0,0(a0)
   190b4:	0055a023          	sw	t0,0(a1)
   190b8:	0511                	addi	a0,a0,4
   190ba:	0591                	addi	a1,a1,4
   190bc:	fec5eae3          	bltu	a1,a2,190b0 <__DATA_BEGIN__+0x8038>
   190c0:	81018513          	addi	a0,gp,-2032 # 1c0b0 <__DATA_BEGIN__+0xb038>
   190c4:	a4818593          	addi	a1,gp,-1464 # 1c2e8 <__DATA_BEGIN__+0xb270>
   190c8:	00b57763          	bgeu	a0,a1,190d6 <__DATA_BEGIN__+0x805e>
   190cc:	00052023          	sw	zero,0(a0)
   190d0:	0511                	addi	a0,a0,4
   190d2:	feb56de3          	bltu	a0,a1,190cc <__DATA_BEGIN__+0x8054>
   190d6:	00002517          	auipc	a0,0x2
   190da:	3d250513          	addi	a0,a0,978 # 1b4a8 <__DATA_BEGIN__+0xa430>
   190de:	3be020ef          	jal	ra,1b49c <__DATA_BEGIN__+0xa424>
   190e2:	400020ef          	jal	ra,1b4e2 <__DATA_BEGIN__+0xa46a>
   190e6:	00000097          	auipc	ra,0x0
   190ea:	1141                	addi	sp,sp,-16
   190ec:	c406                	sw	ra,8(sp)
   190ee:	4501                	li	a0,0
   190f0:	4581                	li	a1,0
   190f2:	590010ef          	jal	ra,1a682 <__DATA_BEGIN__+0x960a>
   190f6:	a849                	j	19188 <__DATA_BEGIN__+0x8110>
   190f8:	a001                	j	190f8 <__DATA_BEGIN__+0x8080>
   190fa:	8082                	ret
   190fc:	8082                	ret
   190fe:	0001                	nop
   19100:	0d20006f          	j	191d2 <__DATA_BEGIN__+0x815a>
   19104:	0000006f          	j	19104 <__DATA_BEGIN__+0x808c>
   19108:	0000006f          	j	19108 <__DATA_BEGIN__+0x8090>
   1910c:	2a60006f          	j	193b2 <__DATA_BEGIN__+0x833a>
   19110:	0000006f          	j	19110 <__DATA_BEGIN__+0x8098>
   19114:	0000006f          	j	19114 <__DATA_BEGIN__+0x809c>
   19118:	0000006f          	j	19118 <__DATA_BEGIN__+0x80a0>
   1911c:	3160006f          	j	19432 <__DATA_BEGIN__+0x83ba>
   19120:	0000006f          	j	19120 <__DATA_BEGIN__+0x80a8>
   19124:	0000006f          	j	19124 <__DATA_BEGIN__+0x80ac>
   19128:	0000006f          	j	19128 <__DATA_BEGIN__+0x80b0>
   1912c:	3dc0006f          	j	19508 <__DATA_BEGIN__+0x8490>
   19130:	0000006f          	j	19130 <__DATA_BEGIN__+0x80b8>
   19134:	0000006f          	j	19134 <__DATA_BEGIN__+0x80bc>
   19138:	0000006f          	j	19138 <__DATA_BEGIN__+0x80c0>
   1913c:	0000006f          	j	1913c <__DATA_BEGIN__+0x80c4>
   19140:	0400006f          	j	19180 <__DATA_BEGIN__+0x8108>
   19144:	03c0006f          	j	19180 <__DATA_BEGIN__+0x8108>
   19148:	0380006f          	j	19180 <__DATA_BEGIN__+0x8108>
   1914c:	4620006f          	j	195ae <__DATA_BEGIN__+0x8536>
   19150:	0000006f          	j	19150 <__DATA_BEGIN__+0x80d8>
   19154:	0000006f          	j	19154 <__DATA_BEGIN__+0x80dc>
   19158:	0000006f          	j	19158 <__DATA_BEGIN__+0x80e0>
   1915c:	0000006f          	j	1915c <__DATA_BEGIN__+0x80e4>
   19160:	0000006f          	j	19160 <__DATA_BEGIN__+0x80e8>
   19164:	0000006f          	j	19164 <__DATA_BEGIN__+0x80ec>
   19168:	0000006f          	j	19168 <__DATA_BEGIN__+0x80f0>
   1916c:	0000006f          	j	1916c <__DATA_BEGIN__+0x80f4>
   19170:	0000006f          	j	19170 <__DATA_BEGIN__+0x80f8>
   19174:	0000006f          	j	19174 <__DATA_BEGIN__+0x80fc>
   19178:	0000006f          	j	19178 <__DATA_BEGIN__+0x8100>
   1917c:	0000006f          	j	1917c <__DATA_BEGIN__+0x8104>
   19180:	a001                	j	19180 <__DATA_BEGIN__+0x8108>
   19182:	0000                	unimp
   19184:	0000                	unimp
   19186:	0000                	unimp
   19188:	1141                	addi	sp,sp,-16
   1918a:	2040b7b7          	lui	a5,0x2040b
   1918e:	c422                	sw	s0,8(sp)
   19190:	c606                	sw	ra,12(sp)
   19192:	c4878793          	addi	a5,a5,-952 # 2040ac48 <__BSS_END__+0x203edba8>
   19196:	842a                	mv	s0,a0
   19198:	c781                	beqz	a5,191a0 <__DATA_BEGIN__+0x8128>
   1919a:	4581                	li	a1,0
   1919c:	325020ef          	jal	ra,1bcc0 <__DATA_BEGIN__+0xac48>
   191a0:	800037b7          	lui	a5,0x80003
   191a4:	0607a503          	lw	a0,96(a5) # ffffffff80003060 <__BSS_END__+0xffffffff7ffe5fc0>
   191a8:	551c                	lw	a5,40(a0)
   191aa:	c391                	beqz	a5,191ae <__DATA_BEGIN__+0x8136>
   191ac:	9782                	jalr	a5
   191ae:	8522                	mv	a0,s0
   191b0:	777020ef          	jal	ra,1c126 <__DATA_BEGIN__+0xb0ae>
   191b4:	4108                	lw	a0,0(a0)
   191b6:	419c                	lw	a5,0(a1)
   191b8:	00f54563          	blt	a0,a5,191c2 <__DATA_BEGIN__+0x814a>
   191bc:	00a7a533          	slt	a0,a5,a0
   191c0:	8082                	ret
   191c2:	557d                	li	a0,-1
   191c4:	8082                	ret
   191c6:	82418793          	addi	a5,gp,-2012 # 1c0c4 <__DATA_BEGIN__+0xb04c>
   191ca:	53c8                	lw	a0,36(a5)
   191cc:	00153513          	seqz	a0,a0
   191d0:	8082                	ret
   191d2:	711d                	addi	sp,sp,-96
   191d4:	ce86                	sw	ra,92(sp)
   191d6:	cc96                	sw	t0,88(sp)
   191d8:	ca9a                	sw	t1,84(sp)
   191da:	c89e                	sw	t2,80(sp)
   191dc:	c6a2                	sw	s0,76(sp)
   191de:	c4a6                	sw	s1,72(sp)
   191e0:	c2aa                	sw	a0,68(sp)
   191e2:	c0ae                	sw	a1,64(sp)
   191e4:	de32                	sw	a2,60(sp)
   191e6:	dc36                	sw	a3,56(sp)
   191e8:	da3a                	sw	a4,52(sp)
   191ea:	d83e                	sw	a5,48(sp)
   191ec:	d642                	sw	a6,44(sp)
   191ee:	d446                	sw	a7,40(sp)
   191f0:	d272                	sw	t3,36(sp)
   191f2:	d076                	sw	t4,32(sp)
   191f4:	ce7a                	sw	t5,28(sp)
   191f6:	cc7e                	sw	t6,24(sp)
   191f8:	4515                	li	a0,5
   191fa:	85aa                	mv	a1,a0
   191fc:	4521                	li	a0,8
   191fe:	00300073          	0x300073
   19202:	842a                	mv	s0,a0
   19204:	4511                	li	a0,4
   19206:	85aa                	mv	a1,a0
   19208:	4521                	li	a0,8
   1920a:	00300073          	0x300073
   1920e:	84aa                	mv	s1,a0
   19210:	4519                	li	a0,6
   19212:	85aa                	mv	a1,a0
   19214:	4521                	li	a0,8
   19216:	00300073          	0x300073
   1921a:	86aa                	mv	a3,a0
   1921c:	47ad                	li	a5,11
   1921e:	1887e163          	bltu	a5,s0,193a0 <__DATA_BEGIN__+0x8328>
   19222:	00241793          	slli	a5,s0,0x2
   19226:	2040b737          	lui	a4,0x2040b
   1922a:	31c70713          	addi	a4,a4,796 # 2040b31c <__BSS_END__+0x203ee27c>
   1922e:	97ba                	add	a5,a5,a4
   19230:	439c                	lw	a5,0(a5)
   19232:	8782                	jr	a5
   19234:	8626                	mv	a2,s1
   19236:	85a2                	mv	a1,s0
   19238:	2040b537          	lui	a0,0x2040b
   1923c:	0b050513          	addi	a0,a0,176 # 2040b0b0 <__BSS_END__+0x203ee010>
   19240:	575010ef          	jal	ra,1afb4 <__DATA_BEGIN__+0x9f3c>
   19244:	2040b537          	lui	a0,0x2040b
   19248:	30050513          	addi	a0,a0,768 # 2040b300 <__BSS_END__+0x203ee260>
   1924c:	569010ef          	jal	ra,1afb4 <__DATA_BEGIN__+0x9f3c>
   19250:	000107a3          	sb	zero,15(sp)
   19254:	4605                	li	a2,1
   19256:	00f10593          	addi	a1,sp,15
   1925a:	4501                	li	a0,0
   1925c:	199020ef          	jal	ra,1bbf4 <__DATA_BEGIN__+0xab7c>
   19260:	d975                	beqz	a0,19254 <__DATA_BEGIN__+0x81dc>
   19262:	e17ff06f          	j	19078 <__DATA_BEGIN__+0x8000>
   19266:	40f6                	lw	ra,92(sp)
   19268:	42e6                	lw	t0,88(sp)
   1926a:	4356                	lw	t1,84(sp)
   1926c:	43c6                	lw	t2,80(sp)
   1926e:	4436                	lw	s0,76(sp)
   19270:	44a6                	lw	s1,72(sp)
   19272:	4516                	lw	a0,68(sp)
   19274:	4586                	lw	a1,64(sp)
   19276:	5672                	lw	a2,60(sp)
   19278:	56e2                	lw	a3,56(sp)
   1927a:	5752                	lw	a4,52(sp)
   1927c:	57c2                	lw	a5,48(sp)
   1927e:	5832                	lw	a6,44(sp)
   19280:	58a2                	lw	a7,40(sp)
   19282:	5e12                	lw	t3,36(sp)
   19284:	5e82                	lw	t4,32(sp)
   19286:	4f72                	lw	t5,28(sp)
   19288:	4fe2                	lw	t6,24(sp)
   1928a:	6125                	addi	sp,sp,96
   1928c:	30200073          	mret
   19290:	8626                	mv	a2,s1
   19292:	85a2                	mv	a1,s0
   19294:	2040b537          	lui	a0,0x2040b
   19298:	0e850513          	addi	a0,a0,232 # 2040b0e8 <__BSS_END__+0x203ee048>
   1929c:	519010ef          	jal	ra,1afb4 <__DATA_BEGIN__+0x9f3c>
   192a0:	b755                	j	19244 <__DATA_BEGIN__+0x81cc>
   192a2:	8626                	mv	a2,s1
   192a4:	85a2                	mv	a1,s0
   192a6:	2040b537          	lui	a0,0x2040b
   192aa:	11c50513          	addi	a0,a0,284 # 2040b11c <__BSS_END__+0x203ee07c>
   192ae:	507010ef          	jal	ra,1afb4 <__DATA_BEGIN__+0x9f3c>
   192b2:	bf49                	j	19244 <__DATA_BEGIN__+0x81cc>
   192b4:	8626                	mv	a2,s1
   192b6:	85a2                	mv	a1,s0
   192b8:	2040b537          	lui	a0,0x2040b
   192bc:	14c50513          	addi	a0,a0,332 # 2040b14c <__BSS_END__+0x203ee0ac>
   192c0:	4f5010ef          	jal	ra,1afb4 <__DATA_BEGIN__+0x9f3c>
   192c4:	b741                	j	19244 <__DATA_BEGIN__+0x81cc>
   192c6:	8626                	mv	a2,s1
   192c8:	85a2                	mv	a1,s0
   192ca:	2040b537          	lui	a0,0x2040b
   192ce:	17050513          	addi	a0,a0,368 # 2040b170 <__BSS_END__+0x203ee0d0>
   192d2:	4e3010ef          	jal	ra,1afb4 <__DATA_BEGIN__+0x9f3c>
   192d6:	0004c783          	lbu	a5,0(s1)
   192da:	8b8d                	andi	a5,a5,3
   192dc:	470d                	li	a4,3
   192de:	00e78363          	beq	a5,a4,192e4 <__DATA_BEGIN__+0x826c>
   192e2:	4409                	li	s0,2
   192e4:	9426                	add	s0,s0,s1
   192e6:	34141073          	csrw	mepc,s0
   192ea:	bfb5                	j	19266 <__DATA_BEGIN__+0x81ee>
   192ec:	8626                	mv	a2,s1
   192ee:	85a2                	mv	a1,s0
   192f0:	2040b537          	lui	a0,0x2040b
   192f4:	1a450513          	addi	a0,a0,420 # 2040b1a4 <__BSS_END__+0x203ee104>
   192f8:	4bd010ef          	jal	ra,1afb4 <__DATA_BEGIN__+0x9f3c>
   192fc:	0004c783          	lbu	a5,0(s1)
   19300:	8b8d                	andi	a5,a5,3
   19302:	470d                	li	a4,3
   19304:	00e78763          	beq	a5,a4,19312 <__DATA_BEGIN__+0x829a>
   19308:	4789                	li	a5,2
   1930a:	94be                	add	s1,s1,a5
   1930c:	34149073          	csrw	mepc,s1
   19310:	bf99                	j	19266 <__DATA_BEGIN__+0x81ee>
   19312:	4791                	li	a5,4
   19314:	bfdd                	j	1930a <__DATA_BEGIN__+0x8292>
   19316:	8626                	mv	a2,s1
   19318:	85a2                	mv	a1,s0
   1931a:	2040b537          	lui	a0,0x2040b
   1931e:	1d050513          	addi	a0,a0,464 # 2040b1d0 <__BSS_END__+0x203ee130>
   19322:	493010ef          	jal	ra,1afb4 <__DATA_BEGIN__+0x9f3c>
   19326:	0004c783          	lbu	a5,0(s1)
   1932a:	8b8d                	andi	a5,a5,3
   1932c:	470d                	li	a4,3
   1932e:	00e78763          	beq	a5,a4,1933c <__DATA_BEGIN__+0x82c4>
   19332:	4789                	li	a5,2
   19334:	94be                	add	s1,s1,a5
   19336:	34149073          	csrw	mepc,s1
   1933a:	b735                	j	19266 <__DATA_BEGIN__+0x81ee>
   1933c:	4791                	li	a5,4
   1933e:	bfdd                	j	19334 <__DATA_BEGIN__+0x82bc>
   19340:	8626                	mv	a2,s1
   19342:	85a2                	mv	a1,s0
   19344:	2040b537          	lui	a0,0x2040b
   19348:	20850513          	addi	a0,a0,520 # 2040b208 <__BSS_END__+0x203ee168>
   1934c:	469010ef          	jal	ra,1afb4 <__DATA_BEGIN__+0x9f3c>
   19350:	0004c783          	lbu	a5,0(s1)
   19354:	8b8d                	andi	a5,a5,3
   19356:	470d                	li	a4,3
   19358:	00e78763          	beq	a5,a4,19366 <__DATA_BEGIN__+0x82ee>
   1935c:	4789                	li	a5,2
   1935e:	94be                	add	s1,s1,a5
   19360:	34149073          	csrw	mepc,s1
   19364:	b709                	j	19266 <__DATA_BEGIN__+0x81ee>
   19366:	4791                	li	a5,4
   19368:	bfdd                	j	1935e <__DATA_BEGIN__+0x82e6>
   1936a:	8626                	mv	a2,s1
   1936c:	85a2                	mv	a1,s0
   1936e:	2040b537          	lui	a0,0x2040b
   19372:	23450513          	addi	a0,a0,564 # 2040b234 <__BSS_END__+0x203ee194>
   19376:	43f010ef          	jal	ra,1afb4 <__DATA_BEGIN__+0x9f3c>
   1937a:	b5e9                	j	19244 <__DATA_BEGIN__+0x81cc>
   1937c:	8626                	mv	a2,s1
   1937e:	85a2                	mv	a1,s0
   19380:	2040b537          	lui	a0,0x2040b
   19384:	26c50513          	addi	a0,a0,620 # 2040b26c <__BSS_END__+0x203ee1cc>
   19388:	42d010ef          	jal	ra,1afb4 <__DATA_BEGIN__+0x9f3c>
   1938c:	bd65                	j	19244 <__DATA_BEGIN__+0x81cc>
   1938e:	8626                	mv	a2,s1
   19390:	85a2                	mv	a1,s0
   19392:	2040b537          	lui	a0,0x2040b
   19396:	2a450513          	addi	a0,a0,676 # 2040b2a4 <__BSS_END__+0x203ee204>
   1939a:	41b010ef          	jal	ra,1afb4 <__DATA_BEGIN__+0x9f3c>
   1939e:	b55d                	j	19244 <__DATA_BEGIN__+0x81cc>
   193a0:	8626                	mv	a2,s1
   193a2:	85a2                	mv	a1,s0
   193a4:	2040b537          	lui	a0,0x2040b
   193a8:	2dc50513          	addi	a0,a0,732 # 2040b2dc <__BSS_END__+0x203ee23c>
   193ac:	409010ef          	jal	ra,1afb4 <__DATA_BEGIN__+0x9f3c>
   193b0:	bd51                	j	19244 <__DATA_BEGIN__+0x81cc>
   193b2:	711d                	addi	sp,sp,-96
   193b4:	ce86                	sw	ra,92(sp)
   193b6:	cc96                	sw	t0,88(sp)
   193b8:	ca9a                	sw	t1,84(sp)
   193ba:	c89e                	sw	t2,80(sp)
   193bc:	c6a2                	sw	s0,76(sp)
   193be:	c4aa                	sw	a0,72(sp)
   193c0:	c2ae                	sw	a1,68(sp)
   193c2:	c0b2                	sw	a2,64(sp)
   193c4:	de36                	sw	a3,60(sp)
   193c6:	dc3a                	sw	a4,56(sp)
   193c8:	da3e                	sw	a5,52(sp)
   193ca:	d842                	sw	a6,48(sp)
   193cc:	d646                	sw	a7,44(sp)
   193ce:	d472                	sw	t3,40(sp)
   193d0:	d276                	sw	t4,36(sp)
   193d2:	d07a                	sw	t5,32(sp)
   193d4:	ce7e                	sw	t6,28(sp)
   193d6:	4405                	li	s0,1
   193d8:	a011                	j	193dc <__DATA_BEGIN__+0x8364>
   193da:	0405                	addi	s0,s0,1
   193dc:	4791                	li	a5,4
   193de:	0287e663          	bltu	a5,s0,1940a <__DATA_BEGIN__+0x8392>
   193e2:	85a2                	mv	a1,s0
   193e4:	450d                	li	a0,3
   193e6:	00300073          	0x300073
   193ea:	c032                	sw	a2,0(sp)
   193ec:	c236                	sw	a3,4(sp)
   193ee:	c43a                	sw	a4,8(sp)
   193f0:	c63e                	sw	a5,12(sp)
   193f2:	d565                	beqz	a0,193da <__DATA_BEGIN__+0x8362>
   193f4:	fff40793          	addi	a5,s0,-1
   193f8:	0792                	slli	a5,a5,0x4
   193fa:	4641                	li	a2,16
   193fc:	858a                	mv	a1,sp
   193fe:	95418513          	addi	a0,gp,-1708 # 1c1f4 <__DATA_BEGIN__+0xb17c>
   19402:	953e                	add	a0,a0,a5
   19404:	144020ef          	jal	ra,1b548 <__DATA_BEGIN__+0xa4d0>
   19408:	bfc9                	j	193da <__DATA_BEGIN__+0x8362>
   1940a:	40f6                	lw	ra,92(sp)
   1940c:	42e6                	lw	t0,88(sp)
   1940e:	4356                	lw	t1,84(sp)
   19410:	43c6                	lw	t2,80(sp)
   19412:	4436                	lw	s0,76(sp)
   19414:	4526                	lw	a0,72(sp)
   19416:	4596                	lw	a1,68(sp)
   19418:	4606                	lw	a2,64(sp)
   1941a:	56f2                	lw	a3,60(sp)
   1941c:	5762                	lw	a4,56(sp)
   1941e:	57d2                	lw	a5,52(sp)
   19420:	5842                	lw	a6,48(sp)
   19422:	58b2                	lw	a7,44(sp)
   19424:	5e22                	lw	t3,40(sp)
   19426:	5e92                	lw	t4,36(sp)
   19428:	5f02                	lw	t5,32(sp)
   1942a:	4ff2                	lw	t6,28(sp)
   1942c:	6125                	addi	sp,sp,96
   1942e:	30200073          	mret
   19432:	715d                	addi	sp,sp,-80
   19434:	c686                	sw	ra,76(sp)
   19436:	c496                	sw	t0,72(sp)
   19438:	c29a                	sw	t1,68(sp)
   1943a:	c09e                	sw	t2,64(sp)
   1943c:	de22                	sw	s0,60(sp)
   1943e:	dc26                	sw	s1,56(sp)
   19440:	da2a                	sw	a0,52(sp)
   19442:	d82e                	sw	a1,48(sp)
   19444:	d632                	sw	a2,44(sp)
   19446:	d436                	sw	a3,40(sp)
   19448:	d23a                	sw	a4,36(sp)
   1944a:	d03e                	sw	a5,32(sp)
   1944c:	ce42                	sw	a6,28(sp)
   1944e:	cc46                	sw	a7,24(sp)
   19450:	ca4a                	sw	s2,20(sp)
   19452:	c872                	sw	t3,16(sp)
   19454:	c676                	sw	t4,12(sp)
   19456:	c47a                	sw	t5,8(sp)
   19458:	c27e                	sw	t6,4(sp)
   1945a:	4515                	li	a0,5
   1945c:	85aa                	mv	a1,a0
   1945e:	4521                	li	a0,8
   19460:	00300073          	0x300073
   19464:	842a                	mv	s0,a0
   19466:	4511                	li	a0,4
   19468:	85aa                	mv	a1,a0
   1946a:	4521                	li	a0,8
   1946c:	00300073          	0x300073
   19470:	84aa                	mv	s1,a0
   19472:	4519                	li	a0,6
   19474:	85aa                	mv	a1,a0
   19476:	4521                	li	a0,8
   19478:	00300073          	0x300073
   1947c:	892a                	mv	s2,a0
   1947e:	4619                	li	a2,6
   19480:	2040b5b7          	lui	a1,0x2040b
   19484:	34c58593          	addi	a1,a1,844 # 2040b34c <__BSS_END__+0x203ee2ac>
   19488:	4505                	li	a0,1
   1948a:	77a020ef          	jal	ra,1bc04 <__DATA_BEGIN__+0xab8c>
   1948e:	86ca                	mv	a3,s2
   19490:	8626                	mv	a2,s1
   19492:	85a2                	mv	a1,s0
   19494:	2040b537          	lui	a0,0x2040b
   19498:	35450513          	addi	a0,a0,852 # 2040b354 <__BSS_END__+0x203ee2b4>
   1949c:	319010ef          	jal	ra,1afb4 <__DATA_BEGIN__+0x9f3c>
   194a0:	4619                	li	a2,6
   194a2:	2040b5b7          	lui	a1,0x2040b
   194a6:	38058593          	addi	a1,a1,896 # 2040b380 <__BSS_END__+0x203ee2e0>
   194aa:	4505                	li	a0,1
   194ac:	758020ef          	jal	ra,1bc04 <__DATA_BEGIN__+0xab8c>
   194b0:	99418513          	addi	a0,gp,-1644 # 1c234 <__DATA_BEGIN__+0xb1bc>
   194b4:	40e020ef          	jal	ra,1b8c2 <__DATA_BEGIN__+0xa84a>
   194b8:	862a                	mv	a2,a0
   194ba:	99418593          	addi	a1,gp,-1644 # 1c234 <__DATA_BEGIN__+0xb1bc>
   194be:	4505                	li	a0,1
   194c0:	744020ef          	jal	ra,1bc04 <__DATA_BEGIN__+0xab8c>
   194c4:	4619                	li	a2,6
   194c6:	2040b5b7          	lui	a1,0x2040b
   194ca:	38c58593          	addi	a1,a1,908 # 2040b38c <__BSS_END__+0x203ee2ec>
   194ce:	4505                	li	a0,1
   194d0:	734020ef          	jal	ra,1bc04 <__DATA_BEGIN__+0xab8c>
   194d4:	08000793          	li	a5,128
   194d8:	3047b7f3          	csrrc	a5,mie,a5
   194dc:	40b6                	lw	ra,76(sp)
   194de:	42a6                	lw	t0,72(sp)
   194e0:	4316                	lw	t1,68(sp)
   194e2:	4386                	lw	t2,64(sp)
   194e4:	5472                	lw	s0,60(sp)
   194e6:	54e2                	lw	s1,56(sp)
   194e8:	5552                	lw	a0,52(sp)
   194ea:	55c2                	lw	a1,48(sp)
   194ec:	5632                	lw	a2,44(sp)
   194ee:	56a2                	lw	a3,40(sp)
   194f0:	5712                	lw	a4,36(sp)
   194f2:	5782                	lw	a5,32(sp)
   194f4:	4872                	lw	a6,28(sp)
   194f6:	48e2                	lw	a7,24(sp)
   194f8:	4952                	lw	s2,20(sp)
   194fa:	4e42                	lw	t3,16(sp)
   194fc:	4eb2                	lw	t4,12(sp)
   194fe:	4f22                	lw	t5,8(sp)
   19500:	4f92                	lw	t6,4(sp)
   19502:	6161                	addi	sp,sp,80
   19504:	30200073          	mret
   19508:	711d                	addi	sp,sp,-96
   1950a:	ce86                	sw	ra,92(sp)
   1950c:	cc96                	sw	t0,88(sp)
   1950e:	ca9a                	sw	t1,84(sp)
   19510:	c89e                	sw	t2,80(sp)
   19512:	c6a2                	sw	s0,76(sp)
   19514:	c4a6                	sw	s1,72(sp)
   19516:	c2aa                	sw	a0,68(sp)
   19518:	c0ae                	sw	a1,64(sp)
   1951a:	de32                	sw	a2,60(sp)
   1951c:	dc36                	sw	a3,56(sp)
   1951e:	da3a                	sw	a4,52(sp)
   19520:	d83e                	sw	a5,48(sp)
   19522:	d642                	sw	a6,44(sp)
   19524:	d446                	sw	a7,40(sp)
   19526:	d24a                	sw	s2,36(sp)
   19528:	d072                	sw	t3,32(sp)
   1952a:	ce76                	sw	t4,28(sp)
   1952c:	cc7a                	sw	t5,24(sp)
   1952e:	ca7e                	sw	t6,20(sp)
   19530:	0c2007b7          	lui	a5,0xc200
   19534:	0047a903          	lw	s2,4(a5) # c200004 <__BSS_END__+0xc1e2f64>
   19538:	4621                	li	a2,8
   1953a:	002c                	addi	a1,sp,8
   1953c:	4501                	li	a0,0
   1953e:	6b6020ef          	jal	ra,1bbf4 <__DATA_BEGIN__+0xab7c>
   19542:	02a05c63          	blez	a0,1957a <__DATA_BEGIN__+0x8502>
   19546:	842a                	mv	s0,a0
   19548:	82418793          	addi	a5,gp,-2012 # 1c0c4 <__DATA_BEGIN__+0xb04c>
   1954c:	53d8                	lw	a4,36(a5)
   1954e:	02000793          	li	a5,32
   19552:	8f99                	sub	a5,a5,a4
   19554:	00f54863          	blt	a0,a5,19564 <__DATA_BEGIN__+0x84ec>
   19558:	82418793          	addi	a5,gp,-2012 # 1c0c4 <__DATA_BEGIN__+0xb04c>
   1955c:	53c8                	lw	a0,36(a5)
   1955e:	02000413          	li	s0,32
   19562:	8c09                	sub	s0,s0,a0
   19564:	82418493          	addi	s1,gp,-2012 # 1c0c4 <__DATA_BEGIN__+0xb04c>
   19568:	50c8                	lw	a0,36(s1)
   1956a:	8622                	mv	a2,s0
   1956c:	002c                	addi	a1,sp,8
   1956e:	9526                	add	a0,a0,s1
   19570:	7d9010ef          	jal	ra,1b548 <__DATA_BEGIN__+0xa4d0>
   19574:	50c8                	lw	a0,36(s1)
   19576:	942a                	add	s0,s0,a0
   19578:	d0c0                	sw	s0,36(s1)
   1957a:	0c2007b7          	lui	a5,0xc200
   1957e:	0127a223          	sw	s2,4(a5) # c200004 <__BSS_END__+0xc1e2f64>
   19582:	40f6                	lw	ra,92(sp)
   19584:	42e6                	lw	t0,88(sp)
   19586:	4356                	lw	t1,84(sp)
   19588:	43c6                	lw	t2,80(sp)
   1958a:	4436                	lw	s0,76(sp)
   1958c:	44a6                	lw	s1,72(sp)
   1958e:	4516                	lw	a0,68(sp)
   19590:	4586                	lw	a1,64(sp)
   19592:	5672                	lw	a2,60(sp)
   19594:	56e2                	lw	a3,56(sp)
   19596:	5752                	lw	a4,52(sp)
   19598:	57c2                	lw	a5,48(sp)
   1959a:	5832                	lw	a6,44(sp)
   1959c:	58a2                	lw	a7,40(sp)
   1959e:	5912                	lw	s2,36(sp)
   195a0:	5e02                	lw	t3,32(sp)
   195a2:	4ef2                	lw	t4,28(sp)
   195a4:	4f62                	lw	t5,24(sp)
   195a6:	4fd2                	lw	t6,20(sp)
   195a8:	6125                	addi	sp,sp,96
   195aa:	30200073          	mret
   195ae:	715d                	addi	sp,sp,-80
   195b0:	c686                	sw	ra,76(sp)
   195b2:	c496                	sw	t0,72(sp)
   195b4:	c29a                	sw	t1,68(sp)
   195b6:	c09e                	sw	t2,64(sp)
   195b8:	de22                	sw	s0,60(sp)
   195ba:	dc2a                	sw	a0,56(sp)
   195bc:	da2e                	sw	a1,52(sp)
   195be:	d832                	sw	a2,48(sp)
   195c0:	d636                	sw	a3,44(sp)
   195c2:	d43a                	sw	a4,40(sp)
   195c4:	d23e                	sw	a5,36(sp)
   195c6:	d042                	sw	a6,32(sp)
   195c8:	ce46                	sw	a7,28(sp)
   195ca:	cc72                	sw	t3,24(sp)
   195cc:	ca76                	sw	t4,20(sp)
   195ce:	c87a                	sw	t5,16(sp)
   195d0:	c67e                	sw	t6,12(sp)
   195d2:	4619                	li	a2,6
   195d4:	2040b5b7          	lui	a1,0x2040b
   195d8:	34c58593          	addi	a1,a1,844 # 2040b34c <__BSS_END__+0x203ee2ac>
   195dc:	4505                	li	a0,1
   195de:	626020ef          	jal	ra,1bc04 <__DATA_BEGIN__+0xab8c>
   195e2:	2040b537          	lui	a0,0x2040b
   195e6:	39450513          	addi	a0,a0,916 # 2040b394 <__BSS_END__+0x203ee2f4>
   195ea:	1cb010ef          	jal	ra,1afb4 <__DATA_BEGIN__+0x9f3c>
   195ee:	10040437          	lui	s0,0x10040
   195f2:	442c                	lw	a1,72(s0)
   195f4:	2040b537          	lui	a0,0x2040b
   195f8:	3b050513          	addi	a0,a0,944 # 2040b3b0 <__BSS_END__+0x203ee310>
   195fc:	1b9010ef          	jal	ra,1afb4 <__DATA_BEGIN__+0x9f3c>
   19600:	446c                	lw	a1,76(s0)
   19602:	2040b537          	lui	a0,0x2040b
   19606:	3c450513          	addi	a0,a0,964 # 2040b3c4 <__BSS_END__+0x203ee324>
   1960a:	1ab010ef          	jal	ra,1afb4 <__DATA_BEGIN__+0x9f3c>
   1960e:	482c                	lw	a1,80(s0)
   19610:	2040b537          	lui	a0,0x2040b
   19614:	3d850513          	addi	a0,a0,984 # 2040b3d8 <__BSS_END__+0x203ee338>
   19618:	19d010ef          	jal	ra,1afb4 <__DATA_BEGIN__+0x9f3c>
   1961c:	4619                	li	a2,6
   1961e:	2040b5b7          	lui	a1,0x2040b
   19622:	3ec58593          	addi	a1,a1,1004 # 2040b3ec <__BSS_END__+0x203ee34c>
   19626:	4505                	li	a0,1
   19628:	5dc020ef          	jal	ra,1bc04 <__DATA_BEGIN__+0xab8c>
   1962c:	67c1                	lui	a5,0x10
   1962e:	10178793          	addi	a5,a5,257 # 10101 <_binary_multizone_bin_size+0x40dd>
   19632:	d81c                	sw	a5,48(s0)
   19634:	40b6                	lw	ra,76(sp)
   19636:	42a6                	lw	t0,72(sp)
   19638:	4316                	lw	t1,68(sp)
   1963a:	4386                	lw	t2,64(sp)
   1963c:	5472                	lw	s0,60(sp)
   1963e:	5562                	lw	a0,56(sp)
   19640:	55d2                	lw	a1,52(sp)
   19642:	5642                	lw	a2,48(sp)
   19644:	56b2                	lw	a3,44(sp)
   19646:	5722                	lw	a4,40(sp)
   19648:	5792                	lw	a5,36(sp)
   1964a:	5802                	lw	a6,32(sp)
   1964c:	48f2                	lw	a7,28(sp)
   1964e:	4e62                	lw	t3,24(sp)
   19650:	4ed2                	lw	t4,20(sp)
   19652:	4f42                	lw	t5,16(sp)
   19654:	4fb2                	lw	t6,12(sp)
   19656:	6161                	addi	sp,sp,80
   19658:	30200073          	mret
   1965c:	9541c783          	lbu	a5,-1708(gp) # 1c1f4 <__DATA_BEGIN__+0xb17c>
   19660:	0ff7f793          	andi	a5,a5,255
   19664:	eb85                	bnez	a5,19694 <__DATA_BEGIN__+0x861c>
   19666:	95418793          	addi	a5,gp,-1708 # 1c1f4 <__DATA_BEGIN__+0xb17c>
   1966a:	0107c783          	lbu	a5,16(a5)
   1966e:	0ff7f793          	andi	a5,a5,255
   19672:	e39d                	bnez	a5,19698 <__DATA_BEGIN__+0x8620>
   19674:	95418793          	addi	a5,gp,-1708 # 1c1f4 <__DATA_BEGIN__+0xb17c>
   19678:	0207c783          	lbu	a5,32(a5)
   1967c:	0ff7f793          	andi	a5,a5,255
   19680:	ef91                	bnez	a5,1969c <__DATA_BEGIN__+0x8624>
   19682:	95418793          	addi	a5,gp,-1708 # 1c1f4 <__DATA_BEGIN__+0xb17c>
   19686:	0307c783          	lbu	a5,48(a5)
   1968a:	0ff7f793          	andi	a5,a5,255
   1968e:	cb89                	beqz	a5,196a0 <__DATA_BEGIN__+0x8628>
   19690:	4501                	li	a0,0
   19692:	8082                	ret
   19694:	4501                	li	a0,0
   19696:	8082                	ret
   19698:	4501                	li	a0,0
   1969a:	8082                	ret
   1969c:	4501                	li	a0,0
   1969e:	8082                	ret
   196a0:	4505                	li	a0,1
   196a2:	8082                	ret
   196a4:	82418793          	addi	a5,gp,-2012 # 1c0c4 <__DATA_BEGIN__+0xb04c>
   196a8:	53d8                	lw	a4,36(a5)
   196aa:	539c                	lw	a5,32(a5)
   196ac:	4ce7d563          	bge	a5,a4,19b76 <__DATA_BEGIN__+0x8afe>
   196b0:	1101                	addi	sp,sp,-32
   196b2:	ce06                	sw	ra,28(sp)
   196b4:	cc22                	sw	s0,24(sp)
   196b6:	ca26                	sw	s1,20(sp)
   196b8:	c84a                	sw	s2,16(sp)
   196ba:	c64e                	sw	s3,12(sp)
   196bc:	a811                	j	196d0 <__DATA_BEGIN__+0x8658>
   196be:	4705                	li	a4,1
   196c0:	80e1a823          	sw	a4,-2032(gp) # 1c0b0 <__DATA_BEGIN__+0xb038>
   196c4:	82418793          	addi	a5,gp,-2012 # 1c0c4 <__DATA_BEGIN__+0xb04c>
   196c8:	53d8                	lw	a4,36(a5)
   196ca:	539c                	lw	a5,32(a5)
   196cc:	48e7dd63          	bge	a5,a4,19b66 <__DATA_BEGIN__+0x8aee>
   196d0:	300477f3          	csrrci	a5,mstatus,8
   196d4:	82418793          	addi	a5,gp,-2012 # 1c0c4 <__DATA_BEGIN__+0xb04c>
   196d8:	5398                	lw	a4,32(a5)
   196da:	00170693          	addi	a3,a4,1
   196de:	d394                	sw	a3,32(a5)
   196e0:	973e                	add	a4,a4,a5
   196e2:	00074703          	lbu	a4,0(a4)
   196e6:	0ff77713          	andi	a4,a4,255
   196ea:	5394                	lw	a3,32(a5)
   196ec:	53dc                	lw	a5,36(a5)
   196ee:	00f6c863          	blt	a3,a5,196fe <__DATA_BEGIN__+0x8686>
   196f2:	82418793          	addi	a5,gp,-2012 # 1c0c4 <__DATA_BEGIN__+0xb04c>
   196f6:	0207a023          	sw	zero,32(a5)
   196fa:	0207a223          	sw	zero,36(a5)
   196fe:	300467f3          	csrrsi	a5,mstatus,8
   19702:	47ed                	li	a5,27
   19704:	faf70de3          	beq	a4,a5,196be <__DATA_BEGIN__+0x8646>
   19708:	8101a783          	lw	a5,-2032(gp) # 1c0b0 <__DATA_BEGIN__+0xb038>
   1970c:	4685                	li	a3,1
   1970e:	06d78063          	beq	a5,a3,1976e <__DATA_BEGIN__+0x86f6>
   19712:	4689                	li	a3,2
   19714:	06d78563          	beq	a5,a3,1977e <__DATA_BEGIN__+0x8706>
   19718:	468d                	li	a3,3
   1971a:	06d78a63          	beq	a5,a3,1978e <__DATA_BEGIN__+0x8716>
   1971e:	4689                	li	a3,2
   19720:	0ed78a63          	beq	a5,a3,19814 <__DATA_BEGIN__+0x879c>
   19724:	4689                	li	a3,2
   19726:	12d78163          	beq	a5,a3,19848 <__DATA_BEGIN__+0x87d0>
   1972a:	4689                	li	a3,2
   1972c:	14d78463          	beq	a5,a3,19874 <__DATA_BEGIN__+0x87fc>
   19730:	4689                	li	a3,2
   19732:	1cd78363          	beq	a5,a3,198f8 <__DATA_BEGIN__+0x8880>
   19736:	46a1                	li	a3,8
   19738:	24d70163          	beq	a4,a3,1997a <__DATA_BEGIN__+0x8902>
   1973c:	07f00693          	li	a3,127
   19740:	22d70d63          	beq	a4,a3,1997a <__DATA_BEGIN__+0x8902>
   19744:	fe070693          	addi	a3,a4,-32
   19748:	0ff6f693          	andi	a3,a3,255
   1974c:	05e00613          	li	a2,94
   19750:	00d66963          	bltu	a2,a3,19762 <__DATA_BEGIN__+0x86ea>
   19754:	8141a603          	lw	a2,-2028(gp) # 1c0b4 <__DATA_BEGIN__+0xb03c>
   19758:	46fd                	li	a3,31
   1975a:	00c6e463          	bltu	a3,a2,19762 <__DATA_BEGIN__+0x86ea>
   1975e:	34078063          	beqz	a5,19a9e <__DATA_BEGIN__+0x8a26>
   19762:	47b5                	li	a5,13
   19764:	32f70f63          	beq	a4,a5,19aa2 <__DATA_BEGIN__+0x8a2a>
   19768:	8001a823          	sw	zero,-2032(gp) # 1c0b0 <__DATA_BEGIN__+0xb038>
   1976c:	bfa1                	j	196c4 <__DATA_BEGIN__+0x864c>
   1976e:	05b00693          	li	a3,91
   19772:	fad710e3          	bne	a4,a3,19712 <__DATA_BEGIN__+0x869a>
   19776:	4709                	li	a4,2
   19778:	80e1a823          	sw	a4,-2032(gp) # 1c0b0 <__DATA_BEGIN__+0xb038>
   1977c:	b7a1                	j	196c4 <__DATA_BEGIN__+0x864c>
   1977e:	03300693          	li	a3,51
   19782:	f8d71be3          	bne	a4,a3,19718 <__DATA_BEGIN__+0x86a0>
   19786:	470d                	li	a4,3
   19788:	80e1a823          	sw	a4,-2032(gp) # 1c0b0 <__DATA_BEGIN__+0xb038>
   1978c:	bf25                	j	196c4 <__DATA_BEGIN__+0x864c>
   1978e:	07e00693          	li	a3,126
   19792:	f8d716e3          	bne	a4,a3,1971e <__DATA_BEGIN__+0x86a6>
   19796:	8141a403          	lw	s0,-2028(gp) # 1c0b4 <__DATA_BEGIN__+0xb03c>
   1979a:	a829                	j	197b4 <__DATA_BEGIN__+0x873c>
   1979c:	00140713          	addi	a4,s0,1 # 10040001 <__BSS_END__+0x10022f61>
   197a0:	99418793          	addi	a5,gp,-1644 # 1c234 <__DATA_BEGIN__+0xb1bc>
   197a4:	00e786b3          	add	a3,a5,a4
   197a8:	0006c683          	lbu	a3,0(a3) # 40000000 <__BSS_END__+0x3ffe2f60>
   197ac:	97a2                	add	a5,a5,s0
   197ae:	00d78023          	sb	a3,0(a5)
   197b2:	843a                	mv	s0,a4
   197b4:	99418513          	addi	a0,gp,-1644 # 1c234 <__DATA_BEGIN__+0xb1bc>
   197b8:	10a020ef          	jal	ra,1b8c2 <__DATA_BEGIN__+0xa84a>
   197bc:	fea460e3          	bltu	s0,a0,1979c <__DATA_BEGIN__+0x8724>
   197c0:	4609                	li	a2,2
   197c2:	2040b5b7          	lui	a1,0x2040b
   197c6:	3f458593          	addi	a1,a1,1012 # 2040b3f4 <__BSS_END__+0x203ee354>
   197ca:	4505                	li	a0,1
   197cc:	438020ef          	jal	ra,1bc04 <__DATA_BEGIN__+0xab8c>
   197d0:	460d                	li	a2,3
   197d2:	2040b5b7          	lui	a1,0x2040b
   197d6:	3f858593          	addi	a1,a1,1016 # 2040b3f8 <__BSS_END__+0x203ee358>
   197da:	4505                	li	a0,1
   197dc:	428020ef          	jal	ra,1bc04 <__DATA_BEGIN__+0xab8c>
   197e0:	8141a483          	lw	s1,-2028(gp) # 1c0b4 <__DATA_BEGIN__+0xb03c>
   197e4:	99418413          	addi	s0,gp,-1644 # 1c234 <__DATA_BEGIN__+0xb1bc>
   197e8:	9426                	add	s0,s0,s1
   197ea:	99418513          	addi	a0,gp,-1644 # 1c234 <__DATA_BEGIN__+0xb1bc>
   197ee:	0d4020ef          	jal	ra,1b8c2 <__DATA_BEGIN__+0xa84a>
   197f2:	40950633          	sub	a2,a0,s1
   197f6:	85a2                	mv	a1,s0
   197f8:	4505                	li	a0,1
   197fa:	40a020ef          	jal	ra,1bc04 <__DATA_BEGIN__+0xab8c>
   197fe:	4609                	li	a2,2
   19800:	2040b5b7          	lui	a1,0x2040b
   19804:	3fc58593          	addi	a1,a1,1020 # 2040b3fc <__BSS_END__+0x203ee35c>
   19808:	4505                	li	a0,1
   1980a:	3fa020ef          	jal	ra,1bc04 <__DATA_BEGIN__+0xab8c>
   1980e:	8001a823          	sw	zero,-2032(gp) # 1c0b0 <__DATA_BEGIN__+0xb038>
   19812:	bd4d                	j	196c4 <__DATA_BEGIN__+0x864c>
   19814:	04300693          	li	a3,67
   19818:	f0d716e3          	bne	a4,a3,19724 <__DATA_BEGIN__+0x86ac>
   1981c:	8001a823          	sw	zero,-2032(gp) # 1c0b0 <__DATA_BEGIN__+0xb038>
   19820:	99418513          	addi	a0,gp,-1644 # 1c234 <__DATA_BEGIN__+0xb1bc>
   19824:	09e020ef          	jal	ra,1b8c2 <__DATA_BEGIN__+0xa84a>
   19828:	8141a783          	lw	a5,-2028(gp) # 1c0b4 <__DATA_BEGIN__+0xb03c>
   1982c:	e8a7fce3          	bgeu	a5,a0,196c4 <__DATA_BEGIN__+0x864c>
   19830:	0785                	addi	a5,a5,1
   19832:	80f1aa23          	sw	a5,-2028(gp) # 1c0b4 <__DATA_BEGIN__+0xb03c>
   19836:	460d                	li	a2,3
   19838:	2040b5b7          	lui	a1,0x2040b
   1983c:	40058593          	addi	a1,a1,1024 # 2040b400 <__BSS_END__+0x203ee360>
   19840:	4505                	li	a0,1
   19842:	3c2020ef          	jal	ra,1bc04 <__DATA_BEGIN__+0xab8c>
   19846:	bdbd                	j	196c4 <__DATA_BEGIN__+0x864c>
   19848:	04400693          	li	a3,68
   1984c:	ecd71fe3          	bne	a4,a3,1972a <__DATA_BEGIN__+0x86b2>
   19850:	8001a823          	sw	zero,-2032(gp) # 1c0b0 <__DATA_BEGIN__+0xb038>
   19854:	8141a783          	lw	a5,-2028(gp) # 1c0b4 <__DATA_BEGIN__+0xb03c>
   19858:	e60786e3          	beqz	a5,196c4 <__DATA_BEGIN__+0x864c>
   1985c:	17fd                	addi	a5,a5,-1
   1985e:	80f1aa23          	sw	a5,-2028(gp) # 1c0b4 <__DATA_BEGIN__+0xb03c>
   19862:	460d                	li	a2,3
   19864:	2040b5b7          	lui	a1,0x2040b
   19868:	40458593          	addi	a1,a1,1028 # 2040b404 <__BSS_END__+0x203ee364>
   1986c:	4505                	li	a0,1
   1986e:	396020ef          	jal	ra,1bc04 <__DATA_BEGIN__+0xab8c>
   19872:	bd89                	j	196c4 <__DATA_BEGIN__+0x864c>
   19874:	04100693          	li	a3,65
   19878:	ead71ce3          	bne	a4,a3,19730 <__DATA_BEGIN__+0x86b8>
   1987c:	8001a823          	sw	zero,-2032(gp) # 1c0b0 <__DATA_BEGIN__+0xb038>
   19880:	800037b7          	lui	a5,0x80003
   19884:	0647a783          	lw	a5,100(a5) # ffffffff80003064 <__BSS_END__+0xffffffff7ffe5fc4>
   19888:	4719                	li	a4,6
   1988a:	e2f74de3          	blt	a4,a5,196c4 <__DATA_BEGIN__+0x864c>
   1988e:	0785                	addi	a5,a5,1
   19890:	00579593          	slli	a1,a5,0x5
   19894:	00f58733          	add	a4,a1,a5
   19898:	84c18593          	addi	a1,gp,-1972 # 1c0ec <__DATA_BEGIN__+0xb074>
   1989c:	95ba                	add	a1,a1,a4
   1989e:	0005c703          	lbu	a4,0(a1)
   198a2:	e20701e3          	beqz	a4,196c4 <__DATA_BEGIN__+0x864c>
   198a6:	80003737          	lui	a4,0x80003
   198aa:	06f72223          	sw	a5,100(a4) # ffffffff80003064 <__BSS_END__+0xffffffff7ffe5fc4>
   198ae:	99418513          	addi	a0,gp,-1644 # 1c234 <__DATA_BEGIN__+0xb1bc>
   198b2:	7ff010ef          	jal	ra,1b8b0 <__DATA_BEGIN__+0xa838>
   198b6:	4611                	li	a2,4
   198b8:	2040b5b7          	lui	a1,0x2040b
   198bc:	40858593          	addi	a1,a1,1032 # 2040b408 <__BSS_END__+0x203ee368>
   198c0:	4505                	li	a0,1
   198c2:	342020ef          	jal	ra,1bc04 <__DATA_BEGIN__+0xab8c>
   198c6:	4619                	li	a2,6
   198c8:	2040b5b7          	lui	a1,0x2040b
   198cc:	41058593          	addi	a1,a1,1040 # 2040b410 <__BSS_END__+0x203ee370>
   198d0:	4505                	li	a0,1
   198d2:	332020ef          	jal	ra,1bc04 <__DATA_BEGIN__+0xab8c>
   198d6:	99418513          	addi	a0,gp,-1644 # 1c234 <__DATA_BEGIN__+0xb1bc>
   198da:	7e9010ef          	jal	ra,1b8c2 <__DATA_BEGIN__+0xa84a>
   198de:	862a                	mv	a2,a0
   198e0:	99418593          	addi	a1,gp,-1644 # 1c234 <__DATA_BEGIN__+0xb1bc>
   198e4:	4505                	li	a0,1
   198e6:	31e020ef          	jal	ra,1bc04 <__DATA_BEGIN__+0xab8c>
   198ea:	99418513          	addi	a0,gp,-1644 # 1c234 <__DATA_BEGIN__+0xb1bc>
   198ee:	7d5010ef          	jal	ra,1b8c2 <__DATA_BEGIN__+0xa84a>
   198f2:	80a1aa23          	sw	a0,-2028(gp) # 1c0b4 <__DATA_BEGIN__+0xb03c>
   198f6:	b3f9                	j	196c4 <__DATA_BEGIN__+0x864c>
   198f8:	04200693          	li	a3,66
   198fc:	e2d71de3          	bne	a4,a3,19736 <__DATA_BEGIN__+0x86be>
   19900:	8001a823          	sw	zero,-2032(gp) # 1c0b0 <__DATA_BEGIN__+0xb038>
   19904:	800037b7          	lui	a5,0x80003
   19908:	0647a783          	lw	a5,100(a5) # ffffffff80003064 <__BSS_END__+0xffffffff7ffe5fc4>
   1990c:	daf05ce3          	blez	a5,196c4 <__DATA_BEGIN__+0x864c>
   19910:	17fd                	addi	a5,a5,-1
   19912:	00579593          	slli	a1,a5,0x5
   19916:	00f58733          	add	a4,a1,a5
   1991a:	84c18593          	addi	a1,gp,-1972 # 1c0ec <__DATA_BEGIN__+0xb074>
   1991e:	95ba                	add	a1,a1,a4
   19920:	0005c703          	lbu	a4,0(a1)
   19924:	da0700e3          	beqz	a4,196c4 <__DATA_BEGIN__+0x864c>
   19928:	80003737          	lui	a4,0x80003
   1992c:	06f72223          	sw	a5,100(a4) # ffffffff80003064 <__BSS_END__+0xffffffff7ffe5fc4>
   19930:	99418513          	addi	a0,gp,-1644 # 1c234 <__DATA_BEGIN__+0xb1bc>
   19934:	77d010ef          	jal	ra,1b8b0 <__DATA_BEGIN__+0xa838>
   19938:	4611                	li	a2,4
   1993a:	2040b5b7          	lui	a1,0x2040b
   1993e:	40858593          	addi	a1,a1,1032 # 2040b408 <__BSS_END__+0x203ee368>
   19942:	4505                	li	a0,1
   19944:	2c0020ef          	jal	ra,1bc04 <__DATA_BEGIN__+0xab8c>
   19948:	4619                	li	a2,6
   1994a:	2040b5b7          	lui	a1,0x2040b
   1994e:	41058593          	addi	a1,a1,1040 # 2040b410 <__BSS_END__+0x203ee370>
   19952:	4505                	li	a0,1
   19954:	2b0020ef          	jal	ra,1bc04 <__DATA_BEGIN__+0xab8c>
   19958:	99418513          	addi	a0,gp,-1644 # 1c234 <__DATA_BEGIN__+0xb1bc>
   1995c:	767010ef          	jal	ra,1b8c2 <__DATA_BEGIN__+0xa84a>
   19960:	862a                	mv	a2,a0
   19962:	99418593          	addi	a1,gp,-1644 # 1c234 <__DATA_BEGIN__+0xb1bc>
   19966:	4505                	li	a0,1
   19968:	29c020ef          	jal	ra,1bc04 <__DATA_BEGIN__+0xab8c>
   1996c:	99418513          	addi	a0,gp,-1644 # 1c234 <__DATA_BEGIN__+0xb1bc>
   19970:	753010ef          	jal	ra,1b8c2 <__DATA_BEGIN__+0xa84a>
   19974:	80a1aa23          	sw	a0,-2028(gp) # 1c0b4 <__DATA_BEGIN__+0xb03c>
   19978:	b3b1                	j	196c4 <__DATA_BEGIN__+0x864c>
   1997a:	8141a403          	lw	s0,-2028(gp) # 1c0b4 <__DATA_BEGIN__+0xb03c>
   1997e:	dc0403e3          	beqz	s0,19744 <__DATA_BEGIN__+0x86cc>
   19982:	dc0791e3          	bnez	a5,19744 <__DATA_BEGIN__+0x86cc>
   19986:	147d                	addi	s0,s0,-1
   19988:	8081aa23          	sw	s0,-2028(gp) # 1c0b4 <__DATA_BEGIN__+0xb03c>
   1998c:	a829                	j	199a6 <__DATA_BEGIN__+0x892e>
   1998e:	00140713          	addi	a4,s0,1
   19992:	99418793          	addi	a5,gp,-1644 # 1c234 <__DATA_BEGIN__+0xb1bc>
   19996:	00e786b3          	add	a3,a5,a4
   1999a:	0006c683          	lbu	a3,0(a3)
   1999e:	97a2                	add	a5,a5,s0
   199a0:	00d78023          	sb	a3,0(a5)
   199a4:	843a                	mv	s0,a4
   199a6:	99418513          	addi	a0,gp,-1644 # 1c234 <__DATA_BEGIN__+0xb1bc>
   199aa:	719010ef          	jal	ra,1b8c2 <__DATA_BEGIN__+0xa84a>
   199ae:	fea460e3          	bltu	s0,a0,1998e <__DATA_BEGIN__+0x8916>
   199b2:	460d                	li	a2,3
   199b4:	2040b5b7          	lui	a1,0x2040b
   199b8:	40458593          	addi	a1,a1,1028 # 2040b404 <__BSS_END__+0x203ee364>
   199bc:	4505                	li	a0,1
   199be:	246020ef          	jal	ra,1bc04 <__DATA_BEGIN__+0xab8c>
   199c2:	4609                	li	a2,2
   199c4:	2040b5b7          	lui	a1,0x2040b
   199c8:	3f458593          	addi	a1,a1,1012 # 2040b3f4 <__BSS_END__+0x203ee354>
   199cc:	4505                	li	a0,1
   199ce:	236020ef          	jal	ra,1bc04 <__DATA_BEGIN__+0xab8c>
   199d2:	460d                	li	a2,3
   199d4:	2040b5b7          	lui	a1,0x2040b
   199d8:	3f858593          	addi	a1,a1,1016 # 2040b3f8 <__BSS_END__+0x203ee358>
   199dc:	4505                	li	a0,1
   199de:	226020ef          	jal	ra,1bc04 <__DATA_BEGIN__+0xab8c>
   199e2:	8141a483          	lw	s1,-2028(gp) # 1c0b4 <__DATA_BEGIN__+0xb03c>
   199e6:	99418413          	addi	s0,gp,-1644 # 1c234 <__DATA_BEGIN__+0xb1bc>
   199ea:	9426                	add	s0,s0,s1
   199ec:	99418513          	addi	a0,gp,-1644 # 1c234 <__DATA_BEGIN__+0xb1bc>
   199f0:	6d3010ef          	jal	ra,1b8c2 <__DATA_BEGIN__+0xa84a>
   199f4:	40950633          	sub	a2,a0,s1
   199f8:	85a2                	mv	a1,s0
   199fa:	4505                	li	a0,1
   199fc:	208020ef          	jal	ra,1bc04 <__DATA_BEGIN__+0xab8c>
   19a00:	4609                	li	a2,2
   19a02:	2040b5b7          	lui	a1,0x2040b
   19a06:	3fc58593          	addi	a1,a1,1020 # 2040b3fc <__BSS_END__+0x203ee35c>
   19a0a:	4505                	li	a0,1
   19a0c:	1f8020ef          	jal	ra,1bc04 <__DATA_BEGIN__+0xab8c>
   19a10:	b955                	j	196c4 <__DATA_BEGIN__+0x864c>
   19a12:	fff68593          	addi	a1,a3,-1
   19a16:	99418793          	addi	a5,gp,-1644 # 1c234 <__DATA_BEGIN__+0xb1bc>
   19a1a:	00b78533          	add	a0,a5,a1
   19a1e:	00054503          	lbu	a0,0(a0)
   19a22:	97b6                	add	a5,a5,a3
   19a24:	00a78023          	sb	a0,0(a5)
   19a28:	86ae                	mv	a3,a1
   19a2a:	fed664e3          	bltu	a2,a3,19a12 <__DATA_BEGIN__+0x899a>
   19a2e:	99418493          	addi	s1,gp,-1644 # 1c234 <__DATA_BEGIN__+0xb1bc>
   19a32:	9626                	add	a2,a2,s1
   19a34:	00e60023          	sb	a4,0(a2)
   19a38:	4609                	li	a2,2
   19a3a:	2040b5b7          	lui	a1,0x2040b
   19a3e:	3f458593          	addi	a1,a1,1012 # 2040b3f4 <__BSS_END__+0x203ee354>
   19a42:	4505                	li	a0,1
   19a44:	1c0020ef          	jal	ra,1bc04 <__DATA_BEGIN__+0xab8c>
   19a48:	460d                	li	a2,3
   19a4a:	2040b5b7          	lui	a1,0x2040b
   19a4e:	3f858593          	addi	a1,a1,1016 # 2040b3f8 <__BSS_END__+0x203ee358>
   19a52:	4505                	li	a0,1
   19a54:	1b0020ef          	jal	ra,1bc04 <__DATA_BEGIN__+0xab8c>
   19a58:	81418413          	addi	s0,gp,-2028 # 1c0b4 <__DATA_BEGIN__+0xb03c>
   19a5c:	00042903          	lw	s2,0(s0)
   19a60:	94ca                	add	s1,s1,s2
   19a62:	99418513          	addi	a0,gp,-1644 # 1c234 <__DATA_BEGIN__+0xb1bc>
   19a66:	65d010ef          	jal	ra,1b8c2 <__DATA_BEGIN__+0xa84a>
   19a6a:	41250633          	sub	a2,a0,s2
   19a6e:	85a6                	mv	a1,s1
   19a70:	4505                	li	a0,1
   19a72:	192020ef          	jal	ra,1bc04 <__DATA_BEGIN__+0xab8c>
   19a76:	401c                	lw	a5,0(s0)
   19a78:	0785                	addi	a5,a5,1
   19a7a:	c01c                	sw	a5,0(s0)
   19a7c:	4609                	li	a2,2
   19a7e:	2040b5b7          	lui	a1,0x2040b
   19a82:	3fc58593          	addi	a1,a1,1020 # 2040b3fc <__BSS_END__+0x203ee35c>
   19a86:	4505                	li	a0,1
   19a88:	17c020ef          	jal	ra,1bc04 <__DATA_BEGIN__+0xab8c>
   19a8c:	460d                	li	a2,3
   19a8e:	2040b5b7          	lui	a1,0x2040b
   19a92:	40058593          	addi	a1,a1,1024 # 2040b400 <__BSS_END__+0x203ee360>
   19a96:	4505                	li	a0,1
   19a98:	16c020ef          	jal	ra,1bc04 <__DATA_BEGIN__+0xab8c>
   19a9c:	b125                	j	196c4 <__DATA_BEGIN__+0x864c>
   19a9e:	46fd                	li	a3,31
   19aa0:	b769                	j	19a2a <__DATA_BEGIN__+0x89b2>
   19aa2:	8001aa23          	sw	zero,-2028(gp) # 1c0b4 <__DATA_BEGIN__+0xb03c>
   19aa6:	8001a823          	sw	zero,-2032(gp) # 1c0b0 <__DATA_BEGIN__+0xb038>
   19aaa:	a031                	j	19ab6 <__DATA_BEGIN__+0x8a3e>
   19aac:	99418513          	addi	a0,gp,-1644 # 1c234 <__DATA_BEGIN__+0xb1bc>
   19ab0:	953e                	add	a0,a0,a5
   19ab2:	00050023          	sb	zero,0(a0)
   19ab6:	99418413          	addi	s0,gp,-1644 # 1c234 <__DATA_BEGIN__+0xb1bc>
   19aba:	99418513          	addi	a0,gp,-1644 # 1c234 <__DATA_BEGIN__+0xb1bc>
   19abe:	605010ef          	jal	ra,1b8c2 <__DATA_BEGIN__+0xa84a>
   19ac2:	fff50793          	addi	a5,a0,-1
   19ac6:	943e                	add	s0,s0,a5
   19ac8:	00044683          	lbu	a3,0(s0)
   19acc:	02000713          	li	a4,32
   19ad0:	fce68ee3          	beq	a3,a4,19aac <__DATA_BEGIN__+0x8a34>
   19ad4:	9941c783          	lbu	a5,-1644(gp) # 1c234 <__DATA_BEGIN__+0xb1bc>
   19ad8:	02000713          	li	a4,32
   19adc:	02e79663          	bne	a5,a4,19b08 <__DATA_BEGIN__+0x8a90>
   19ae0:	4401                	li	s0,0
   19ae2:	99418513          	addi	a0,gp,-1644 # 1c234 <__DATA_BEGIN__+0xb1bc>
   19ae6:	5dd010ef          	jal	ra,1b8c2 <__DATA_BEGIN__+0xa84a>
   19aea:	fea475e3          	bgeu	s0,a0,19ad4 <__DATA_BEGIN__+0x8a5c>
   19aee:	00140713          	addi	a4,s0,1
   19af2:	99418793          	addi	a5,gp,-1644 # 1c234 <__DATA_BEGIN__+0xb1bc>
   19af6:	00e786b3          	add	a3,a5,a4
   19afa:	0006c683          	lbu	a3,0(a3)
   19afe:	97a2                	add	a5,a5,s0
   19b00:	00d78023          	sb	a3,0(a5)
   19b04:	843a                	mv	s0,a4
   19b06:	bff1                	j	19ae2 <__DATA_BEGIN__+0x8a6a>
   19b08:	cb81                	beqz	a5,19b18 <__DATA_BEGIN__+0x8aa0>
   19b0a:	84c18593          	addi	a1,gp,-1972 # 1c0ec <__DATA_BEGIN__+0xb074>
   19b0e:	99418513          	addi	a0,gp,-1644 # 1c234 <__DATA_BEGIN__+0xb1bc>
   19b12:	587010ef          	jal	ra,1b898 <__DATA_BEGIN__+0xa820>
   19b16:	e531                	bnez	a0,19b62 <__DATA_BEGIN__+0x8aea>
   19b18:	800037b7          	lui	a5,0x80003
   19b1c:	577d                	li	a4,-1
   19b1e:	06e7a223          	sw	a4,100(a5) # ffffffff80003064 <__BSS_END__+0xffffffff7ffe5fc4>
   19b22:	4605                	li	a2,1
   19b24:	2040c5b7          	lui	a1,0x2040c
   19b28:	c1058593          	addi	a1,a1,-1008 # 2040bc10 <__BSS_END__+0x203eeb70>
   19b2c:	4505                	li	a0,1
   19b2e:	0d6020ef          	jal	ra,1bc04 <__DATA_BEGIN__+0xab8c>
   19b32:	4505                	li	a0,1
   19b34:	a815                	j	19b68 <__DATA_BEGIN__+0x8af0>
   19b36:	84c18793          	addi	a5,gp,-1972 # 1c0ec <__DATA_BEGIN__+0xb074>
   19b3a:	00541513          	slli	a0,s0,0x5
   19b3e:	9522                	add	a0,a0,s0
   19b40:	147d                	addi	s0,s0,-1
   19b42:	00541593          	slli	a1,s0,0x5
   19b46:	95a2                	add	a1,a1,s0
   19b48:	95be                	add	a1,a1,a5
   19b4a:	953e                	add	a0,a0,a5
   19b4c:	565010ef          	jal	ra,1b8b0 <__DATA_BEGIN__+0xa838>
   19b50:	fe8043e3          	bgtz	s0,19b36 <__DATA_BEGIN__+0x8abe>
   19b54:	99418593          	addi	a1,gp,-1644 # 1c234 <__DATA_BEGIN__+0xb1bc>
   19b58:	84c18513          	addi	a0,gp,-1972 # 1c0ec <__DATA_BEGIN__+0xb074>
   19b5c:	555010ef          	jal	ra,1b8b0 <__DATA_BEGIN__+0xa838>
   19b60:	bf65                	j	19b18 <__DATA_BEGIN__+0x8aa0>
   19b62:	441d                	li	s0,7
   19b64:	b7f5                	j	19b50 <__DATA_BEGIN__+0x8ad8>
   19b66:	4501                	li	a0,0
   19b68:	40f2                	lw	ra,28(sp)
   19b6a:	4462                	lw	s0,24(sp)
   19b6c:	44d2                	lw	s1,20(sp)
   19b6e:	4942                	lw	s2,16(sp)
   19b70:	49b2                	lw	s3,12(sp)
   19b72:	6105                	addi	sp,sp,32
   19b74:	8082                	ret
   19b76:	4501                	li	a0,0
   19b78:	8082                	ret
   19b7a:	7179                	addi	sp,sp,-48
   19b7c:	d606                	sw	ra,44(sp)
   19b7e:	d422                	sw	s0,40(sp)
   19b80:	301025f3          	csrr	a1,misa
   19b84:	01e5d793          	srli	a5,a1,0x1e
   19b88:	4705                	li	a4,1
   19b8a:	02e78663          	beq	a5,a4,19bb6 <__DATA_BEGIN__+0x8b3e>
   19b8e:	4709                	li	a4,2
   19b90:	02e78063          	beq	a5,a4,19bb0 <__DATA_BEGIN__+0x8b38>
   19b94:	4601                	li	a2,0
   19b96:	c202                	sw	zero,4(sp)
   19b98:	c402                	sw	zero,8(sp)
   19b9a:	c602                	sw	zero,12(sp)
   19b9c:	c802                	sw	zero,16(sp)
   19b9e:	ca02                	sw	zero,20(sp)
   19ba0:	cc02                	sw	zero,24(sp)
   19ba2:	00011e23          	sh	zero,28(sp)
   19ba6:	00010f23          	sb	zero,30(sp)
   19baa:	4681                	li	a3,0
   19bac:	4781                	li	a5,0
   19bae:	a801                	j	19bbe <__DATA_BEGIN__+0x8b46>
   19bb0:	04000613          	li	a2,64
   19bb4:	b7cd                	j	19b96 <__DATA_BEGIN__+0x8b1e>
   19bb6:	02000613          	li	a2,32
   19bba:	bff1                	j	19b96 <__DATA_BEGIN__+0x8b1e>
   19bbc:	0785                	addi	a5,a5,1
   19bbe:	4765                	li	a4,25
   19bc0:	02f74463          	blt	a4,a5,19be8 <__DATA_BEGIN__+0x8b70>
   19bc4:	00f5d733          	srl	a4,a1,a5
   19bc8:	8b05                	andi	a4,a4,1
   19bca:	db6d                	beqz	a4,19bbc <__DATA_BEGIN__+0x8b44>
   19bcc:	00168513          	addi	a0,a3,1
   19bd0:	04178713          	addi	a4,a5,65
   19bd4:	1000                	addi	s0,sp,32
   19bd6:	96a2                	add	a3,a3,s0
   19bd8:	fee68223          	sb	a4,-28(a3)
   19bdc:	00a40733          	add	a4,s0,a0
   19be0:	fe070223          	sb	zero,-28(a4)
   19be4:	86aa                	mv	a3,a0
   19be6:	bfd9                	j	19bbc <__DATA_BEGIN__+0x8b44>
   19be8:	0054                	addi	a3,sp,4
   19bea:	2040b537          	lui	a0,0x2040b
   19bee:	48450513          	addi	a0,a0,1156 # 2040b484 <__BSS_END__+0x203ee3e4>
   19bf2:	3c2010ef          	jal	ra,1afb4 <__DATA_BEGIN__+0x9f3c>
   19bf6:	f1102473          	csrr	s0,mvendorid
   19bfa:	48900793          	li	a5,1161
   19bfe:	02f40463          	beq	s0,a5,19c26 <__DATA_BEGIN__+0x8bae>
   19c02:	31e00793          	li	a5,798
   19c06:	10f40063          	beq	s0,a5,19d06 <__DATA_BEGIN__+0x8c8e>
   19c0a:	57c00793          	li	a5,1404
   19c0e:	00f40763          	beq	s0,a5,19c1c <__DATA_BEGIN__+0x8ba4>
   19c12:	2040c637          	lui	a2,0x2040c
   19c16:	92c60613          	addi	a2,a2,-1748 # 2040b92c <__BSS_END__+0x203ee88c>
   19c1a:	a811                	j	19c2e <__DATA_BEGIN__+0x8bb6>
   19c1c:	2040b637          	lui	a2,0x2040b
   19c20:	43c60613          	addi	a2,a2,1084 # 2040b43c <__BSS_END__+0x203ee39c>
   19c24:	a029                	j	19c2e <__DATA_BEGIN__+0x8bb6>
   19c26:	2040b637          	lui	a2,0x2040b
   19c2a:	41860613          	addi	a2,a2,1048 # 2040b418 <__BSS_END__+0x203ee378>
   19c2e:	85a2                	mv	a1,s0
   19c30:	2040b537          	lui	a0,0x2040b
   19c34:	4a850513          	addi	a0,a0,1192 # 2040b4a8 <__BSS_END__+0x203ee408>
   19c38:	37c010ef          	jal	ra,1afb4 <__DATA_BEGIN__+0x9f3c>
   19c3c:	f12025f3          	csrr	a1,marchid
   19c40:	48900793          	li	a5,1161
   19c44:	0cf40663          	beq	s0,a5,19d10 <__DATA_BEGIN__+0x8c98>
   19c48:	48900793          	li	a5,1161
   19c4c:	0cf40c63          	beq	s0,a5,19d24 <__DATA_BEGIN__+0x8cac>
   19c50:	57c00793          	li	a5,1404
   19c54:	0ef40063          	beq	s0,a5,19d34 <__DATA_BEGIN__+0x8cbc>
   19c58:	31e00793          	li	a5,798
   19c5c:	0ef40463          	beq	s0,a5,19d44 <__DATA_BEGIN__+0x8ccc>
   19c60:	2040c637          	lui	a2,0x2040c
   19c64:	92c60613          	addi	a2,a2,-1748 # 2040b92c <__BSS_END__+0x203ee88c>
   19c68:	2040b537          	lui	a0,0x2040b
   19c6c:	4c450513          	addi	a0,a0,1220 # 2040b4c4 <__BSS_END__+0x203ee424>
   19c70:	344010ef          	jal	ra,1afb4 <__DATA_BEGIN__+0x9f3c>
   19c74:	f13025f3          	csrr	a1,mimpid
   19c78:	2040b537          	lui	a0,0x2040b
   19c7c:	4e050513          	addi	a0,a0,1248 # 2040b4e0 <__BSS_END__+0x203ee440>
   19c80:	334010ef          	jal	ra,1afb4 <__DATA_BEGIN__+0x9f3c>
   19c84:	f14025f3          	csrr	a1,mhartid
   19c88:	2040b537          	lui	a0,0x2040b
   19c8c:	4fc50513          	addi	a0,a0,1276 # 2040b4fc <__BSS_END__+0x203ee45c>
   19c90:	324010ef          	jal	ra,1afb4 <__DATA_BEGIN__+0x9f3c>
   19c94:	04000593          	li	a1,64
   19c98:	2040b537          	lui	a0,0x2040b
   19c9c:	51450513          	addi	a0,a0,1300 # 2040b514 <__BSS_END__+0x203ee474>
   19ca0:	314010ef          	jal	ra,1afb4 <__DATA_BEGIN__+0x9f3c>
   19ca4:	45c1                	li	a1,16
   19ca6:	2040b537          	lui	a0,0x2040b
   19caa:	53050513          	addi	a0,a0,1328 # 2040b530 <__BSS_END__+0x203ee490>
   19cae:	306010ef          	jal	ra,1afb4 <__DATA_BEGIN__+0x9f3c>
   19cb2:	2040c537          	lui	a0,0x2040c
   19cb6:	a1850513          	addi	a0,a0,-1512 # 2040ba18 <__BSS_END__+0x203ee978>
   19cba:	2fa010ef          	jal	ra,1afb4 <__DATA_BEGIN__+0x9f3c>
   19cbe:	0c0005b7          	lui	a1,0xc000
   19cc2:	2040b537          	lui	a0,0x2040b
   19cc6:	54c50513          	addi	a0,a0,1356 # 2040b54c <__BSS_END__+0x203ee4ac>
   19cca:	2ea010ef          	jal	ra,1afb4 <__DATA_BEGIN__+0x9f3c>
   19cce:	100405b7          	lui	a1,0x10040
   19cd2:	2040b537          	lui	a0,0x2040b
   19cd6:	55c50513          	addi	a0,a0,1372 # 2040b55c <__BSS_END__+0x203ee4bc>
   19cda:	2da010ef          	jal	ra,1afb4 <__DATA_BEGIN__+0x9f3c>
   19cde:	100135b7          	lui	a1,0x10013
   19ce2:	2040b537          	lui	a0,0x2040b
   19ce6:	56c50513          	addi	a0,a0,1388 # 2040b56c <__BSS_END__+0x203ee4cc>
   19cea:	2ca010ef          	jal	ra,1afb4 <__DATA_BEGIN__+0x9f3c>
   19cee:	100125b7          	lui	a1,0x10012
   19cf2:	2040b537          	lui	a0,0x2040b
   19cf6:	57c50513          	addi	a0,a0,1404 # 2040b57c <__BSS_END__+0x203ee4dc>
   19cfa:	2ba010ef          	jal	ra,1afb4 <__DATA_BEGIN__+0x9f3c>
   19cfe:	50b2                	lw	ra,44(sp)
   19d00:	5422                	lw	s0,40(sp)
   19d02:	6145                	addi	sp,sp,48
   19d04:	8082                	ret
   19d06:	2040b637          	lui	a2,0x2040b
   19d0a:	42860613          	addi	a2,a2,1064 # 2040b428 <__BSS_END__+0x203ee388>
   19d0e:	b705                	j	19c2e <__DATA_BEGIN__+0x8bb6>
   19d10:	800007b7          	lui	a5,0x80000
   19d14:	0789                	addi	a5,a5,2
   19d16:	f2f599e3          	bne	a1,a5,19c48 <__DATA_BEGIN__+0x8bd0>
   19d1a:	2040b637          	lui	a2,0x2040b
   19d1e:	44c60613          	addi	a2,a2,1100 # 2040b44c <__BSS_END__+0x203ee3ac>
   19d22:	b799                	j	19c68 <__DATA_BEGIN__+0x8bf0>
   19d24:	4785                	li	a5,1
   19d26:	f2f595e3          	bne	a1,a5,19c50 <__DATA_BEGIN__+0x8bd8>
   19d2a:	2040b637          	lui	a2,0x2040b
   19d2e:	46860613          	addi	a2,a2,1128 # 2040b468 <__BSS_END__+0x203ee3c8>
   19d32:	bf1d                	j	19c68 <__DATA_BEGIN__+0x8bf0>
   19d34:	4785                	li	a5,1
   19d36:	f2f591e3          	bne	a1,a5,19c58 <__DATA_BEGIN__+0x8be0>
   19d3a:	2040b637          	lui	a2,0x2040b
   19d3e:	46060613          	addi	a2,a2,1120 # 2040b460 <__BSS_END__+0x203ee3c0>
   19d42:	b71d                	j	19c68 <__DATA_BEGIN__+0x8bf0>
   19d44:	800007b7          	lui	a5,0x80000
   19d48:	02278793          	addi	a5,a5,34 # ffffffff80000022 <__BSS_END__+0xffffffff7ffe2f82>
   19d4c:	00f58763          	beq	a1,a5,19d5a <__DATA_BEGIN__+0x8ce2>
   19d50:	2040c637          	lui	a2,0x2040c
   19d54:	92c60613          	addi	a2,a2,-1748 # 2040b92c <__BSS_END__+0x203ee88c>
   19d58:	bf01                	j	19c68 <__DATA_BEGIN__+0x8bf0>
   19d5a:	2040b637          	lui	a2,0x2040b
   19d5e:	48060613          	addi	a2,a2,1152 # 2040b480 <__BSS_END__+0x203ee3e0>
   19d62:	b719                	j	19c68 <__DATA_BEGIN__+0x8bf0>
   19d64:	7135                	addi	sp,sp,-160
   19d66:	cf06                	sw	ra,156(sp)
   19d68:	cd22                	sw	s0,152(sp)
   19d6a:	cb26                	sw	s1,148(sp)
   19d6c:	c94a                	sw	s2,144(sp)
   19d6e:	c74e                	sw	s3,140(sp)
   19d70:	c552                	sw	s4,136(sp)
   19d72:	c356                	sw	s5,132(sp)
   19d74:	c15a                	sw	s6,128(sp)
   19d76:	dede                	sw	s7,124(sp)
   19d78:	dce2                	sw	s8,120(sp)
   19d7a:	dae6                	sw	s9,116(sp)
   19d7c:	4681                	li	a3,0
   19d7e:	a0a1                	j	19dc6 <__DATA_BEGIN__+0x8d4e>
   19d80:	47b9                	li	a5,14
   19d82:	85be                	mv	a1,a5
   19d84:	4521                	li	a0,8
   19d86:	00300073          	0x300073
   19d8a:	862a                	mv	a2,a0
   19d8c:	4835                	li	a6,13
   19d8e:	85c2                	mv	a1,a6
   19d90:	4521                	li	a0,8
   19d92:	00300073          	0x300073
   19d96:	872a                	mv	a4,a0
   19d98:	4501                	li	a0,0
   19d9a:	00300073          	0x300073
   19d9e:	85be                	mv	a1,a5
   19da0:	4521                	li	a0,8
   19da2:	00300073          	0x300073
   19da6:	87aa                	mv	a5,a0
   19da8:	85c2                	mv	a1,a6
   19daa:	4521                	li	a0,8
   19dac:	00300073          	0x300073
   19db0:	8d19                	sub	a0,a0,a4
   19db2:	00269713          	slli	a4,a3,0x2
   19db6:	188c                	addi	a1,sp,112
   19db8:	972e                	add	a4,a4,a1
   19dba:	f8a72c23          	sw	a0,-104(a4)
   19dbe:	8f91                	sub	a5,a5,a2
   19dc0:	fcf72223          	sw	a5,-60(a4)
   19dc4:	0685                	addi	a3,a3,1
   19dc6:	47a9                	li	a5,10
   19dc8:	fad7dce3          	bge	a5,a3,19d80 <__DATA_BEGIN__+0x8d08>
   19dcc:	4781                	li	a5,0
   19dce:	4601                	li	a2,0
   19dd0:	a011                	j	19dd4 <__DATA_BEGIN__+0x8d5c>
   19dd2:	0785                	addi	a5,a5,1
   19dd4:	4729                	li	a4,10
   19dd6:	00f74c63          	blt	a4,a5,19dee <__DATA_BEGIN__+0x8d76>
   19dda:	00279713          	slli	a4,a5,0x2
   19dde:	1894                	addi	a3,sp,112
   19de0:	9736                	add	a4,a4,a3
   19de2:	f9872703          	lw	a4,-104(a4)
   19de6:	fee656e3          	bge	a2,a4,19dd2 <__DATA_BEGIN__+0x8d5a>
   19dea:	863a                	mv	a2,a4
   19dec:	b7dd                	j	19dd2 <__DATA_BEGIN__+0x8d5a>
   19dee:	2040b5b7          	lui	a1,0x2040b
   19df2:	58c58593          	addi	a1,a1,1420 # 2040b58c <__BSS_END__+0x203ee4ec>
   19df6:	1088                	addi	a0,sp,96
   19df8:	1ea010ef          	jal	ra,1afe2 <__DATA_BEGIN__+0x9f6a>
   19dfc:	1088                	addi	a0,sp,96
   19dfe:	2c5010ef          	jal	ra,1b8c2 <__DATA_BEGIN__+0xa84a>
   19e02:	84aa                	mv	s1,a0
   19e04:	4401                	li	s0,0
   19e06:	a815                	j	19e3a <__DATA_BEGIN__+0x8dc2>
   19e08:	00241613          	slli	a2,s0,0x2
   19e0c:	189c                	addi	a5,sp,112
   19e0e:	963e                	add	a2,a2,a5
   19e10:	f9862703          	lw	a4,-104(a2)
   19e14:	41f75813          	srai	a6,a4,0x1f
   19e18:	03f87813          	andi	a6,a6,63
   19e1c:	983a                	add	a6,a6,a4
   19e1e:	40685813          	srai	a6,a6,0x6
   19e22:	87a6                	mv	a5,s1
   19e24:	86a6                	mv	a3,s1
   19e26:	fc462603          	lw	a2,-60(a2)
   19e2a:	85a6                	mv	a1,s1
   19e2c:	2040b537          	lui	a0,0x2040b
   19e30:	59050513          	addi	a0,a0,1424 # 2040b590 <__BSS_END__+0x203ee4f0>
   19e34:	180010ef          	jal	ra,1afb4 <__DATA_BEGIN__+0x9f3c>
   19e38:	0405                	addi	s0,s0,1
   19e3a:	47a9                	li	a5,10
   19e3c:	fc87d6e3          	bge	a5,s0,19e08 <__DATA_BEGIN__+0x8d90>
   19e40:	20408437          	lui	s0,0x20408
   19e44:	13c40693          	addi	a3,s0,316 # 2040813c <__BSS_END__+0x203eb09c>
   19e48:	4611                	li	a2,4
   19e4a:	45ad                	li	a1,11
   19e4c:	0028                	addi	a0,sp,8
   19e4e:	7a8010ef          	jal	ra,1b5f6 <__DATA_BEGIN__+0xa57e>
   19e52:	13c40693          	addi	a3,s0,316
   19e56:	4611                	li	a2,4
   19e58:	45ad                	li	a1,11
   19e5a:	1848                	addi	a0,sp,52
   19e5c:	79a010ef          	jal	ra,1b5f6 <__DATA_BEGIN__+0xa57e>
   19e60:	2040b537          	lui	a0,0x2040b
   19e64:	5b050513          	addi	a0,a0,1456 # 2040b5b0 <__BSS_END__+0x203ee510>
   19e68:	14c010ef          	jal	ra,1afb4 <__DATA_BEGIN__+0x9f3c>
   19e6c:	46f6                	lw	a3,92(sp)
   19e6e:	4626                	lw	a2,72(sp)
   19e70:	55d2                	lw	a1,52(sp)
   19e72:	2040b537          	lui	a0,0x2040b
   19e76:	5dc50513          	addi	a0,a0,1500 # 2040b5dc <__BSS_END__+0x203ee53c>
   19e7a:	13a010ef          	jal	ra,1afb4 <__DATA_BEGIN__+0x9f3c>
   19e7e:	4422                	lw	s0,8(sp)
   19e80:	44f2                	lw	s1,28(sp)
   19e82:	5942                	lw	s2,48(sp)
   19e84:	86ca                	mv	a3,s2
   19e86:	8626                	mv	a2,s1
   19e88:	85a2                	mv	a1,s0
   19e8a:	2040b537          	lui	a0,0x2040b
   19e8e:	5fc50513          	addi	a0,a0,1532 # 2040b5fc <__BSS_END__+0x203ee55c>
   19e92:	122010ef          	jal	ra,1afb4 <__DATA_BEGIN__+0x9f3c>
   19e96:	41f95693          	srai	a3,s2,0x1f
   19e9a:	03f6f693          	andi	a3,a3,63
   19e9e:	96ca                	add	a3,a3,s2
   19ea0:	41f4d613          	srai	a2,s1,0x1f
   19ea4:	03f67613          	andi	a2,a2,63
   19ea8:	9626                	add	a2,a2,s1
   19eaa:	41f45593          	srai	a1,s0,0x1f
   19eae:	03f5f593          	andi	a1,a1,63
   19eb2:	95a2                	add	a1,a1,s0
   19eb4:	8699                	srai	a3,a3,0x6
   19eb6:	8619                	srai	a2,a2,0x6
   19eb8:	8599                	srai	a1,a1,0x6
   19eba:	2040b537          	lui	a0,0x2040b
   19ebe:	61c50513          	addi	a0,a0,1564 # 2040b61c <__BSS_END__+0x203ee57c>
   19ec2:	0f2010ef          	jal	ra,1afb4 <__DATA_BEGIN__+0x9f3c>
   19ec6:	4755                	li	a4,21
   19ec8:	85ba                	mv	a1,a4
   19eca:	4521                	li	a0,8
   19ecc:	00300073          	0x300073
   19ed0:	67c1                	lui	a5,0x10
   19ed2:	17fd                	addi	a5,a5,-1
   19ed4:	00f57ab3          	and	s5,a0,a5
   19ed8:	85ba                	mv	a1,a4
   19eda:	4521                	li	a0,8
   19edc:	00300073          	0x300073
   19ee0:	01055b13          	srli	s6,a0,0x10
   19ee4:	4759                	li	a4,22
   19ee6:	85ba                	mv	a1,a4
   19ee8:	4521                	li	a0,8
   19eea:	00300073          	0x300073
   19eee:	00f574b3          	and	s1,a0,a5
   19ef2:	85ba                	mv	a1,a4
   19ef4:	4521                	li	a0,8
   19ef6:	00300073          	0x300073
   19efa:	01055913          	srli	s2,a0,0x10
   19efe:	455d                	li	a0,23
   19f00:	85aa                	mv	a1,a0
   19f02:	4521                	li	a0,8
   19f04:	00300073          	0x300073
   19f08:	842a                	mv	s0,a0
   19f0a:	4561                	li	a0,24
   19f0c:	85aa                	mv	a1,a0
   19f0e:	4521                	li	a0,8
   19f10:	00300073          	0x300073
   19f14:	8baa                	mv	s7,a0
   19f16:	4565                	li	a0,25
   19f18:	85aa                	mv	a1,a0
   19f1a:	4521                	li	a0,8
   19f1c:	00300073          	0x300073
   19f20:	8a2a                	mv	s4,a0
   19f22:	4569                	li	a0,26
   19f24:	85aa                	mv	a1,a0
   19f26:	4521                	li	a0,8
   19f28:	00300073          	0x300073
   19f2c:	89aa                	mv	s3,a0
   19f2e:	ec11                	bnez	s0,19f4a <__DATA_BEGIN__+0x8ed2>
   19f30:	40fa                	lw	ra,156(sp)
   19f32:	446a                	lw	s0,152(sp)
   19f34:	44da                	lw	s1,148(sp)
   19f36:	494a                	lw	s2,144(sp)
   19f38:	49ba                	lw	s3,140(sp)
   19f3a:	4a2a                	lw	s4,136(sp)
   19f3c:	4a9a                	lw	s5,132(sp)
   19f3e:	4b0a                	lw	s6,128(sp)
   19f40:	5bf6                	lw	s7,124(sp)
   19f42:	5c66                	lw	s8,120(sp)
   19f44:	5cd6                	lw	s9,116(sp)
   19f46:	610d                	addi	sp,sp,160
   19f48:	8082                	ret
   19f4a:	2040ccb7          	lui	s9,0x2040c
   19f4e:	c10c8513          	addi	a0,s9,-1008 # 2040bc10 <__BSS_END__+0x203eeb70>
   19f52:	062010ef          	jal	ra,1afb4 <__DATA_BEGIN__+0x9f3c>
   19f56:	2040b537          	lui	a0,0x2040b
   19f5a:	64050513          	addi	a0,a0,1600 # 2040b640 <__BSS_END__+0x203ee5a0>
   19f5e:	056010ef          	jal	ra,1afb4 <__DATA_BEGIN__+0x9f3c>
   19f62:	2040bc37          	lui	s8,0x2040b
   19f66:	5b0c0513          	addi	a0,s8,1456 # 2040b5b0 <__BSS_END__+0x203ee510>
   19f6a:	04a010ef          	jal	ra,1afb4 <__DATA_BEGIN__+0x9f3c>
   19f6e:	865e                	mv	a2,s7
   19f70:	85a2                	mv	a1,s0
   19f72:	2040b537          	lui	a0,0x2040b
   19f76:	65050513          	addi	a0,a0,1616 # 2040b650 <__BSS_END__+0x203ee5b0>
   19f7a:	03a010ef          	jal	ra,1afb4 <__DATA_BEGIN__+0x9f3c>
   19f7e:	864e                	mv	a2,s3
   19f80:	85d2                	mv	a1,s4
   19f82:	2040b537          	lui	a0,0x2040b
   19f86:	66c50513          	addi	a0,a0,1644 # 2040b66c <__BSS_END__+0x203ee5cc>
   19f8a:	02a010ef          	jal	ra,1afb4 <__DATA_BEGIN__+0x9f3c>
   19f8e:	0069d613          	srli	a2,s3,0x6
   19f92:	006a5593          	srli	a1,s4,0x6
   19f96:	2040b537          	lui	a0,0x2040b
   19f9a:	68850513          	addi	a0,a0,1672 # 2040b688 <__BSS_END__+0x203ee5e8>
   19f9e:	016010ef          	jal	ra,1afb4 <__DATA_BEGIN__+0x9f3c>
   19fa2:	c10c8513          	addi	a0,s9,-1008
   19fa6:	00e010ef          	jal	ra,1afb4 <__DATA_BEGIN__+0x9f3c>
   19faa:	2040b537          	lui	a0,0x2040b
   19fae:	6a850513          	addi	a0,a0,1704 # 2040b6a8 <__BSS_END__+0x203ee608>
   19fb2:	002010ef          	jal	ra,1afb4 <__DATA_BEGIN__+0x9f3c>
   19fb6:	5b0c0513          	addi	a0,s8,1456
   19fba:	7fb000ef          	jal	ra,1afb4 <__DATA_BEGIN__+0x9f3c>
   19fbe:	865a                	mv	a2,s6
   19fc0:	85d6                	mv	a1,s5
   19fc2:	2040b537          	lui	a0,0x2040b
   19fc6:	6b850513          	addi	a0,a0,1720 # 2040b6b8 <__BSS_END__+0x203ee618>
   19fca:	7eb000ef          	jal	ra,1afb4 <__DATA_BEGIN__+0x9f3c>
   19fce:	864a                	mv	a2,s2
   19fd0:	85a6                	mv	a1,s1
   19fd2:	2040b537          	lui	a0,0x2040b
   19fd6:	6d450513          	addi	a0,a0,1748 # 2040b6d4 <__BSS_END__+0x203ee634>
   19fda:	7db000ef          	jal	ra,1afb4 <__DATA_BEGIN__+0x9f3c>
   19fde:	00695613          	srli	a2,s2,0x6
   19fe2:	0064d593          	srli	a1,s1,0x6
   19fe6:	2040b537          	lui	a0,0x2040b
   19fea:	6f050513          	addi	a0,a0,1776 # 2040b6f0 <__BSS_END__+0x203ee650>
   19fee:	7c7000ef          	jal	ra,1afb4 <__DATA_BEGIN__+0x9f3c>
   19ff2:	bf3d                	j	19f30 <__DATA_BEGIN__+0x8eb8>
   19ff4:	7139                	addi	sp,sp,-64
   19ff6:	de06                	sw	ra,60(sp)
   19ff8:	dc22                	sw	s0,56(sp)
   19ffa:	da26                	sw	s1,52(sp)
   19ffc:	d84a                	sw	s2,48(sp)
   19ffe:	3a002973          	csrr	s2,pmpcfg0
   1a002:	3a1024f3          	csrr	s1,pmpcfg1
   1a006:	3b0027f3          	csrr	a5,pmpaddr0
   1a00a:	c83e                	sw	a5,16(sp)
   1a00c:	3b1027f3          	csrr	a5,pmpaddr1
   1a010:	ca3e                	sw	a5,20(sp)
   1a012:	3b2027f3          	csrr	a5,pmpaddr2
   1a016:	cc3e                	sw	a5,24(sp)
   1a018:	3b3027f3          	csrr	a5,pmpaddr3
   1a01c:	ce3e                	sw	a5,28(sp)
   1a01e:	3b4027f3          	csrr	a5,pmpaddr4
   1a022:	d03e                	sw	a5,32(sp)
   1a024:	3b5027f3          	csrr	a5,pmpaddr5
   1a028:	d23e                	sw	a5,36(sp)
   1a02a:	3b6027f3          	csrr	a5,pmpaddr6
   1a02e:	d43e                	sw	a5,40(sp)
   1a030:	3b7027f3          	csrr	a5,pmpaddr7
   1a034:	d63e                	sw	a5,44(sp)
   1a036:	4401                	li	s0,0
   1a038:	a041                	j	1a0b8 <__DATA_BEGIN__+0x9040>
   1a03a:	00149693          	slli	a3,s1,0x1
   1a03e:	47fd                	li	a5,31
   1a040:	8f99                	sub	a5,a5,a4
   1a042:	00f696b3          	sll	a3,a3,a5
   1a046:	00e957b3          	srl	a5,s2,a4
   1a04a:	8fd5                	or	a5,a5,a3
   1a04c:	a049                	j	1a0ce <__DATA_BEGIN__+0x9056>
   1a04e:	02d00713          	li	a4,45
   1a052:	a071                	j	1a0de <__DATA_BEGIN__+0x9066>
   1a054:	02d00713          	li	a4,45
   1a058:	a851                	j	1a0ec <__DATA_BEGIN__+0x9074>
   1a05a:	02d00713          	li	a4,45
   1a05e:	a871                	j	1a0fa <__DATA_BEGIN__+0x9082>
   1a060:	fff40793          	addi	a5,s0,-1
   1a064:	078a                	slli	a5,a5,0x2
   1a066:	1818                	addi	a4,sp,48
   1a068:	97ba                	add	a5,a5,a4
   1a06a:	fe07a583          	lw	a1,-32(a5) # ffe0 <_binary_multizone_bin_size+0x3fbc>
   1a06e:	058a                	slli	a1,a1,0x2
   1a070:	00241793          	slli	a5,s0,0x2
   1a074:	97ba                	add	a5,a5,a4
   1a076:	fe07a603          	lw	a2,-32(a5)
   1a07a:	060a                	slli	a2,a2,0x2
   1a07c:	167d                	addi	a2,a2,-1
   1a07e:	005257b7          	lui	a5,0x525
   1a082:	f5478793          	addi	a5,a5,-172 # 524f54 <__BSS_END__+0x507eb4>
   1a086:	c43e                	sw	a5,8(sp)
   1a088:	a839                	j	1a0a6 <__DATA_BEGIN__+0x902e>
   1a08a:	00241793          	slli	a5,s0,0x2
   1a08e:	1818                	addi	a4,sp,48
   1a090:	97ba                	add	a5,a5,a4
   1a092:	fe07a583          	lw	a1,-32(a5)
   1a096:	058a                	slli	a1,a1,0x2
   1a098:	00358613          	addi	a2,a1,3
   1a09c:	003447b7          	lui	a5,0x344
   1a0a0:	14e78793          	addi	a5,a5,334 # 34414e <__BSS_END__+0x3270ae>
   1a0a4:	c43e                	sw	a5,8(sp)
   1a0a6:	0038                	addi	a4,sp,8
   1a0a8:	0054                	addi	a3,sp,4
   1a0aa:	2040b537          	lui	a0,0x2040b
   1a0ae:	70c50513          	addi	a0,a0,1804 # 2040b70c <__BSS_END__+0x203ee66c>
   1a0b2:	703000ef          	jal	ra,1afb4 <__DATA_BEGIN__+0x9f3c>
   1a0b6:	0405                	addi	s0,s0,1
   1a0b8:	479d                	li	a5,7
   1a0ba:	0a87c963          	blt	a5,s0,1a16c <__DATA_BEGIN__+0x90f4>
   1a0be:	00341713          	slli	a4,s0,0x3
   1a0c2:	fe070793          	addi	a5,a4,-32
   1a0c6:	f607cae3          	bltz	a5,1a03a <__DATA_BEGIN__+0x8fc2>
   1a0ca:	00f4d7b3          	srl	a5,s1,a5
   1a0ce:	0ff7f793          	andi	a5,a5,255
   1a0d2:	d3f5                	beqz	a5,1a0b6 <__DATA_BEGIN__+0x903e>
   1a0d4:	0017f713          	andi	a4,a5,1
   1a0d8:	db3d                	beqz	a4,1a04e <__DATA_BEGIN__+0x8fd6>
   1a0da:	07200713          	li	a4,114
   1a0de:	00e10223          	sb	a4,4(sp)
   1a0e2:	0027f713          	andi	a4,a5,2
   1a0e6:	d73d                	beqz	a4,1a054 <__DATA_BEGIN__+0x8fdc>
   1a0e8:	07700713          	li	a4,119
   1a0ec:	00e102a3          	sb	a4,5(sp)
   1a0f0:	0047f713          	andi	a4,a5,4
   1a0f4:	d33d                	beqz	a4,1a05a <__DATA_BEGIN__+0x8fe2>
   1a0f6:	07800713          	li	a4,120
   1a0fa:	00e10323          	sb	a4,6(sp)
   1a0fe:	000103a3          	sb	zero,7(sp)
   1a102:	c402                	sw	zero,8(sp)
   1a104:	00011623          	sh	zero,12(sp)
   1a108:	8be1                	andi	a5,a5,24
   1a10a:	4721                	li	a4,8
   1a10c:	f4e78ae3          	beq	a5,a4,1a060 <__DATA_BEGIN__+0x8fe8>
   1a110:	4741                	li	a4,16
   1a112:	f6e78ce3          	beq	a5,a4,1a08a <__DATA_BEGIN__+0x9012>
   1a116:	4761                	li	a4,24
   1a118:	04e79a63          	bne	a5,a4,1a16c <__DATA_BEGIN__+0x90f4>
   1a11c:	4781                	li	a5,0
   1a11e:	477d                	li	a4,31
   1a120:	04f74363          	blt	a4,a5,1a166 <__DATA_BEGIN__+0x90ee>
   1a124:	00241713          	slli	a4,s0,0x2
   1a128:	1814                	addi	a3,sp,48
   1a12a:	9736                	add	a4,a4,a3
   1a12c:	fe072583          	lw	a1,-32(a4)
   1a130:	00f5d5b3          	srl	a1,a1,a5
   1a134:	0015f713          	andi	a4,a1,1
   1a138:	c319                	beqz	a4,1a13e <__DATA_BEGIN__+0x90c6>
   1a13a:	0785                	addi	a5,a5,1
   1a13c:	b7cd                	j	1a11e <__DATA_BEGIN__+0x90a6>
   1a13e:	00378713          	addi	a4,a5,3
   1a142:	4605                	li	a2,1
   1a144:	00e61633          	sll	a2,a2,a4
   1a148:	0789                	addi	a5,a5,2
   1a14a:	00f595b3          	sll	a1,a1,a5
   1a14e:	962e                	add	a2,a2,a1
   1a150:	167d                	addi	a2,a2,-1
   1a152:	4f5047b7          	lui	a5,0x4f504
   1a156:	14e78793          	addi	a5,a5,334 # 4f50414e <__BSS_END__+0x4f4e70ae>
   1a15a:	c43e                	sw	a5,8(sp)
   1a15c:	05400793          	li	a5,84
   1a160:	00f11623          	sh	a5,12(sp)
   1a164:	b789                	j	1a0a6 <__DATA_BEGIN__+0x902e>
   1a166:	4601                	li	a2,0
   1a168:	4581                	li	a1,0
   1a16a:	bf35                	j	1a0a6 <__DATA_BEGIN__+0x902e>
   1a16c:	50f2                	lw	ra,60(sp)
   1a16e:	5462                	lw	s0,56(sp)
   1a170:	54d2                	lw	s1,52(sp)
   1a172:	5942                	lw	s2,48(sp)
   1a174:	6121                	addi	sp,sp,64
   1a176:	8082                	ret
   1a178:	1141                	addi	sp,sp,-16
   1a17a:	c606                	sw	ra,12(sp)
   1a17c:	c422                	sw	s0,8(sp)
   1a17e:	c226                	sw	s1,4(sp)
   1a180:	c04a                	sw	s2,0(sp)
   1a182:	304477f3          	csrrci	a5,mie,8
   1a186:	4485                	li	s1,1
   1a188:	a8b1                	j	1a1e4 <__DATA_BEGIN__+0x916c>
   1a18a:	4619                	li	a2,6
   1a18c:	2040b5b7          	lui	a1,0x2040b
   1a190:	34c58593          	addi	a1,a1,844 # 2040b34c <__BSS_END__+0x203ee2ac>
   1a194:	4505                	li	a0,1
   1a196:	26f010ef          	jal	ra,1bc04 <__DATA_BEGIN__+0xab8c>
   1a19a:	8622                	mv	a2,s0
   1a19c:	85a6                	mv	a1,s1
   1a19e:	2040b537          	lui	a0,0x2040b
   1a1a2:	72c50513          	addi	a0,a0,1836 # 2040b72c <__BSS_END__+0x203ee68c>
   1a1a6:	60f000ef          	jal	ra,1afb4 <__DATA_BEGIN__+0x9f3c>
   1a1aa:	4619                	li	a2,6
   1a1ac:	2040b5b7          	lui	a1,0x2040b
   1a1b0:	73c58593          	addi	a1,a1,1852 # 2040b73c <__BSS_END__+0x203ee69c>
   1a1b4:	4505                	li	a0,1
   1a1b6:	24f010ef          	jal	ra,1bc04 <__DATA_BEGIN__+0xab8c>
   1a1ba:	99418513          	addi	a0,gp,-1644 # 1c234 <__DATA_BEGIN__+0xb1bc>
   1a1be:	704010ef          	jal	ra,1b8c2 <__DATA_BEGIN__+0xa84a>
   1a1c2:	862a                	mv	a2,a0
   1a1c4:	99418593          	addi	a1,gp,-1644 # 1c234 <__DATA_BEGIN__+0xb1bc>
   1a1c8:	4505                	li	a0,1
   1a1ca:	23b010ef          	jal	ra,1bc04 <__DATA_BEGIN__+0xab8c>
   1a1ce:	4619                	li	a2,6
   1a1d0:	2040b5b7          	lui	a1,0x2040b
   1a1d4:	38c58593          	addi	a1,a1,908 # 2040b38c <__BSS_END__+0x203ee2ec>
   1a1d8:	4505                	li	a0,1
   1a1da:	22b010ef          	jal	ra,1bc04 <__DATA_BEGIN__+0xab8c>
   1a1de:	00040023          	sb	zero,0(s0)
   1a1e2:	0485                	addi	s1,s1,1
   1a1e4:	4791                	li	a5,4
   1a1e6:	0297ed63          	bltu	a5,s1,1a220 <__DATA_BEGIN__+0x91a8>
   1a1ea:	fff48413          	addi	s0,s1,-1
   1a1ee:	00441793          	slli	a5,s0,0x4
   1a1f2:	95418413          	addi	s0,gp,-1708 # 1c1f4 <__DATA_BEGIN__+0xb17c>
   1a1f6:	943e                	add	s0,s0,a5
   1a1f8:	00044783          	lbu	a5,0(s0)
   1a1fc:	d3fd                	beqz	a5,1a1e2 <__DATA_BEGIN__+0x916a>
   1a1fe:	85a2                	mv	a1,s0
   1a200:	2040b537          	lui	a0,0x2040b
   1a204:	72450513          	addi	a0,a0,1828 # 2040b724 <__BSS_END__+0x203ee684>
   1a208:	690010ef          	jal	ra,1b898 <__DATA_BEGIN__+0xa820>
   1a20c:	fd3d                	bnez	a0,1a18a <__DATA_BEGIN__+0x9112>
   1a20e:	85a6                	mv	a1,s1
   1a210:	4010                	lw	a2,0(s0)
   1a212:	4054                	lw	a3,4(s0)
   1a214:	4418                	lw	a4,8(s0)
   1a216:	445c                	lw	a5,12(s0)
   1a218:	4509                	li	a0,2
   1a21a:	00300073          	0x300073
   1a21e:	b7c1                	j	1a1de <__DATA_BEGIN__+0x9166>
   1a220:	304467f3          	csrrsi	a5,mie,8
   1a224:	40b2                	lw	ra,12(sp)
   1a226:	4422                	lw	s0,8(sp)
   1a228:	4492                	lw	s1,4(sp)
   1a22a:	4902                	lw	s2,0(sp)
   1a22c:	0141                	addi	sp,sp,16
   1a22e:	8082                	ret
   1a230:	711d                	addi	sp,sp,-96
   1a232:	ce86                	sw	ra,92(sp)
   1a234:	cca2                	sw	s0,88(sp)
   1a236:	caa6                	sw	s1,84(sp)
   1a238:	c8ca                	sw	s2,80(sp)
   1a23a:	c6ce                	sw	s3,76(sp)
   1a23c:	c4d2                	sw	s4,72(sp)
   1a23e:	2040b5b7          	lui	a1,0x2040b
   1a242:	77c58593          	addi	a1,a1,1916 # 2040b77c <__BSS_END__+0x203ee6dc>
   1a246:	99418513          	addi	a0,gp,-1644 # 1c234 <__DATA_BEGIN__+0xb1bc>
   1a24a:	5c5000ef          	jal	ra,1b00e <__DATA_BEGIN__+0x9f96>
   1a24e:	ce2a                	sw	a0,28(sp)
   1a250:	4405                	li	s0,1
   1a252:	a839                	j	1a270 <__DATA_BEGIN__+0x91f8>
   1a254:	2040b5b7          	lui	a1,0x2040b
   1a258:	77c58593          	addi	a1,a1,1916 # 2040b77c <__BSS_END__+0x203ee6dc>
   1a25c:	4501                	li	a0,0
   1a25e:	5b1000ef          	jal	ra,1b00e <__DATA_BEGIN__+0x9f96>
   1a262:	00241793          	slli	a5,s0,0x2
   1a266:	0098                	addi	a4,sp,64
   1a268:	97ba                	add	a5,a5,a4
   1a26a:	fca7ae23          	sw	a0,-36(a5)
   1a26e:	0405                	addi	s0,s0,1
   1a270:	47a1                	li	a5,8
   1a272:	fe87d1e3          	bge	a5,s0,1a254 <__DATA_BEGIN__+0x91dc>
   1a276:	47f2                	lw	a5,28(sp)
   1a278:	c7a1                	beqz	a5,1a2c0 <__DATA_BEGIN__+0x9248>
   1a27a:	4472                	lw	s0,28(sp)
   1a27c:	2040b5b7          	lui	a1,0x2040b
   1a280:	78858593          	addi	a1,a1,1928 # 2040b788 <__BSS_END__+0x203ee6e8>
   1a284:	8522                	mv	a0,s0
   1a286:	612010ef          	jal	ra,1b898 <__DATA_BEGIN__+0xa820>
   1a28a:	e921                	bnez	a0,1a2da <__DATA_BEGIN__+0x9262>
   1a28c:	5502                	lw	a0,32(sp)
   1a28e:	cd1d                	beqz	a0,1a2cc <__DATA_BEGIN__+0x9254>
   1a290:	4641                	li	a2,16
   1a292:	4581                	li	a1,0
   1a294:	123010ef          	jal	ra,1bbb6 <__DATA_BEGIN__+0xab3e>
   1a298:	85aa                	mv	a1,a0
   1a29a:	4601                	li	a2,0
   1a29c:	00054603          	lbu	a2,0(a0)
   1a2a0:	0ff67613          	andi	a2,a2,255
   1a2a4:	2040b537          	lui	a0,0x2040b
   1a2a8:	79050513          	addi	a0,a0,1936 # 2040b790 <__BSS_END__+0x203ee6f0>
   1a2ac:	509000ef          	jal	ra,1afb4 <__DATA_BEGIN__+0x9f3c>
   1a2b0:	40f6                	lw	ra,92(sp)
   1a2b2:	4466                	lw	s0,88(sp)
   1a2b4:	44d6                	lw	s1,84(sp)
   1a2b6:	4946                	lw	s2,80(sp)
   1a2b8:	49b6                	lw	s3,76(sp)
   1a2ba:	4a26                	lw	s4,72(sp)
   1a2bc:	6125                	addi	sp,sp,96
   1a2be:	8082                	ret
   1a2c0:	2040b7b7          	lui	a5,0x2040b
   1a2c4:	78078793          	addi	a5,a5,1920 # 2040b780 <__BSS_END__+0x203ee6e0>
   1a2c8:	ce3e                	sw	a5,28(sp)
   1a2ca:	bf45                	j	1a27a <__DATA_BEGIN__+0x9202>
   1a2cc:	2040b537          	lui	a0,0x2040b
   1a2d0:	7a450513          	addi	a0,a0,1956 # 2040b7a4 <__BSS_END__+0x203ee704>
   1a2d4:	4e1000ef          	jal	ra,1afb4 <__DATA_BEGIN__+0x9f3c>
   1a2d8:	bfe1                	j	1a2b0 <__DATA_BEGIN__+0x9238>
   1a2da:	2040b5b7          	lui	a1,0x2040b
   1a2de:	7bc58593          	addi	a1,a1,1980 # 2040b7bc <__BSS_END__+0x203ee71c>
   1a2e2:	8522                	mv	a0,s0
   1a2e4:	5b4010ef          	jal	ra,1b898 <__DATA_BEGIN__+0xa820>
   1a2e8:	e135                	bnez	a0,1a34c <__DATA_BEGIN__+0x92d4>
   1a2ea:	5482                	lw	s1,32(sp)
   1a2ec:	c8a9                	beqz	s1,1a33e <__DATA_BEGIN__+0x92c6>
   1a2ee:	5412                	lw	s0,36(sp)
   1a2f0:	c439                	beqz	s0,1a33e <__DATA_BEGIN__+0x92c6>
   1a2f2:	4641                	li	a2,16
   1a2f4:	4581                	li	a1,0
   1a2f6:	8522                	mv	a0,s0
   1a2f8:	0bf010ef          	jal	ra,1bbb6 <__DATA_BEGIN__+0xab3e>
   1a2fc:	892a                	mv	s2,a0
   1a2fe:	4641                	li	a2,16
   1a300:	4581                	li	a1,0
   1a302:	8526                	mv	a0,s1
   1a304:	0b3010ef          	jal	ra,1bbb6 <__DATA_BEGIN__+0xab3e>
   1a308:	84aa                	mv	s1,a0
   1a30a:	8522                	mv	a0,s0
   1a30c:	5b6010ef          	jal	ra,1b8c2 <__DATA_BEGIN__+0xa84a>
   1a310:	4789                	li	a5,2
   1a312:	00a7ed63          	bltu	a5,a0,1a32c <__DATA_BEGIN__+0x92b4>
   1a316:	01248023          	sb	s2,0(s1)
   1a31a:	864a                	mv	a2,s2
   1a31c:	85a6                	mv	a1,s1
   1a31e:	2040b537          	lui	a0,0x2040b
   1a322:	79050513          	addi	a0,a0,1936 # 2040b790 <__BSS_END__+0x203ee6f0>
   1a326:	48f000ef          	jal	ra,1afb4 <__DATA_BEGIN__+0x9f3c>
   1a32a:	b759                	j	1a2b0 <__DATA_BEGIN__+0x9238>
   1a32c:	4791                	li	a5,4
   1a32e:	00a7e563          	bltu	a5,a0,1a338 <__DATA_BEGIN__+0x92c0>
   1a332:	01249023          	sh	s2,0(s1)
   1a336:	b7d5                	j	1a31a <__DATA_BEGIN__+0x92a2>
   1a338:	0124a023          	sw	s2,0(s1)
   1a33c:	bff9                	j	1a31a <__DATA_BEGIN__+0x92a2>
   1a33e:	2040b537          	lui	a0,0x2040b
   1a342:	7c450513          	addi	a0,a0,1988 # 2040b7c4 <__BSS_END__+0x203ee724>
   1a346:	46f000ef          	jal	ra,1afb4 <__DATA_BEGIN__+0x9f3c>
   1a34a:	b79d                	j	1a2b0 <__DATA_BEGIN__+0x9238>
   1a34c:	2040b5b7          	lui	a1,0x2040b
   1a350:	7e458593          	addi	a1,a1,2020 # 2040b7e4 <__BSS_END__+0x203ee744>
   1a354:	8522                	mv	a0,s0
   1a356:	542010ef          	jal	ra,1b898 <__DATA_BEGIN__+0xa820>
   1a35a:	e10d                	bnez	a0,1a37c <__DATA_BEGIN__+0x9304>
   1a35c:	5502                	lw	a0,32(sp)
   1a35e:	c901                	beqz	a0,1a36e <__DATA_BEGIN__+0x92f6>
   1a360:	4641                	li	a2,16
   1a362:	4581                	li	a1,0
   1a364:	053010ef          	jal	ra,1bbb6 <__DATA_BEGIN__+0xab3e>
   1a368:	00050067          	jr	a0
   1a36c:	b791                	j	1a2b0 <__DATA_BEGIN__+0x9238>
   1a36e:	2040b537          	lui	a0,0x2040b
   1a372:	7ec50513          	addi	a0,a0,2028 # 2040b7ec <__BSS_END__+0x203ee74c>
   1a376:	43f000ef          	jal	ra,1afb4 <__DATA_BEGIN__+0x9f3c>
   1a37a:	bf1d                	j	1a2b0 <__DATA_BEGIN__+0x9238>
   1a37c:	2040c5b7          	lui	a1,0x2040c
   1a380:	80458593          	addi	a1,a1,-2044 # 2040b804 <__BSS_END__+0x203ee764>
   1a384:	8522                	mv	a0,s0
   1a386:	512010ef          	jal	ra,1b898 <__DATA_BEGIN__+0xa820>
   1a38a:	e521                	bnez	a0,1a3d2 <__DATA_BEGIN__+0x935a>
   1a38c:	5502                	lw	a0,32(sp)
   1a38e:	c91d                	beqz	a0,1a3c4 <__DATA_BEGIN__+0x934c>
   1a390:	5792                	lw	a5,36(sp)
   1a392:	cb8d                	beqz	a5,1a3c4 <__DATA_BEGIN__+0x934c>
   1a394:	57a2                	lw	a5,40(sp)
   1a396:	c79d                	beqz	a5,1a3c4 <__DATA_BEGIN__+0x934c>
   1a398:	4641                	li	a2,16
   1a39a:	4581                	li	a1,0
   1a39c:	01b010ef          	jal	ra,1bbb6 <__DATA_BEGIN__+0xab3e>
   1a3a0:	10040437          	lui	s0,0x10040
   1a3a4:	c428                	sw	a0,72(s0)
   1a3a6:	4641                	li	a2,16
   1a3a8:	4581                	li	a1,0
   1a3aa:	5512                	lw	a0,36(sp)
   1a3ac:	00b010ef          	jal	ra,1bbb6 <__DATA_BEGIN__+0xab3e>
   1a3b0:	c468                	sw	a0,76(s0)
   1a3b2:	4641                	li	a2,16
   1a3b4:	4581                	li	a1,0
   1a3b6:	5522                	lw	a0,40(sp)
   1a3b8:	7fe010ef          	jal	ra,1bbb6 <__DATA_BEGIN__+0xab3e>
   1a3bc:	c828                	sw	a0,80(s0)
   1a3be:	4785                	li	a5,1
   1a3c0:	c07c                	sw	a5,68(s0)
   1a3c2:	b5fd                	j	1a2b0 <__DATA_BEGIN__+0x9238>
   1a3c4:	2040c537          	lui	a0,0x2040c
   1a3c8:	80850513          	addi	a0,a0,-2040 # 2040b808 <__BSS_END__+0x203ee768>
   1a3cc:	3e9000ef          	jal	ra,1afb4 <__DATA_BEGIN__+0x9f3c>
   1a3d0:	b5c5                	j	1a2b0 <__DATA_BEGIN__+0x9238>
   1a3d2:	2040c5b7          	lui	a1,0x2040c
   1a3d6:	82858593          	addi	a1,a1,-2008 # 2040b828 <__BSS_END__+0x203ee788>
   1a3da:	8522                	mv	a0,s0
   1a3dc:	4bc010ef          	jal	ra,1b898 <__DATA_BEGIN__+0xa820>
   1a3e0:	ed39                	bnez	a0,1a43e <__DATA_BEGIN__+0x93c6>
   1a3e2:	5402                	lw	s0,32(sp)
   1a3e4:	c431                	beqz	s0,1a430 <__DATA_BEGIN__+0x93b8>
   1a3e6:	00044783          	lbu	a5,0(s0) # 10040000 <__BSS_END__+0x10022f60>
   1a3ea:	03000713          	li	a4,48
   1a3ee:	04f77163          	bgeu	a4,a5,1a430 <__DATA_BEGIN__+0x93b8>
   1a3f2:	03400713          	li	a4,52
   1a3f6:	02f76d63          	bltu	a4,a5,1a430 <__DATA_BEGIN__+0x93b8>
   1a3fa:	5592                	lw	a1,36(sp)
   1a3fc:	c995                	beqz	a1,1a430 <__DATA_BEGIN__+0x93b8>
   1a3fe:	463d                	li	a2,15
   1a400:	0068                	addi	a0,sp,12
   1a402:	4d2010ef          	jal	ra,1b8d4 <__DATA_BEGIN__+0xa85c>
   1a406:	00044503          	lbu	a0,0(s0)
   1a40a:	fd050513          	addi	a0,a0,-48
   1a40e:	85aa                	mv	a1,a0
   1a410:	4632                	lw	a2,12(sp)
   1a412:	46c2                	lw	a3,16(sp)
   1a414:	4752                	lw	a4,20(sp)
   1a416:	47e2                	lw	a5,24(sp)
   1a418:	4509                	li	a0,2
   1a41a:	00300073          	0x300073
   1a41e:	e80519e3          	bnez	a0,1a2b0 <__DATA_BEGIN__+0x9238>
   1a422:	2040c537          	lui	a0,0x2040c
   1a426:	83050513          	addi	a0,a0,-2000 # 2040b830 <__BSS_END__+0x203ee790>
   1a42a:	38b000ef          	jal	ra,1afb4 <__DATA_BEGIN__+0x9f3c>
   1a42e:	b549                	j	1a2b0 <__DATA_BEGIN__+0x9238>
   1a430:	2040c537          	lui	a0,0x2040c
   1a434:	84450513          	addi	a0,a0,-1980 # 2040b844 <__BSS_END__+0x203ee7a4>
   1a438:	37d000ef          	jal	ra,1afb4 <__DATA_BEGIN__+0x9f3c>
   1a43c:	bd95                	j	1a2b0 <__DATA_BEGIN__+0x9238>
   1a43e:	2040c5b7          	lui	a1,0x2040c
   1a442:	86858593          	addi	a1,a1,-1944 # 2040b868 <__BSS_END__+0x203ee7c8>
   1a446:	8522                	mv	a0,s0
   1a448:	450010ef          	jal	ra,1b898 <__DATA_BEGIN__+0xa820>
   1a44c:	ed31                	bnez	a0,1a4a8 <__DATA_BEGIN__+0x9430>
   1a44e:	5782                	lw	a5,32(sp)
   1a450:	c7a9                	beqz	a5,1a49a <__DATA_BEGIN__+0x9422>
   1a452:	0007c783          	lbu	a5,0(a5)
   1a456:	03000713          	li	a4,48
   1a45a:	04f77063          	bgeu	a4,a5,1a49a <__DATA_BEGIN__+0x9422>
   1a45e:	03400713          	li	a4,52
   1a462:	02f76c63          	bltu	a4,a5,1a49a <__DATA_BEGIN__+0x9422>
   1a466:	fd078793          	addi	a5,a5,-48
   1a46a:	85be                	mv	a1,a5
   1a46c:	450d                	li	a0,3
   1a46e:	00300073          	0x300073
   1a472:	c632                	sw	a2,12(sp)
   1a474:	c836                	sw	a3,16(sp)
   1a476:	ca3a                	sw	a4,20(sp)
   1a478:	cc3e                	sw	a5,24(sp)
   1a47a:	c909                	beqz	a0,1a48c <__DATA_BEGIN__+0x9414>
   1a47c:	006c                	addi	a1,sp,12
   1a47e:	2040c537          	lui	a0,0x2040c
   1a482:	87050513          	addi	a0,a0,-1936 # 2040b870 <__BSS_END__+0x203ee7d0>
   1a486:	32f000ef          	jal	ra,1afb4 <__DATA_BEGIN__+0x9f3c>
   1a48a:	b51d                	j	1a2b0 <__DATA_BEGIN__+0x9238>
   1a48c:	2040c537          	lui	a0,0x2040c
   1a490:	88050513          	addi	a0,a0,-1920 # 2040b880 <__BSS_END__+0x203ee7e0>
   1a494:	321000ef          	jal	ra,1afb4 <__DATA_BEGIN__+0x9f3c>
   1a498:	bd21                	j	1a2b0 <__DATA_BEGIN__+0x9238>
   1a49a:	2040c537          	lui	a0,0x2040c
   1a49e:	89850513          	addi	a0,a0,-1896 # 2040b898 <__BSS_END__+0x203ee7f8>
   1a4a2:	313000ef          	jal	ra,1afb4 <__DATA_BEGIN__+0x9f3c>
   1a4a6:	b529                	j	1a2b0 <__DATA_BEGIN__+0x9238>
   1a4a8:	2040c5b7          	lui	a1,0x2040c
   1a4ac:	8b458593          	addi	a1,a1,-1868 # 2040b8b4 <__BSS_END__+0x203ee814>
   1a4b0:	8522                	mv	a0,s0
   1a4b2:	3e6010ef          	jal	ra,1b898 <__DATA_BEGIN__+0xa820>
   1a4b6:	ed1d                	bnez	a0,1a4f4 <__DATA_BEGIN__+0x947c>
   1a4b8:	4735                	li	a4,13
   1a4ba:	85ba                	mv	a1,a4
   1a4bc:	4521                	li	a0,8
   1a4be:	00300073          	0x300073
   1a4c2:	87aa                	mv	a5,a0
   1a4c4:	4501                	li	a0,0
   1a4c6:	00300073          	0x300073
   1a4ca:	85ba                	mv	a1,a4
   1a4cc:	4521                	li	a0,8
   1a4ce:	00300073          	0x300073
   1a4d2:	40f505b3          	sub	a1,a0,a5
   1a4d6:	0065d613          	srli	a2,a1,0x6
   1a4da:	c981                	beqz	a1,1a4ea <__DATA_BEGIN__+0x9472>
   1a4dc:	2040b537          	lui	a0,0x2040b
   1a4e0:	75450513          	addi	a0,a0,1876 # 2040b754 <__BSS_END__+0x203ee6b4>
   1a4e4:	2d1000ef          	jal	ra,1afb4 <__DATA_BEGIN__+0x9f3c>
   1a4e8:	b3e1                	j	1a2b0 <__DATA_BEGIN__+0x9238>
   1a4ea:	2040b537          	lui	a0,0x2040b
   1a4ee:	74450513          	addi	a0,a0,1860 # 2040b744 <__BSS_END__+0x203ee6a4>
   1a4f2:	bfcd                	j	1a4e4 <__DATA_BEGIN__+0x946c>
   1a4f4:	2040c5b7          	lui	a1,0x2040c
   1a4f8:	8bc58593          	addi	a1,a1,-1860 # 2040b8bc <__BSS_END__+0x203ee81c>
   1a4fc:	8522                	mv	a0,s0
   1a4fe:	39a010ef          	jal	ra,1b898 <__DATA_BEGIN__+0xa820>
   1a502:	e171                	bnez	a0,1a5c6 <__DATA_BEGIN__+0x954e>
   1a504:	5502                	lw	a0,32(sp)
   1a506:	c94d                	beqz	a0,1a5b8 <__DATA_BEGIN__+0x9540>
   1a508:	4629                	li	a2,10
   1a50a:	4581                	li	a1,0
   1a50c:	58a010ef          	jal	ra,1ba96 <__DATA_BEGIN__+0xaa1e>
   1a510:	87aa                	mv	a5,a0
   1a512:	862e                	mv	a2,a1
   1a514:	4511                	li	a0,4
   1a516:	00300073          	0x300073
   1a51a:	892e                	mv	s2,a1
   1a51c:	89aa                	mv	s3,a0
   1a51e:	0177d713          	srli	a4,a5,0x17
   1a522:	00961693          	slli	a3,a2,0x9
   1a526:	8ed9                	or	a3,a3,a4
   1a528:	00979713          	slli	a4,a5,0x9
   1a52c:	97ba                	add	a5,a5,a4
   1a52e:	00e7b733          	sltu	a4,a5,a4
   1a532:	96b2                	add	a3,a3,a2
   1a534:	9736                	add	a4,a4,a3
   1a536:	01b7d593          	srli	a1,a5,0x1b
   1a53a:	0716                	slli	a4,a4,0x5
   1a53c:	3e800613          	li	a2,1000
   1a540:	4681                	li	a3,0
   1a542:	00579513          	slli	a0,a5,0x5
   1a546:	8dd9                	or	a1,a1,a4
   1a548:	3f5000ef          	jal	ra,1b13c <__DATA_BEGIN__+0xa0c4>
   1a54c:	00a98a33          	add	s4,s3,a0
   1a550:	00aa37b3          	sltu	a5,s4,a0
   1a554:	00b90433          	add	s0,s2,a1
   1a558:	943e                	add	s0,s0,a5
   1a55a:	3e800493          	li	s1,1000
   1a55e:	03248933          	mul	s2,s1,s2
   1a562:	0334b5b3          	mulhu	a1,s1,s3
   1a566:	6611                	lui	a2,0x4
   1a568:	02060613          	addi	a2,a2,32 # 4020 <_binary_multizone_bin_size-0x8004>
   1a56c:	4681                	li	a3,0
   1a56e:	03348533          	mul	a0,s1,s3
   1a572:	95ca                	add	a1,a1,s2
   1a574:	3c9000ef          	jal	ra,1b13c <__DATA_BEGIN__+0xa0c4>
   1a578:	892a                	mv	s2,a0
   1a57a:	028485b3          	mul	a1,s1,s0
   1a57e:	0344b7b3          	mulhu	a5,s1,s4
   1a582:	6611                	lui	a2,0x4
   1a584:	02060613          	addi	a2,a2,32 # 4020 <_binary_multizone_bin_size-0x8004>
   1a588:	4681                	li	a3,0
   1a58a:	03448533          	mul	a0,s1,s4
   1a58e:	95be                	add	a1,a1,a5
   1a590:	3ad000ef          	jal	ra,1b13c <__DATA_BEGIN__+0xa0c4>
   1a594:	862a                	mv	a2,a0
   1a596:	85ca                	mv	a1,s2
   1a598:	2040c537          	lui	a0,0x2040c
   1a59c:	8c450513          	addi	a0,a0,-1852 # 2040b8c4 <__BSS_END__+0x203ee824>
   1a5a0:	215000ef          	jal	ra,1afb4 <__DATA_BEGIN__+0x9f3c>
   1a5a4:	85d2                	mv	a1,s4
   1a5a6:	8622                	mv	a2,s0
   1a5a8:	4519                	li	a0,6
   1a5aa:	00300073          	0x300073
   1a5ae:	08000793          	li	a5,128
   1a5b2:	3047a7f3          	csrrs	a5,mie,a5
   1a5b6:	b9ed                	j	1a2b0 <__DATA_BEGIN__+0x9238>
   1a5b8:	2040c537          	lui	a0,0x2040c
   1a5bc:	8e050513          	addi	a0,a0,-1824 # 2040b8e0 <__BSS_END__+0x203ee840>
   1a5c0:	1f5000ef          	jal	ra,1afb4 <__DATA_BEGIN__+0x9f3c>
   1a5c4:	b1f5                	j	1a2b0 <__DATA_BEGIN__+0x9238>
   1a5c6:	2040c5b7          	lui	a1,0x2040c
   1a5ca:	8f458593          	addi	a1,a1,-1804 # 2040b8f4 <__BSS_END__+0x203ee854>
   1a5ce:	8522                	mv	a0,s0
   1a5d0:	2c8010ef          	jal	ra,1b898 <__DATA_BEGIN__+0xa820>
   1a5d4:	cd01                	beqz	a0,1a5ec <__DATA_BEGIN__+0x9574>
   1a5d6:	2040c5b7          	lui	a1,0x2040c
   1a5da:	8fc58593          	addi	a1,a1,-1796 # 2040b8fc <__BSS_END__+0x203ee85c>
   1a5de:	8522                	mv	a0,s0
   1a5e0:	2b8010ef          	jal	ra,1b898 <__DATA_BEGIN__+0xa820>
   1a5e4:	e519                	bnez	a0,1a5f2 <__DATA_BEGIN__+0x957a>
   1a5e6:	a93fe06f          	j	19078 <__DATA_BEGIN__+0x8000>
   1a5ea:	b1d9                	j	1a2b0 <__DATA_BEGIN__+0x9238>
   1a5ec:	f78ff0ef          	jal	ra,19d64 <__DATA_BEGIN__+0x8cec>
   1a5f0:	b1c1                	j	1a2b0 <__DATA_BEGIN__+0x9238>
   1a5f2:	2040c5b7          	lui	a1,0x2040c
   1a5f6:	90458593          	addi	a1,a1,-1788 # 2040b904 <__BSS_END__+0x203ee864>
   1a5fa:	8522                	mv	a0,s0
   1a5fc:	29c010ef          	jal	ra,1b898 <__DATA_BEGIN__+0xa820>
   1a600:	cd01                	beqz	a0,1a618 <__DATA_BEGIN__+0x95a0>
   1a602:	2040c5b7          	lui	a1,0x2040c
   1a606:	90858593          	addi	a1,a1,-1784 # 2040b908 <__BSS_END__+0x203ee868>
   1a60a:	8522                	mv	a0,s0
   1a60c:	28c010ef          	jal	ra,1b898 <__DATA_BEGIN__+0xa820>
   1a610:	e519                	bnez	a0,1a61e <__DATA_BEGIN__+0x95a6>
   1a612:	00000073          	ecall
   1a616:	b969                	j	1a2b0 <__DATA_BEGIN__+0x9238>
   1a618:	9ddff0ef          	jal	ra,19ff4 <__DATA_BEGIN__+0x8f7c>
   1a61c:	b951                	j	1a2b0 <__DATA_BEGIN__+0x9238>
   1a61e:	2040c5b7          	lui	a1,0x2040c
   1a622:	91058593          	addi	a1,a1,-1776 # 2040b910 <__BSS_END__+0x203ee870>
   1a626:	8522                	mv	a0,s0
   1a628:	270010ef          	jal	ra,1b898 <__DATA_BEGIN__+0xa820>
   1a62c:	e905                	bnez	a0,1a65c <__DATA_BEGIN__+0x95e4>
   1a62e:	4735                	li	a4,13
   1a630:	85ba                	mv	a1,a4
   1a632:	4521                	li	a0,8
   1a634:	00300073          	0x300073
   1a638:	862a                	mv	a2,a0
   1a63a:	344026f3          	csrr	a3,mip
   1a63e:	c636                	sw	a3,12(sp)
   1a640:	85ba                	mv	a1,a4
   1a642:	4521                	li	a0,8
   1a644:	00300073          	0x300073
   1a648:	45b2                	lw	a1,12(sp)
   1a64a:	40c50633          	sub	a2,a0,a2
   1a64e:	2040c537          	lui	a0,0x2040c
   1a652:	91850513          	addi	a0,a0,-1768 # 2040b918 <__BSS_END__+0x203ee878>
   1a656:	15f000ef          	jal	ra,1afb4 <__DATA_BEGIN__+0x9f3c>
   1a65a:	b999                	j	1a2b0 <__DATA_BEGIN__+0x9238>
   1a65c:	2040c537          	lui	a0,0x2040c
   1a660:	93050513          	addi	a0,a0,-1744 # 2040b930 <__BSS_END__+0x203ee890>
   1a664:	151000ef          	jal	ra,1afb4 <__DATA_BEGIN__+0x9f3c>
   1a668:	2040c537          	lui	a0,0x2040c
   1a66c:	97450513          	addi	a0,a0,-1676 # 2040b974 <__BSS_END__+0x203ee8d4>
   1a670:	145000ef          	jal	ra,1afb4 <__DATA_BEGIN__+0x9f3c>
   1a674:	2040c537          	lui	a0,0x2040c
   1a678:	c1050513          	addi	a0,a0,-1008 # 2040bc10 <__BSS_END__+0x203eeb70>
   1a67c:	139000ef          	jal	ra,1afb4 <__DATA_BEGIN__+0x9f3c>
   1a680:	b905                	j	1a2b0 <__DATA_BEGIN__+0x9238>
   1a682:	1141                	addi	sp,sp,-16
   1a684:	c606                	sw	ra,12(sp)
   1a686:	c422                	sw	s0,8(sp)
   1a688:	304467f3          	csrrsi	a5,mie,8
   1a68c:	000807b7          	lui	a5,0x80
   1a690:	3047a7f3          	csrrs	a5,mie,a5
   1a694:	6785                	lui	a5,0x1
   1a696:	80078793          	addi	a5,a5,-2048 # 800 <_binary_multizone_bin_size-0xb824>
   1a69a:	3047a7f3          	csrrs	a5,mie,a5
   1a69e:	0c0007b7          	lui	a5,0xc000
   1a6a2:	4705                	li	a4,1
   1a6a4:	c7d8                	sw	a4,12(a5)
   1a6a6:	0c002737          	lui	a4,0xc002
   1a6aa:	431c                	lw	a5,0(a4)
   1a6ac:	0087e793          	ori	a5,a5,8
   1a6b0:	c31c                	sw	a5,0(a4)
   1a6b2:	300467f3          	csrrsi	a5,mstatus,8
   1a6b6:	4601                	li	a2,0
   1a6b8:	4581                	li	a1,0
   1a6ba:	2040c537          	lui	a0,0x2040c
   1a6be:	97c50513          	addi	a0,a0,-1668 # 2040b97c <__BSS_END__+0x203ee8dc>
   1a6c2:	508010ef          	jal	ra,1bbca <__DATA_BEGIN__+0xab52>
   1a6c6:	2040c537          	lui	a0,0x2040c
   1a6ca:	98450513          	addi	a0,a0,-1660 # 2040b984 <__BSS_END__+0x203ee8e4>
   1a6ce:	0e7000ef          	jal	ra,1afb4 <__DATA_BEGIN__+0x9f3c>
   1a6d2:	2040c437          	lui	s0,0x2040c
   1a6d6:	98c40513          	addi	a0,s0,-1652 # 2040b98c <__BSS_END__+0x203ee8ec>
   1a6da:	0db000ef          	jal	ra,1afb4 <__DATA_BEGIN__+0x9f3c>
   1a6de:	2040c537          	lui	a0,0x2040c
   1a6e2:	9d450513          	addi	a0,a0,-1580 # 2040b9d4 <__BSS_END__+0x203ee934>
   1a6e6:	0cf000ef          	jal	ra,1afb4 <__DATA_BEGIN__+0x9f3c>
   1a6ea:	2040c537          	lui	a0,0x2040c
   1a6ee:	a1c50513          	addi	a0,a0,-1508 # 2040ba1c <__BSS_END__+0x203ee97c>
   1a6f2:	0c3000ef          	jal	ra,1afb4 <__DATA_BEGIN__+0x9f3c>
   1a6f6:	2040c537          	lui	a0,0x2040c
   1a6fa:	a6450513          	addi	a0,a0,-1436 # 2040ba64 <__BSS_END__+0x203ee9c4>
   1a6fe:	0b7000ef          	jal	ra,1afb4 <__DATA_BEGIN__+0x9f3c>
   1a702:	98c40513          	addi	a0,s0,-1652
   1a706:	0af000ef          	jal	ra,1afb4 <__DATA_BEGIN__+0x9f3c>
   1a70a:	2040c537          	lui	a0,0x2040c
   1a70e:	aac50513          	addi	a0,a0,-1364 # 2040baac <__BSS_END__+0x203eea0c>
   1a712:	0a3000ef          	jal	ra,1afb4 <__DATA_BEGIN__+0x9f3c>
   1a716:	2040c537          	lui	a0,0x2040c
   1a71a:	af450513          	addi	a0,a0,-1292 # 2040baf4 <__BSS_END__+0x203eea54>
   1a71e:	097000ef          	jal	ra,1afb4 <__DATA_BEGIN__+0x9f3c>
   1a722:	2040c537          	lui	a0,0x2040c
   1a726:	b3c50513          	addi	a0,a0,-1220 # 2040bb3c <__BSS_END__+0x203eea9c>
   1a72a:	08b000ef          	jal	ra,1afb4 <__DATA_BEGIN__+0x9f3c>
   1a72e:	2040c537          	lui	a0,0x2040c
   1a732:	b8450513          	addi	a0,a0,-1148 # 2040bb84 <__BSS_END__+0x203eeae4>
   1a736:	07f000ef          	jal	ra,1afb4 <__DATA_BEGIN__+0x9f3c>
   1a73a:	2040c537          	lui	a0,0x2040c
   1a73e:	bcc50513          	addi	a0,a0,-1076 # 2040bbcc <__BSS_END__+0x203eeb2c>
   1a742:	073000ef          	jal	ra,1afb4 <__DATA_BEGIN__+0x9f3c>
   1a746:	98c40513          	addi	a0,s0,-1652
   1a74a:	06b000ef          	jal	ra,1afb4 <__DATA_BEGIN__+0x9f3c>
   1a74e:	c2cff0ef          	jal	ra,19b7a <__DATA_BEGIN__+0x8b02>
   1a752:	461d                	li	a2,7
   1a754:	2040c5b7          	lui	a1,0x2040c
   1a758:	c1458593          	addi	a1,a1,-1004 # 2040bc14 <__BSS_END__+0x203eeb74>
   1a75c:	4505                	li	a0,1
   1a75e:	4a6010ef          	jal	ra,1bc04 <__DATA_BEGIN__+0xab8c>
   1a762:	a00d                	j	1a784 <__DATA_BEGIN__+0x970c>
   1a764:	acdff0ef          	jal	ra,1a230 <__DATA_BEGIN__+0x91b8>
   1a768:	461d                	li	a2,7
   1a76a:	2040c5b7          	lui	a1,0x2040c
   1a76e:	c1458593          	addi	a1,a1,-1004 # 2040bc14 <__BSS_END__+0x203eeb74>
   1a772:	4505                	li	a0,1
   1a774:	490010ef          	jal	ra,1bc04 <__DATA_BEGIN__+0xab8c>
   1a778:	98018a23          	sb	zero,-1644(gp) # 1c234 <__DATA_BEGIN__+0xb1bc>
   1a77c:	a039                	j	1a78a <__DATA_BEGIN__+0x9712>
   1a77e:	4501                	li	a0,0
   1a780:	00300073          	0x300073
   1a784:	f21fe0ef          	jal	ra,196a4 <__DATA_BEGIN__+0x862c>
   1a788:	fd71                	bnez	a0,1a764 <__DATA_BEGIN__+0x96ec>
   1a78a:	9efff0ef          	jal	ra,1a178 <__DATA_BEGIN__+0x9100>
   1a78e:	a39fe0ef          	jal	ra,191c6 <__DATA_BEGIN__+0x814e>
   1a792:	d575                	beqz	a0,1a77e <__DATA_BEGIN__+0x9706>
   1a794:	ec9fe0ef          	jal	ra,1965c <__DATA_BEGIN__+0x85e4>
   1a798:	d17d                	beqz	a0,1a77e <__DATA_BEGIN__+0x9706>
   1a79a:	4505                	li	a0,1
   1a79c:	00300073          	0x300073
   1a7a0:	b7d5                	j	1a784 <__DATA_BEGIN__+0x970c>
   1a7a2:	00d67563          	bgeu	a2,a3,1a7ac <__DATA_BEGIN__+0x9734>
   1a7a6:	95b2                	add	a1,a1,a2
   1a7a8:	00a58023          	sb	a0,0(a1)
   1a7ac:	8082                	ret
   1a7ae:	8082                	ret
   1a7b0:	86aa                	mv	a3,a0
   1a7b2:	4501                	li	a0,0
   1a7b4:	a831                	j	1a7d0 <__DATA_BEGIN__+0x9758>
   1a7b6:	00251793          	slli	a5,a0,0x2
   1a7ba:	953e                	add	a0,a0,a5
   1a7bc:	00151793          	slli	a5,a0,0x1
   1a7c0:	00170613          	addi	a2,a4,1 # c002001 <__BSS_END__+0xbfe4f61>
   1a7c4:	c290                	sw	a2,0(a3)
   1a7c6:	00074503          	lbu	a0,0(a4)
   1a7ca:	953e                	add	a0,a0,a5
   1a7cc:	fd050513          	addi	a0,a0,-48
   1a7d0:	4298                	lw	a4,0(a3)
   1a7d2:	00074783          	lbu	a5,0(a4)
   1a7d6:	fd078793          	addi	a5,a5,-48 # bffffd0 <__BSS_END__+0xbfe2f30>
   1a7da:	0ff7f793          	andi	a5,a5,255
   1a7de:	4625                	li	a2,9
   1a7e0:	fcf67be3          	bgeu	a2,a5,1a7b6 <__DATA_BEGIN__+0x973e>
   1a7e4:	8082                	ret
   1a7e6:	7179                	addi	sp,sp,-48
   1a7e8:	d606                	sw	ra,44(sp)
   1a7ea:	d422                	sw	s0,40(sp)
   1a7ec:	d226                	sw	s1,36(sp)
   1a7ee:	d04a                	sw	s2,32(sp)
   1a7f0:	ce4e                	sw	s3,28(sp)
   1a7f2:	cc52                	sw	s4,24(sp)
   1a7f4:	ca56                	sw	s5,20(sp)
   1a7f6:	c85a                	sw	s6,16(sp)
   1a7f8:	c65e                	sw	s7,12(sp)
   1a7fa:	c462                	sw	s8,8(sp)
   1a7fc:	c266                	sw	s9,4(sp)
   1a7fe:	84aa                	mv	s1,a0
   1a800:	892e                	mv	s2,a1
   1a802:	8bb2                	mv	s7,a2
   1a804:	89b6                	mv	s3,a3
   1a806:	8b3a                	mv	s6,a4
   1a808:	843e                	mv	s0,a5
   1a80a:	8ac2                	mv	s5,a6
   1a80c:	8c46                	mv	s8,a7
   1a80e:	0038f793          	andi	a5,a7,3
   1a812:	eb8d                	bnez	a5,1a844 <__DATA_BEGIN__+0x97cc>
   1a814:	8a22                	mv	s4,s0
   1a816:	035a7763          	bgeu	s4,s5,1a844 <__DATA_BEGIN__+0x97cc>
   1a81a:	00160c93          	addi	s9,a2,1
   1a81e:	86ce                	mv	a3,s3
   1a820:	85ca                	mv	a1,s2
   1a822:	02000513          	li	a0,32
   1a826:	9482                	jalr	s1
   1a828:	0a05                	addi	s4,s4,1
   1a82a:	8666                	mv	a2,s9
   1a82c:	b7ed                	j	1a816 <__DATA_BEGIN__+0x979e>
   1a82e:	147d                	addi	s0,s0,-1
   1a830:	008b07b3          	add	a5,s6,s0
   1a834:	00160a13          	addi	s4,a2,1
   1a838:	86ce                	mv	a3,s3
   1a83a:	85ca                	mv	a1,s2
   1a83c:	0007c503          	lbu	a0,0(a5)
   1a840:	9482                	jalr	s1
   1a842:	8652                	mv	a2,s4
   1a844:	f46d                	bnez	s0,1a82e <__DATA_BEGIN__+0x97b6>
   1a846:	002c7c13          	andi	s8,s8,2
   1a84a:	020c1063          	bnez	s8,1a86a <__DATA_BEGIN__+0x97f2>
   1a84e:	8532                	mv	a0,a2
   1a850:	50b2                	lw	ra,44(sp)
   1a852:	5422                	lw	s0,40(sp)
   1a854:	5492                	lw	s1,36(sp)
   1a856:	5902                	lw	s2,32(sp)
   1a858:	49f2                	lw	s3,28(sp)
   1a85a:	4a62                	lw	s4,24(sp)
   1a85c:	4ad2                	lw	s5,20(sp)
   1a85e:	4b42                	lw	s6,16(sp)
   1a860:	4bb2                	lw	s7,12(sp)
   1a862:	4c22                	lw	s8,8(sp)
   1a864:	4c92                	lw	s9,4(sp)
   1a866:	6145                	addi	sp,sp,48
   1a868:	8082                	ret
   1a86a:	417607b3          	sub	a5,a2,s7
   1a86e:	ff57f0e3          	bgeu	a5,s5,1a84e <__DATA_BEGIN__+0x97d6>
   1a872:	00160413          	addi	s0,a2,1
   1a876:	86ce                	mv	a3,s3
   1a878:	85ca                	mv	a1,s2
   1a87a:	02000513          	li	a0,32
   1a87e:	9482                	jalr	s1
   1a880:	8622                	mv	a2,s0
   1a882:	b7e5                	j	1a86a <__DATA_BEGIN__+0x97f2>
   1a884:	1141                	addi	sp,sp,-16
   1a886:	c606                	sw	ra,12(sp)
   1a888:	8fc2                	mv	t6,a6
   1a88a:	8f46                	mv	t5,a7
   1a88c:	4ec2                	lw	t4,16(sp)
   1a88e:	4852                	lw	a6,20(sp)
   1a890:	48e2                	lw	a7,24(sp)
   1a892:	0028f313          	andi	t1,a7,2
   1a896:	04031d63          	bnez	t1,1a8f0 <__DATA_BEGIN__+0x9878>
   1a89a:	02080563          	beqz	a6,1a8c4 <__DATA_BEGIN__+0x984c>
   1a89e:	0018f313          	andi	t1,a7,1
   1a8a2:	02030163          	beqz	t1,1a8c4 <__DATA_BEGIN__+0x984c>
   1a8a6:	000f9663          	bnez	t6,1a8b2 <__DATA_BEGIN__+0x983a>
   1a8aa:	00c8f313          	andi	t1,a7,12
   1a8ae:	00030b63          	beqz	t1,1a8c4 <__DATA_BEGIN__+0x984c>
   1a8b2:	187d                	addi	a6,a6,-1
   1a8b4:	a801                	j	1a8c4 <__DATA_BEGIN__+0x984c>
   1a8b6:	00f70333          	add	t1,a4,a5
   1a8ba:	03000e13          	li	t3,48
   1a8be:	01c30023          	sb	t3,0(t1) # ffffffffffffb000 <__BSS_END__+0xfffffffffffddf60>
   1a8c2:	0785                	addi	a5,a5,1
   1a8c4:	01d7f563          	bgeu	a5,t4,1a8ce <__DATA_BEGIN__+0x9856>
   1a8c8:	437d                	li	t1,31
   1a8ca:	fef376e3          	bgeu	t1,a5,1a8b6 <__DATA_BEGIN__+0x983e>
   1a8ce:	0018f313          	andi	t1,a7,1
   1a8d2:	00030f63          	beqz	t1,1a8f0 <__DATA_BEGIN__+0x9878>
   1a8d6:	0107fd63          	bgeu	a5,a6,1a8f0 <__DATA_BEGIN__+0x9878>
   1a8da:	437d                	li	t1,31
   1a8dc:	00f36a63          	bltu	t1,a5,1a8f0 <__DATA_BEGIN__+0x9878>
   1a8e0:	00f70333          	add	t1,a4,a5
   1a8e4:	03000e13          	li	t3,48
   1a8e8:	01c30023          	sb	t3,0(t1)
   1a8ec:	0785                	addi	a5,a5,1
   1a8ee:	b7c5                	j	1a8ce <__DATA_BEGIN__+0x9856>
   1a8f0:	0108f313          	andi	t1,a7,16
   1a8f4:	02030e63          	beqz	t1,1a930 <__DATA_BEGIN__+0x98b8>
   1a8f8:	4008f313          	andi	t1,a7,1024
   1a8fc:	00031763          	bnez	t1,1a90a <__DATA_BEGIN__+0x9892>
   1a900:	c789                	beqz	a5,1a90a <__DATA_BEGIN__+0x9892>
   1a902:	05d78763          	beq	a5,t4,1a950 <__DATA_BEGIN__+0x98d8>
   1a906:	05078563          	beq	a5,a6,1a950 <__DATA_BEGIN__+0x98d8>
   1a90a:	4341                	li	t1,16
   1a90c:	046f0f63          	beq	t5,t1,1a96a <__DATA_BEGIN__+0x98f2>
   1a910:	4341                	li	t1,16
   1a912:	066f0b63          	beq	t5,t1,1a988 <__DATA_BEGIN__+0x9910>
   1a916:	4309                	li	t1,2
   1a918:	086f0763          	beq	t5,t1,1a9a6 <__DATA_BEGIN__+0x992e>
   1a91c:	437d                	li	t1,31
   1a91e:	00f36963          	bltu	t1,a5,1a930 <__DATA_BEGIN__+0x98b8>
   1a922:	00f70333          	add	t1,a4,a5
   1a926:	03000e13          	li	t3,48
   1a92a:	01c30023          	sb	t3,0(t1)
   1a92e:	0785                	addi	a5,a5,1
   1a930:	437d                	li	t1,31
   1a932:	00f36b63          	bltu	t1,a5,1a948 <__DATA_BEGIN__+0x98d0>
   1a936:	080f8363          	beqz	t6,1a9bc <__DATA_BEGIN__+0x9944>
   1a93a:	00f70333          	add	t1,a4,a5
   1a93e:	02d00e13          	li	t3,45
   1a942:	01c30023          	sb	t3,0(t1)
   1a946:	0785                	addi	a5,a5,1
   1a948:	3d79                	addiw	s10,s10,-2
   1a94a:	40b2                	lw	ra,12(sp)
   1a94c:	0141                	addi	sp,sp,16
   1a94e:	8082                	ret
   1a950:	fff78313          	addi	t1,a5,-1
   1a954:	00030963          	beqz	t1,1a966 <__DATA_BEGIN__+0x98ee>
   1a958:	4e41                	li	t3,16
   1a95a:	01cf0463          	beq	t5,t3,1a962 <__DATA_BEGIN__+0x98ea>
   1a95e:	879a                	mv	a5,t1
   1a960:	b76d                	j	1a90a <__DATA_BEGIN__+0x9892>
   1a962:	17f9                	addi	a5,a5,-2
   1a964:	b75d                	j	1a90a <__DATA_BEGIN__+0x9892>
   1a966:	879a                	mv	a5,t1
   1a968:	b74d                	j	1a90a <__DATA_BEGIN__+0x9892>
   1a96a:	0208f313          	andi	t1,a7,32
   1a96e:	fa0311e3          	bnez	t1,1a910 <__DATA_BEGIN__+0x9898>
   1a972:	437d                	li	t1,31
   1a974:	f8f36ee3          	bltu	t1,a5,1a910 <__DATA_BEGIN__+0x9898>
   1a978:	00f70333          	add	t1,a4,a5
   1a97c:	07800e13          	li	t3,120
   1a980:	01c30023          	sb	t3,0(t1)
   1a984:	0785                	addi	a5,a5,1
   1a986:	bf59                	j	1a91c <__DATA_BEGIN__+0x98a4>
   1a988:	0208f313          	andi	t1,a7,32
   1a98c:	f80305e3          	beqz	t1,1a916 <__DATA_BEGIN__+0x989e>
   1a990:	437d                	li	t1,31
   1a992:	f8f362e3          	bltu	t1,a5,1a916 <__DATA_BEGIN__+0x989e>
   1a996:	00f70333          	add	t1,a4,a5
   1a99a:	05800e13          	li	t3,88
   1a99e:	01c30023          	sb	t3,0(t1)
   1a9a2:	0785                	addi	a5,a5,1
   1a9a4:	bfa5                	j	1a91c <__DATA_BEGIN__+0x98a4>
   1a9a6:	437d                	li	t1,31
   1a9a8:	f6f36ae3          	bltu	t1,a5,1a91c <__DATA_BEGIN__+0x98a4>
   1a9ac:	00f70333          	add	t1,a4,a5
   1a9b0:	06200e13          	li	t3,98
   1a9b4:	01c30023          	sb	t3,0(t1)
   1a9b8:	0785                	addi	a5,a5,1
   1a9ba:	b78d                	j	1a91c <__DATA_BEGIN__+0x98a4>
   1a9bc:	0048f313          	andi	t1,a7,4
   1a9c0:	00030a63          	beqz	t1,1a9d4 <__DATA_BEGIN__+0x995c>
   1a9c4:	00f70333          	add	t1,a4,a5
   1a9c8:	02b00e13          	li	t3,43
   1a9cc:	01c30023          	sb	t3,0(t1)
   1a9d0:	0785                	addi	a5,a5,1
   1a9d2:	bf9d                	j	1a948 <__DATA_BEGIN__+0x98d0>
   1a9d4:	0088f313          	andi	t1,a7,8
   1a9d8:	f60308e3          	beqz	t1,1a948 <__DATA_BEGIN__+0x98d0>
   1a9dc:	00f70333          	add	t1,a4,a5
   1a9e0:	02000e13          	li	t3,32
   1a9e4:	01c30023          	sb	t3,0(t1)
   1a9e8:	0785                	addi	a5,a5,1
   1a9ea:	bfb9                	j	1a948 <__DATA_BEGIN__+0x98d0>
   1a9ec:	7139                	addi	sp,sp,-64
   1a9ee:	de06                	sw	ra,60(sp)
   1a9f0:	8fbe                	mv	t6,a5
   1a9f2:	4f16                	lw	t5,68(sp)
   1a9f4:	e319                	bnez	a4,1a9fa <__DATA_BEGIN__+0x9982>
   1a9f6:	feff7f13          	andi	t5,t5,-17
   1a9fa:	400f7e93          	andi	t4,t5,1024
   1a9fe:	020e8963          	beqz	t4,1aa30 <__DATA_BEGIN__+0x99b8>
   1aa02:	cf31                	beqz	a4,1aa5e <__DATA_BEGIN__+0x99e6>
   1aa04:	4e81                	li	t4,0
   1aa06:	a02d                	j	1aa30 <__DATA_BEGIN__+0x99b8>
   1aa08:	030e0313          	addi	t1,t3,48 # 1d030 <__global_pointer$+0x790>
   1aa0c:	0ff37313          	andi	t1,t1,255
   1aa10:	001e8793          	addi	a5,t4,1
   1aa14:	03010e13          	addi	t3,sp,48
   1aa18:	9ef2                	add	t4,t4,t3
   1aa1a:	fe6e8023          	sb	t1,-32(t4)
   1aa1e:	03075333          	divu	t1,a4,a6
   1aa22:	03076f63          	bltu	a4,a6,1aa60 <__DATA_BEGIN__+0x99e8>
   1aa26:	477d                	li	a4,31
   1aa28:	02f76c63          	bltu	a4,a5,1aa60 <__DATA_BEGIN__+0x99e8>
   1aa2c:	8ebe                	mv	t4,a5
   1aa2e:	871a                	mv	a4,t1
   1aa30:	03077333          	remu	t1,a4,a6
   1aa34:	0ff37e13          	andi	t3,t1,255
   1aa38:	4325                	li	t1,9
   1aa3a:	fdc377e3          	bgeu	t1,t3,1aa08 <__DATA_BEGIN__+0x9990>
   1aa3e:	020f7313          	andi	t1,t5,32
   1aa42:	00030b63          	beqz	t1,1aa58 <__DATA_BEGIN__+0x99e0>
   1aa46:	04100313          	li	t1,65
   1aa4a:	9372                	add	t1,t1,t3
   1aa4c:	0ff37313          	andi	t1,t1,255
   1aa50:	1359                	addi	t1,t1,-10
   1aa52:	0ff37313          	andi	t1,t1,255
   1aa56:	bf6d                	j	1aa10 <__DATA_BEGIN__+0x9998>
   1aa58:	06100313          	li	t1,97
   1aa5c:	b7fd                	j	1aa4a <__DATA_BEGIN__+0x99d2>
   1aa5e:	87ba                	mv	a5,a4
   1aa60:	c47a                	sw	t5,8(sp)
   1aa62:	4706                	lw	a4,64(sp)
   1aa64:	c23a                	sw	a4,4(sp)
   1aa66:	c046                	sw	a7,0(sp)
   1aa68:	88c2                	mv	a7,a6
   1aa6a:	887e                	mv	a6,t6
   1aa6c:	0818                	addi	a4,sp,16
   1aa6e:	3d19                	addiw	s10,s10,-26
   1aa70:	50f2                	lw	ra,60(sp)
   1aa72:	6121                	addi	sp,sp,64
   1aa74:	8082                	ret
   1aa76:	711d                	addi	sp,sp,-96
   1aa78:	ce86                	sw	ra,92(sp)
   1aa7a:	cca2                	sw	s0,88(sp)
   1aa7c:	caa6                	sw	s1,84(sp)
   1aa7e:	c8ca                	sw	s2,80(sp)
   1aa80:	c6ce                	sw	s3,76(sp)
   1aa82:	c4d2                	sw	s4,72(sp)
   1aa84:	c2d6                	sw	s5,68(sp)
   1aa86:	c0da                	sw	s6,64(sp)
   1aa88:	de5e                	sw	s7,60(sp)
   1aa8a:	dc62                	sw	s8,56(sp)
   1aa8c:	da66                	sw	s9,52(sp)
   1aa8e:	d86a                	sw	s10,48(sp)
   1aa90:	d66e                	sw	s11,44(sp)
   1aa92:	8a2a                	mv	s4,a0
   1aa94:	89ae                	mv	s3,a1
   1aa96:	8932                	mv	s2,a2
   1aa98:	ce36                	sw	a3,28(sp)
   1aa9a:	cc3a                	sw	a4,24(sp)
   1aa9c:	4c058563          	beqz	a1,1af66 <__DATA_BEGIN__+0x9eee>
   1aaa0:	4401                	li	s0,0
   1aaa2:	47f2                	lw	a5,28(sp)
   1aaa4:	0007c503          	lbu	a0,0(a5)
   1aaa8:	4c050463          	beqz	a0,1af70 <__DATA_BEGIN__+0x9ef8>
   1aaac:	02500713          	li	a4,37
   1aab0:	00e50d63          	beq	a0,a4,1aaca <__DATA_BEGIN__+0x9a52>
   1aab4:	00140493          	addi	s1,s0,1
   1aab8:	86ca                	mv	a3,s2
   1aaba:	8622                	mv	a2,s0
   1aabc:	85ce                	mv	a1,s3
   1aabe:	9a02                	jalr	s4
   1aac0:	47f2                	lw	a5,28(sp)
   1aac2:	0785                	addi	a5,a5,1
   1aac4:	ce3e                	sw	a5,28(sp)
   1aac6:	8426                	mv	s0,s1
   1aac8:	bfe9                	j	1aaa2 <__DATA_BEGIN__+0x9a2a>
   1aaca:	0785                	addi	a5,a5,1
   1aacc:	ce3e                	sw	a5,28(sp)
   1aace:	4481                	li	s1,0
   1aad0:	4772                	lw	a4,28(sp)
   1aad2:	00074603          	lbu	a2,0(a4)
   1aad6:	fe060793          	addi	a5,a2,-32
   1aada:	0ff7f593          	andi	a1,a5,255
   1aade:	46c1                	li	a3,16
   1aae0:	00b6eb63          	bltu	a3,a1,1aaf6 <__DATA_BEGIN__+0x9a7e>
   1aae4:	00259793          	slli	a5,a1,0x2
   1aae8:	2040c6b7          	lui	a3,0x2040c
   1aaec:	c1c68693          	addi	a3,a3,-996 # 2040bc1c <__BSS_END__+0x203eeb7c>
   1aaf0:	97b6                	add	a5,a5,a3
   1aaf2:	439c                	lw	a5,0(a5)
   1aaf4:	8782                	jr	a5
   1aaf6:	fd060793          	addi	a5,a2,-48
   1aafa:	0ff7f793          	andi	a5,a5,255
   1aafe:	4725                	li	a4,9
   1ab00:	0af77163          	bgeu	a4,a5,1aba2 <__DATA_BEGIN__+0x9b2a>
   1ab04:	02a00793          	li	a5,42
   1ab08:	0af60163          	beq	a2,a5,1abaa <__DATA_BEGIN__+0x9b32>
   1ab0c:	4b01                	li	s6,0
   1ab0e:	47f2                	lw	a5,28(sp)
   1ab10:	0007c683          	lbu	a3,0(a5)
   1ab14:	02e00713          	li	a4,46
   1ab18:	0ae68a63          	beq	a3,a4,1abcc <__DATA_BEGIN__+0x9b54>
   1ab1c:	4a81                	li	s5,0
   1ab1e:	4772                	lw	a4,28(sp)
   1ab20:	00074783          	lbu	a5,0(a4)
   1ab24:	06c00693          	li	a3,108
   1ab28:	10d78263          	beq	a5,a3,1ac2c <__DATA_BEGIN__+0x9bb4>
   1ab2c:	0ef6e763          	bltu	a3,a5,1ac1a <__DATA_BEGIN__+0x9ba2>
   1ab30:	06800693          	li	a3,104
   1ab34:	10d78e63          	beq	a5,a3,1ac50 <__DATA_BEGIN__+0x9bd8>
   1ab38:	06a00693          	li	a3,106
   1ab3c:	00d79663          	bne	a5,a3,1ab48 <__DATA_BEGIN__+0x9ad0>
   1ab40:	2004e493          	ori	s1,s1,512
   1ab44:	0705                	addi	a4,a4,1
   1ab46:	ce3a                	sw	a4,28(sp)
   1ab48:	47f2                	lw	a5,28(sp)
   1ab4a:	0007c503          	lbu	a0,0(a5)
   1ab4e:	fdb50793          	addi	a5,a0,-37
   1ab52:	0ff7f693          	andi	a3,a5,255
   1ab56:	05300713          	li	a4,83
   1ab5a:	3ed76b63          	bltu	a4,a3,1af50 <__DATA_BEGIN__+0x9ed8>
   1ab5e:	00269793          	slli	a5,a3,0x2
   1ab62:	2040c737          	lui	a4,0x2040c
   1ab66:	c6070713          	addi	a4,a4,-928 # 2040bc60 <__BSS_END__+0x203eebc0>
   1ab6a:	97ba                	add	a5,a5,a4
   1ab6c:	439c                	lw	a5,0(a5)
   1ab6e:	8782                	jr	a5
   1ab70:	0014e493          	ori	s1,s1,1
   1ab74:	0705                	addi	a4,a4,1
   1ab76:	ce3a                	sw	a4,28(sp)
   1ab78:	bfa1                	j	1aad0 <__DATA_BEGIN__+0x9a58>
   1ab7a:	0024e493          	ori	s1,s1,2
   1ab7e:	0705                	addi	a4,a4,1
   1ab80:	ce3a                	sw	a4,28(sp)
   1ab82:	b7b9                	j	1aad0 <__DATA_BEGIN__+0x9a58>
   1ab84:	0044e493          	ori	s1,s1,4
   1ab88:	0705                	addi	a4,a4,1
   1ab8a:	ce3a                	sw	a4,28(sp)
   1ab8c:	b791                	j	1aad0 <__DATA_BEGIN__+0x9a58>
   1ab8e:	0084e493          	ori	s1,s1,8
   1ab92:	0705                	addi	a4,a4,1
   1ab94:	ce3a                	sw	a4,28(sp)
   1ab96:	bf2d                	j	1aad0 <__DATA_BEGIN__+0x9a58>
   1ab98:	0104e493          	ori	s1,s1,16
   1ab9c:	0705                	addi	a4,a4,1
   1ab9e:	ce3a                	sw	a4,28(sp)
   1aba0:	bf05                	j	1aad0 <__DATA_BEGIN__+0x9a58>
   1aba2:	0868                	addi	a0,sp,28
   1aba4:	3131                	addiw	sp,sp,-20
   1aba6:	8b2a                	mv	s6,a0
   1aba8:	b79d                	j	1ab0e <__DATA_BEGIN__+0x9a96>
   1abaa:	47e2                	lw	a5,24(sp)
   1abac:	00478713          	addi	a4,a5,4
   1abb0:	cc3a                	sw	a4,24(sp)
   1abb2:	0007ab03          	lw	s6,0(a5)
   1abb6:	000b4663          	bltz	s6,1abc2 <__DATA_BEGIN__+0x9b4a>
   1abba:	47f2                	lw	a5,28(sp)
   1abbc:	0785                	addi	a5,a5,1
   1abbe:	ce3e                	sw	a5,28(sp)
   1abc0:	b7b9                	j	1ab0e <__DATA_BEGIN__+0x9a96>
   1abc2:	0024e493          	ori	s1,s1,2
   1abc6:	41600b33          	neg	s6,s6
   1abca:	bfc5                	j	1abba <__DATA_BEGIN__+0x9b42>
   1abcc:	4004e493          	ori	s1,s1,1024
   1abd0:	00178713          	addi	a4,a5,1
   1abd4:	ce3a                	sw	a4,28(sp)
   1abd6:	0017c703          	lbu	a4,1(a5)
   1abda:	fd070793          	addi	a5,a4,-48
   1abde:	0ff7f793          	andi	a5,a5,255
   1abe2:	46a5                	li	a3,9
   1abe4:	00f6f863          	bgeu	a3,a5,1abf4 <__DATA_BEGIN__+0x9b7c>
   1abe8:	02a00793          	li	a5,42
   1abec:	00f70963          	beq	a4,a5,1abfe <__DATA_BEGIN__+0x9b86>
   1abf0:	4a81                	li	s5,0
   1abf2:	b735                	j	1ab1e <__DATA_BEGIN__+0x9aa6>
   1abf4:	0868                	addi	a0,sp,28
   1abf6:	bbbff0ef          	jal	ra,1a7b0 <__DATA_BEGIN__+0x9738>
   1abfa:	8aaa                	mv	s5,a0
   1abfc:	b70d                	j	1ab1e <__DATA_BEGIN__+0x9aa6>
   1abfe:	47e2                	lw	a5,24(sp)
   1ac00:	00478713          	addi	a4,a5,4
   1ac04:	cc3a                	sw	a4,24(sp)
   1ac06:	0007aa83          	lw	s5,0(a5)
   1ac0a:	000ac663          	bltz	s5,1ac16 <__DATA_BEGIN__+0x9b9e>
   1ac0e:	47f2                	lw	a5,28(sp)
   1ac10:	0785                	addi	a5,a5,1
   1ac12:	ce3e                	sw	a5,28(sp)
   1ac14:	b729                	j	1ab1e <__DATA_BEGIN__+0x9aa6>
   1ac16:	4a81                	li	s5,0
   1ac18:	bfdd                	j	1ac0e <__DATA_BEGIN__+0x9b96>
   1ac1a:	07a00693          	li	a3,122
   1ac1e:	f2d795e3          	bne	a5,a3,1ab48 <__DATA_BEGIN__+0x9ad0>
   1ac22:	1004e493          	ori	s1,s1,256
   1ac26:	0705                	addi	a4,a4,1
   1ac28:	ce3a                	sw	a4,28(sp)
   1ac2a:	bf39                	j	1ab48 <__DATA_BEGIN__+0x9ad0>
   1ac2c:	1004e613          	ori	a2,s1,256
   1ac30:	00170793          	addi	a5,a4,1
   1ac34:	ce3e                	sw	a5,28(sp)
   1ac36:	00174683          	lbu	a3,1(a4)
   1ac3a:	06c00713          	li	a4,108
   1ac3e:	00e68463          	beq	a3,a4,1ac46 <__DATA_BEGIN__+0x9bce>
   1ac42:	84b2                	mv	s1,a2
   1ac44:	b711                	j	1ab48 <__DATA_BEGIN__+0x9ad0>
   1ac46:	3004e493          	ori	s1,s1,768
   1ac4a:	0785                	addi	a5,a5,1
   1ac4c:	ce3e                	sw	a5,28(sp)
   1ac4e:	bded                	j	1ab48 <__DATA_BEGIN__+0x9ad0>
   1ac50:	0804e613          	ori	a2,s1,128
   1ac54:	00170793          	addi	a5,a4,1
   1ac58:	ce3e                	sw	a5,28(sp)
   1ac5a:	00174683          	lbu	a3,1(a4)
   1ac5e:	06800713          	li	a4,104
   1ac62:	00e68463          	beq	a3,a4,1ac6a <__DATA_BEGIN__+0x9bf2>
   1ac66:	84b2                	mv	s1,a2
   1ac68:	b5c5                	j	1ab48 <__DATA_BEGIN__+0x9ad0>
   1ac6a:	0c04e493          	ori	s1,s1,192
   1ac6e:	0785                	addi	a5,a5,1
   1ac70:	ce3e                	sw	a5,28(sp)
   1ac72:	bdd9                	j	1ab48 <__DATA_BEGIN__+0x9ad0>
   1ac74:	07800793          	li	a5,120
   1ac78:	02f50163          	beq	a0,a5,1ac9a <__DATA_BEGIN__+0x9c22>
   1ac7c:	05800793          	li	a5,88
   1ac80:	08f50263          	beq	a0,a5,1ad04 <__DATA_BEGIN__+0x9c8c>
   1ac84:	06f00793          	li	a5,111
   1ac88:	08f50063          	beq	a0,a5,1ad08 <__DATA_BEGIN__+0x9c90>
   1ac8c:	06200793          	li	a5,98
   1ac90:	06f50e63          	beq	a0,a5,1ad0c <__DATA_BEGIN__+0x9c94>
   1ac94:	98bd                	andi	s1,s1,-17
   1ac96:	4829                	li	a6,10
   1ac98:	a011                	j	1ac9c <__DATA_BEGIN__+0x9c24>
   1ac9a:	4841                	li	a6,16
   1ac9c:	05800793          	li	a5,88
   1aca0:	06f50863          	beq	a0,a5,1ad10 <__DATA_BEGIN__+0x9c98>
   1aca4:	06900793          	li	a5,105
   1aca8:	00f50763          	beq	a0,a5,1acb6 <__DATA_BEGIN__+0x9c3e>
   1acac:	06400793          	li	a5,100
   1acb0:	00f50363          	beq	a0,a5,1acb6 <__DATA_BEGIN__+0x9c3e>
   1acb4:	98cd                	andi	s1,s1,-13
   1acb6:	4004f793          	andi	a5,s1,1024
   1acba:	c391                	beqz	a5,1acbe <__DATA_BEGIN__+0x9c46>
   1acbc:	98f9                	andi	s1,s1,-2
   1acbe:	06900793          	li	a5,105
   1acc2:	04f50a63          	beq	a0,a5,1ad16 <__DATA_BEGIN__+0x9c9e>
   1acc6:	06400793          	li	a5,100
   1acca:	04f50663          	beq	a0,a5,1ad16 <__DATA_BEGIN__+0x9c9e>
   1acce:	2004f793          	andi	a5,s1,512
   1acd2:	e3c9                	bnez	a5,1ad54 <__DATA_BEGIN__+0x9cdc>
   1acd4:	1004f793          	andi	a5,s1,256
   1acd8:	ebe1                	bnez	a5,1ada8 <__DATA_BEGIN__+0x9d30>
   1acda:	0404f793          	andi	a5,s1,64
   1acde:	0e078563          	beqz	a5,1adc8 <__DATA_BEGIN__+0x9d50>
   1ace2:	47e2                	lw	a5,24(sp)
   1ace4:	00478713          	addi	a4,a5,4
   1ace8:	cc3a                	sw	a4,24(sp)
   1acea:	0007c703          	lbu	a4,0(a5)
   1acee:	c226                	sw	s1,4(sp)
   1acf0:	c05a                	sw	s6,0(sp)
   1acf2:	88d6                	mv	a7,s5
   1acf4:	4781                	li	a5,0
   1acf6:	86ca                	mv	a3,s2
   1acf8:	8622                	mv	a2,s0
   1acfa:	85ce                	mv	a1,s3
   1acfc:	8552                	mv	a0,s4
   1acfe:	31fd                	addiw	gp,gp,-1
   1ad00:	842a                	mv	s0,a0
   1ad02:	a889                	j	1ad54 <__DATA_BEGIN__+0x9cdc>
   1ad04:	4841                	li	a6,16
   1ad06:	bf59                	j	1ac9c <__DATA_BEGIN__+0x9c24>
   1ad08:	4821                	li	a6,8
   1ad0a:	bf49                	j	1ac9c <__DATA_BEGIN__+0x9c24>
   1ad0c:	4809                	li	a6,2
   1ad0e:	b779                	j	1ac9c <__DATA_BEGIN__+0x9c24>
   1ad10:	0204e493          	ori	s1,s1,32
   1ad14:	bf41                	j	1aca4 <__DATA_BEGIN__+0x9c2c>
   1ad16:	2004f793          	andi	a5,s1,512
   1ad1a:	ef8d                	bnez	a5,1ad54 <__DATA_BEGIN__+0x9cdc>
   1ad1c:	1004f793          	andi	a5,s1,256
   1ad20:	ef95                	bnez	a5,1ad5c <__DATA_BEGIN__+0x9ce4>
   1ad22:	0404f793          	andi	a5,s1,64
   1ad26:	c3ad                	beqz	a5,1ad88 <__DATA_BEGIN__+0x9d10>
   1ad28:	47e2                	lw	a5,24(sp)
   1ad2a:	00478713          	addi	a4,a5,4
   1ad2e:	cc3a                	sw	a4,24(sp)
   1ad30:	0007c783          	lbu	a5,0(a5)
   1ad34:	41f7d713          	srai	a4,a5,0x1f
   1ad38:	00f746b3          	xor	a3,a4,a5
   1ad3c:	c226                	sw	s1,4(sp)
   1ad3e:	c05a                	sw	s6,0(sp)
   1ad40:	88d6                	mv	a7,s5
   1ad42:	83fd                	srli	a5,a5,0x1f
   1ad44:	40e68733          	sub	a4,a3,a4
   1ad48:	86ca                	mv	a3,s2
   1ad4a:	8622                	mv	a2,s0
   1ad4c:	85ce                	mv	a1,s3
   1ad4e:	8552                	mv	a0,s4
   1ad50:	3971                	addiw	s2,s2,-4
   1ad52:	842a                	mv	s0,a0
   1ad54:	47f2                	lw	a5,28(sp)
   1ad56:	0785                	addi	a5,a5,1
   1ad58:	ce3e                	sw	a5,28(sp)
   1ad5a:	b3a1                	j	1aaa2 <__DATA_BEGIN__+0x9a2a>
   1ad5c:	47e2                	lw	a5,24(sp)
   1ad5e:	00478713          	addi	a4,a5,4
   1ad62:	cc3a                	sw	a4,24(sp)
   1ad64:	439c                	lw	a5,0(a5)
   1ad66:	41f7d713          	srai	a4,a5,0x1f
   1ad6a:	00f746b3          	xor	a3,a4,a5
   1ad6e:	c226                	sw	s1,4(sp)
   1ad70:	c05a                	sw	s6,0(sp)
   1ad72:	88d6                	mv	a7,s5
   1ad74:	83fd                	srli	a5,a5,0x1f
   1ad76:	40e68733          	sub	a4,a3,a4
   1ad7a:	86ca                	mv	a3,s2
   1ad7c:	8622                	mv	a2,s0
   1ad7e:	85ce                	mv	a1,s3
   1ad80:	8552                	mv	a0,s4
   1ad82:	31ad                	addiw	gp,gp,-21
   1ad84:	842a                	mv	s0,a0
   1ad86:	b7f9                	j	1ad54 <__DATA_BEGIN__+0x9cdc>
   1ad88:	0804f793          	andi	a5,s1,128
   1ad8c:	cb81                	beqz	a5,1ad9c <__DATA_BEGIN__+0x9d24>
   1ad8e:	47e2                	lw	a5,24(sp)
   1ad90:	00478713          	addi	a4,a5,4
   1ad94:	cc3a                	sw	a4,24(sp)
   1ad96:	00079783          	lh	a5,0(a5)
   1ad9a:	bf69                	j	1ad34 <__DATA_BEGIN__+0x9cbc>
   1ad9c:	47e2                	lw	a5,24(sp)
   1ad9e:	00478713          	addi	a4,a5,4
   1ada2:	cc3a                	sw	a4,24(sp)
   1ada4:	439c                	lw	a5,0(a5)
   1ada6:	b779                	j	1ad34 <__DATA_BEGIN__+0x9cbc>
   1ada8:	47e2                	lw	a5,24(sp)
   1adaa:	00478713          	addi	a4,a5,4
   1adae:	cc3a                	sw	a4,24(sp)
   1adb0:	4398                	lw	a4,0(a5)
   1adb2:	c226                	sw	s1,4(sp)
   1adb4:	c05a                	sw	s6,0(sp)
   1adb6:	88d6                	mv	a7,s5
   1adb8:	4781                	li	a5,0
   1adba:	86ca                	mv	a3,s2
   1adbc:	8622                	mv	a2,s0
   1adbe:	85ce                	mv	a1,s3
   1adc0:	8552                	mv	a0,s4
   1adc2:	312d                	addiw	sp,sp,-21
   1adc4:	842a                	mv	s0,a0
   1adc6:	b779                	j	1ad54 <__DATA_BEGIN__+0x9cdc>
   1adc8:	0804f793          	andi	a5,s1,128
   1adcc:	cb81                	beqz	a5,1addc <__DATA_BEGIN__+0x9d64>
   1adce:	47e2                	lw	a5,24(sp)
   1add0:	00478713          	addi	a4,a5,4
   1add4:	cc3a                	sw	a4,24(sp)
   1add6:	0007d703          	lhu	a4,0(a5)
   1adda:	bf11                	j	1acee <__DATA_BEGIN__+0x9c76>
   1addc:	47e2                	lw	a5,24(sp)
   1adde:	00478713          	addi	a4,a5,4
   1ade2:	cc3a                	sw	a4,24(sp)
   1ade4:	4398                	lw	a4,0(a5)
   1ade6:	b721                	j	1acee <__DATA_BEGIN__+0x9c76>
   1ade8:	8889                	andi	s1,s1,2
   1adea:	c0b9                	beqz	s1,1ae30 <__DATA_BEGIN__+0x9db8>
   1adec:	4a85                	li	s5,1
   1adee:	47e2                	lw	a5,24(sp)
   1adf0:	00478713          	addi	a4,a5,4
   1adf4:	cc3a                	sw	a4,24(sp)
   1adf6:	00140b93          	addi	s7,s0,1
   1adfa:	86ca                	mv	a3,s2
   1adfc:	8622                	mv	a2,s0
   1adfe:	85ce                	mv	a1,s3
   1ae00:	0007c503          	lbu	a0,0(a5)
   1ae04:	9a02                	jalr	s4
   1ae06:	e0a9                	bnez	s1,1ae48 <__DATA_BEGIN__+0x9dd0>
   1ae08:	47f2                	lw	a5,28(sp)
   1ae0a:	0785                	addi	a5,a5,1
   1ae0c:	ce3e                	sw	a5,28(sp)
   1ae0e:	845e                	mv	s0,s7
   1ae10:	b949                	j	1aaa2 <__DATA_BEGIN__+0x9a2a>
   1ae12:	00140b93          	addi	s7,s0,1
   1ae16:	86ca                	mv	a3,s2
   1ae18:	8622                	mv	a2,s0
   1ae1a:	85ce                	mv	a1,s3
   1ae1c:	02000513          	li	a0,32
   1ae20:	9a02                	jalr	s4
   1ae22:	87d6                	mv	a5,s5
   1ae24:	845e                	mv	s0,s7
   1ae26:	00178a93          	addi	s5,a5,1
   1ae2a:	ff67e4e3          	bltu	a5,s6,1ae12 <__DATA_BEGIN__+0x9d9a>
   1ae2e:	b7c1                	j	1adee <__DATA_BEGIN__+0x9d76>
   1ae30:	4785                	li	a5,1
   1ae32:	bfd5                	j	1ae26 <__DATA_BEGIN__+0x9dae>
   1ae34:	001b8493          	addi	s1,s7,1
   1ae38:	86ca                	mv	a3,s2
   1ae3a:	865e                	mv	a2,s7
   1ae3c:	85ce                	mv	a1,s3
   1ae3e:	02000513          	li	a0,32
   1ae42:	9a02                	jalr	s4
   1ae44:	8aa2                	mv	s5,s0
   1ae46:	8ba6                	mv	s7,s1
   1ae48:	001a8413          	addi	s0,s5,1
   1ae4c:	ff6ae4e3          	bltu	s5,s6,1ae34 <__DATA_BEGIN__+0x9dbc>
   1ae50:	bf65                	j	1ae08 <__DATA_BEGIN__+0x9d90>
   1ae52:	47e2                	lw	a5,24(sp)
   1ae54:	00478713          	addi	a4,a5,4
   1ae58:	cc3a                	sw	a4,24(sp)
   1ae5a:	0007ac03          	lw	s8,0(a5)
   1ae5e:	020a9b63          	bnez	s5,1ae94 <__DATA_BEGIN__+0x9e1c>
   1ae62:	577d                	li	a4,-1
   1ae64:	87e2                	mv	a5,s8
   1ae66:	a019                	j	1ae6c <__DATA_BEGIN__+0x9df4>
   1ae68:	0785                	addi	a5,a5,1
   1ae6a:	8736                	mv	a4,a3
   1ae6c:	0007c683          	lbu	a3,0(a5)
   1ae70:	c681                	beqz	a3,1ae78 <__DATA_BEGIN__+0x9e00>
   1ae72:	fff70693          	addi	a3,a4,-1
   1ae76:	fb6d                	bnez	a4,1ae68 <__DATA_BEGIN__+0x9df0>
   1ae78:	41878bb3          	sub	s7,a5,s8
   1ae7c:	4004fc93          	andi	s9,s1,1024
   1ae80:	000c8563          	beqz	s9,1ae8a <__DATA_BEGIN__+0x9e12>
   1ae84:	017af363          	bgeu	s5,s7,1ae8a <__DATA_BEGIN__+0x9e12>
   1ae88:	8bd6                	mv	s7,s5
   1ae8a:	0024fd13          	andi	s10,s1,2
   1ae8e:	020d1e63          	bnez	s10,1aeca <__DATA_BEGIN__+0x9e52>
   1ae92:	a829                	j	1aeac <__DATA_BEGIN__+0x9e34>
   1ae94:	8756                	mv	a4,s5
   1ae96:	b7f9                	j	1ae64 <__DATA_BEGIN__+0x9dec>
   1ae98:	00140d93          	addi	s11,s0,1
   1ae9c:	86ca                	mv	a3,s2
   1ae9e:	8622                	mv	a2,s0
   1aea0:	85ce                	mv	a1,s3
   1aea2:	02000513          	li	a0,32
   1aea6:	9a02                	jalr	s4
   1aea8:	8ba6                	mv	s7,s1
   1aeaa:	846e                	mv	s0,s11
   1aeac:	001b8493          	addi	s1,s7,1
   1aeb0:	ff6be4e3          	bltu	s7,s6,1ae98 <__DATA_BEGIN__+0x9e20>
   1aeb4:	8ba6                	mv	s7,s1
   1aeb6:	a811                	j	1aeca <__DATA_BEGIN__+0x9e52>
   1aeb8:	8abe                	mv	s5,a5
   1aeba:	0c05                	addi	s8,s8,1
   1aebc:	00140493          	addi	s1,s0,1
   1aec0:	86ca                	mv	a3,s2
   1aec2:	8622                	mv	a2,s0
   1aec4:	85ce                	mv	a1,s3
   1aec6:	9a02                	jalr	s4
   1aec8:	8426                	mv	s0,s1
   1aeca:	000c4503          	lbu	a0,0(s8)
   1aece:	c519                	beqz	a0,1aedc <__DATA_BEGIN__+0x9e64>
   1aed0:	fe0c85e3          	beqz	s9,1aeba <__DATA_BEGIN__+0x9e42>
   1aed4:	fffa8793          	addi	a5,s5,-1
   1aed8:	fe0a90e3          	bnez	s5,1aeb8 <__DATA_BEGIN__+0x9e40>
   1aedc:	020d1063          	bnez	s10,1aefc <__DATA_BEGIN__+0x9e84>
   1aee0:	47f2                	lw	a5,28(sp)
   1aee2:	0785                	addi	a5,a5,1
   1aee4:	ce3e                	sw	a5,28(sp)
   1aee6:	be75                	j	1aaa2 <__DATA_BEGIN__+0x9a2a>
   1aee8:	00140a93          	addi	s5,s0,1
   1aeec:	86ca                	mv	a3,s2
   1aeee:	8622                	mv	a2,s0
   1aef0:	85ce                	mv	a1,s3
   1aef2:	02000513          	li	a0,32
   1aef6:	9a02                	jalr	s4
   1aef8:	8ba6                	mv	s7,s1
   1aefa:	8456                	mv	s0,s5
   1aefc:	001b8493          	addi	s1,s7,1
   1af00:	ff6be4e3          	bltu	s7,s6,1aee8 <__DATA_BEGIN__+0x9e70>
   1af04:	bff1                	j	1aee0 <__DATA_BEGIN__+0x9e68>
   1af06:	0214e493          	ori	s1,s1,33
   1af0a:	47e2                	lw	a5,24(sp)
   1af0c:	00478713          	addi	a4,a5,4
   1af10:	cc3a                	sw	a4,24(sp)
   1af12:	4398                	lw	a4,0(a5)
   1af14:	c226                	sw	s1,4(sp)
   1af16:	47a1                	li	a5,8
   1af18:	c03e                	sw	a5,0(sp)
   1af1a:	88d6                	mv	a7,s5
   1af1c:	4841                	li	a6,16
   1af1e:	4781                	li	a5,0
   1af20:	86ca                	mv	a3,s2
   1af22:	8622                	mv	a2,s0
   1af24:	85ce                	mv	a1,s3
   1af26:	8552                	mv	a0,s4
   1af28:	ac5ff0ef          	jal	ra,1a9ec <__DATA_BEGIN__+0x9974>
   1af2c:	842a                	mv	s0,a0
   1af2e:	47f2                	lw	a5,28(sp)
   1af30:	0785                	addi	a5,a5,1
   1af32:	ce3e                	sw	a5,28(sp)
   1af34:	b6bd                	j	1aaa2 <__DATA_BEGIN__+0x9a2a>
   1af36:	00140493          	addi	s1,s0,1
   1af3a:	86ca                	mv	a3,s2
   1af3c:	8622                	mv	a2,s0
   1af3e:	85ce                	mv	a1,s3
   1af40:	02500513          	li	a0,37
   1af44:	9a02                	jalr	s4
   1af46:	47f2                	lw	a5,28(sp)
   1af48:	0785                	addi	a5,a5,1
   1af4a:	ce3e                	sw	a5,28(sp)
   1af4c:	8426                	mv	s0,s1
   1af4e:	be91                	j	1aaa2 <__DATA_BEGIN__+0x9a2a>
   1af50:	00140493          	addi	s1,s0,1
   1af54:	86ca                	mv	a3,s2
   1af56:	8622                	mv	a2,s0
   1af58:	85ce                	mv	a1,s3
   1af5a:	9a02                	jalr	s4
   1af5c:	47f2                	lw	a5,28(sp)
   1af5e:	0785                	addi	a5,a5,1
   1af60:	ce3e                	sw	a5,28(sp)
   1af62:	8426                	mv	s0,s1
   1af64:	be3d                	j	1aaa2 <__DATA_BEGIN__+0x9a2a>
   1af66:	20409a37          	lui	s4,0x20409
   1af6a:	736a0a13          	addi	s4,s4,1846 # 20409736 <__BSS_END__+0x203ec696>
   1af6e:	be0d                	j	1aaa0 <__DATA_BEGIN__+0x9a28>
   1af70:	03246863          	bltu	s0,s2,1afa0 <__DATA_BEGIN__+0x9f28>
   1af74:	fff90613          	addi	a2,s2,-1
   1af78:	86ca                	mv	a3,s2
   1af7a:	85ce                	mv	a1,s3
   1af7c:	4501                	li	a0,0
   1af7e:	9a02                	jalr	s4
   1af80:	8522                	mv	a0,s0
   1af82:	40f6                	lw	ra,92(sp)
   1af84:	4466                	lw	s0,88(sp)
   1af86:	44d6                	lw	s1,84(sp)
   1af88:	4946                	lw	s2,80(sp)
   1af8a:	49b6                	lw	s3,76(sp)
   1af8c:	4a26                	lw	s4,72(sp)
   1af8e:	4a96                	lw	s5,68(sp)
   1af90:	4b06                	lw	s6,64(sp)
   1af92:	5bf2                	lw	s7,60(sp)
   1af94:	5c62                	lw	s8,56(sp)
   1af96:	5cd2                	lw	s9,52(sp)
   1af98:	5d42                	lw	s10,48(sp)
   1af9a:	5db2                	lw	s11,44(sp)
   1af9c:	6125                	addi	sp,sp,96
   1af9e:	8082                	ret
   1afa0:	8622                	mv	a2,s0
   1afa2:	bfd9                	j	1af78 <__DATA_BEGIN__+0x9f00>
   1afa4:	e111                	bnez	a0,1afa8 <__DATA_BEGIN__+0x9f30>
   1afa6:	8082                	ret
   1afa8:	1141                	addi	sp,sp,-16
   1afaa:	c606                	sw	ra,12(sp)
   1afac:	222d                	addiw	tp,tp,11
   1afae:	40b2                	lw	ra,12(sp)
   1afb0:	0141                	addi	sp,sp,16
   1afb2:	8082                	ret
   1afb4:	7139                	addi	sp,sp,-64
   1afb6:	ce06                	sw	ra,28(sp)
   1afb8:	d22e                	sw	a1,36(sp)
   1afba:	d432                	sw	a2,40(sp)
   1afbc:	d636                	sw	a3,44(sp)
   1afbe:	d83a                	sw	a4,48(sp)
   1afc0:	da3e                	sw	a5,52(sp)
   1afc2:	dc42                	sw	a6,56(sp)
   1afc4:	de46                	sw	a7,60(sp)
   1afc6:	1058                	addi	a4,sp,36
   1afc8:	c63a                	sw	a4,12(sp)
   1afca:	86aa                	mv	a3,a0
   1afcc:	567d                	li	a2,-1
   1afce:	002c                	addi	a1,sp,8
   1afd0:	2040a537          	lui	a0,0x2040a
   1afd4:	f2c50513          	addi	a0,a0,-212 # 20409f2c <__BSS_END__+0x203ece8c>
   1afd8:	a9fff0ef          	jal	ra,1aa76 <__DATA_BEGIN__+0x99fe>
   1afdc:	40f2                	lw	ra,28(sp)
   1afde:	6121                	addi	sp,sp,64
   1afe0:	8082                	ret
   1afe2:	7139                	addi	sp,sp,-64
   1afe4:	ce06                	sw	ra,28(sp)
   1afe6:	d432                	sw	a2,40(sp)
   1afe8:	d636                	sw	a3,44(sp)
   1afea:	d83a                	sw	a4,48(sp)
   1afec:	da3e                	sw	a5,52(sp)
   1afee:	dc42                	sw	a6,56(sp)
   1aff0:	de46                	sw	a7,60(sp)
   1aff2:	1038                	addi	a4,sp,40
   1aff4:	c63a                	sw	a4,12(sp)
   1aff6:	86ae                	mv	a3,a1
   1aff8:	567d                	li	a2,-1
   1affa:	85aa                	mv	a1,a0
   1affc:	20409537          	lui	a0,0x20409
   1b000:	72a50513          	addi	a0,a0,1834 # 2040972a <__BSS_END__+0x203ec68a>
   1b004:	a73ff0ef          	jal	ra,1aa76 <__DATA_BEGIN__+0x99fe>
   1b008:	40f2                	lw	ra,28(sp)
   1b00a:	6121                	addi	sp,sp,64
   1b00c:	8082                	ret
   1b00e:	e511                	bnez	a0,1b01a <__DATA_BEGIN__+0x9fa2>
   1b010:	8181a503          	lw	a0,-2024(gp) # 1c0b8 <__DATA_BEGIN__+0xb040>
   1b014:	e119                	bnez	a0,1b01a <__DATA_BEGIN__+0x9fa2>
   1b016:	8082                	ret
   1b018:	8532                	mv	a0,a2
   1b01a:	00150613          	addi	a2,a0,1
   1b01e:	00054683          	lbu	a3,0(a0)
   1b022:	872e                	mv	a4,a1
   1b024:	00074783          	lbu	a5,0(a4)
   1b028:	0705                	addi	a4,a4,1
   1b02a:	c781                	beqz	a5,1b032 <__DATA_BEGIN__+0x9fba>
   1b02c:	fef69ce3          	bne	a3,a5,1b024 <__DATA_BEGIN__+0x9fac>
   1b030:	b7e5                	j	1b018 <__DATA_BEGIN__+0x9fa0>
   1b032:	ce91                	beqz	a3,1b04e <__DATA_BEGIN__+0x9fd6>
   1b034:	00160813          	addi	a6,a2,1
   1b038:	00064683          	lbu	a3,0(a2)
   1b03c:	872e                	mv	a4,a1
   1b03e:	00074783          	lbu	a5,0(a4)
   1b042:	0705                	addi	a4,a4,1
   1b044:	00f68963          	beq	a3,a5,1b056 <__DATA_BEGIN__+0x9fde>
   1b048:	fbfd                	bnez	a5,1b03e <__DATA_BEGIN__+0x9fc6>
   1b04a:	8642                	mv	a2,a6
   1b04c:	b7e5                	j	1b034 <__DATA_BEGIN__+0x9fbc>
   1b04e:	8001ac23          	sw	zero,-2024(gp) # 1c0b8 <__DATA_BEGIN__+0xb040>
   1b052:	4501                	li	a0,0
   1b054:	8082                	ret
   1b056:	c681                	beqz	a3,1b05e <__DATA_BEGIN__+0x9fe6>
   1b058:	fe080fa3          	sb	zero,-1(a6)
   1b05c:	a011                	j	1b060 <__DATA_BEGIN__+0x9fe8>
   1b05e:	4801                	li	a6,0
   1b060:	8101ac23          	sw	a6,-2024(gp) # 1c0b8 <__DATA_BEGIN__+0xb040>
   1b064:	8082                	ret
   1b066:	00353513          	sltiu	a0,a0,3
   1b06a:	8082                	ret
   1b06c:	1141                	addi	sp,sp,-16
   1b06e:	c606                	sw	ra,12(sp)
   1b070:	2040c5b7          	lui	a1,0x2040c
   1b074:	97c58593          	addi	a1,a1,-1668 # 2040b97c <__BSS_END__+0x203ee8dc>
   1b078:	021000ef          	jal	ra,1b898 <__DATA_BEGIN__+0xa820>
   1b07c:	ed11                	bnez	a0,1b098 <__DATA_BEGIN__+0xa020>
   1b07e:	100137b7          	lui	a5,0x10013
   1b082:	23400713          	li	a4,564
   1b086:	cf98                	sw	a4,24(a5)
   1b088:	4705                	li	a4,1
   1b08a:	c798                	sw	a4,8(a5)
   1b08c:	c7d8                	sw	a4,12(a5)
   1b08e:	4709                	li	a4,2
   1b090:	cb98                	sw	a4,16(a5)
   1b092:	40b2                	lw	ra,12(sp)
   1b094:	0141                	addi	sp,sp,16
   1b096:	8082                	ret
   1b098:	557d                	li	a0,-1
   1b09a:	bfe5                	j	1b092 <__DATA_BEGIN__+0xa01a>
   1b09c:	1141                	addi	sp,sp,-16
   1b09e:	c606                	sw	ra,12(sp)
   1b0a0:	c422                	sw	s0,8(sp)
   1b0a2:	c226                	sw	s1,4(sp)
   1b0a4:	842e                	mv	s0,a1
   1b0a6:	84b2                	mv	s1,a2
   1b0a8:	31f000ef          	jal	ra,1bbc6 <__DATA_BEGIN__+0xab4e>
   1b0ac:	c119                	beqz	a0,1b0b2 <__DATA_BEGIN__+0xa03a>
   1b0ae:	4501                	li	a0,0
   1b0b0:	a039                	j	1b0be <__DATA_BEGIN__+0xa046>
   1b0b2:	557d                	li	a0,-1
   1b0b4:	a821                	j	1b0cc <__DATA_BEGIN__+0xa054>
   1b0b6:	00f40023          	sb	a5,0(s0)
   1b0ba:	0505                	addi	a0,a0,1
   1b0bc:	0405                	addi	s0,s0,1
   1b0be:	00957763          	bgeu	a0,s1,1b0cc <__DATA_BEGIN__+0xa054>
   1b0c2:	100137b7          	lui	a5,0x10013
   1b0c6:	43dc                	lw	a5,4(a5)
   1b0c8:	fef047e3          	bgtz	a5,1b0b6 <__DATA_BEGIN__+0xa03e>
   1b0cc:	40b2                	lw	ra,12(sp)
   1b0ce:	4422                	lw	s0,8(sp)
   1b0d0:	4492                	lw	s1,4(sp)
   1b0d2:	0141                	addi	sp,sp,16
   1b0d4:	8082                	ret
   1b0d6:	100137b7          	lui	a5,0x10013
   1b0da:	439c                	lw	a5,0(a5)
   1b0dc:	fe07cde3          	bltz	a5,1b0d6 <__DATA_BEGIN__+0xa05e>
   1b0e0:	100137b7          	lui	a5,0x10013
   1b0e4:	c388                	sw	a0,0(a5)
   1b0e6:	47a9                	li	a5,10
   1b0e8:	00f50363          	beq	a0,a5,1b0ee <__DATA_BEGIN__+0xa076>
   1b0ec:	8082                	ret
   1b0ee:	100137b7          	lui	a5,0x10013
   1b0f2:	439c                	lw	a5,0(a5)
   1b0f4:	fe07cde3          	bltz	a5,1b0ee <__DATA_BEGIN__+0xa076>
   1b0f8:	100137b7          	lui	a5,0x10013
   1b0fc:	4735                	li	a4,13
   1b0fe:	c398                	sw	a4,0(a5)
   1b100:	b7f5                	j	1b0ec <__DATA_BEGIN__+0xa074>
   1b102:	1141                	addi	sp,sp,-16
   1b104:	c606                	sw	ra,12(sp)
   1b106:	c422                	sw	s0,8(sp)
   1b108:	c226                	sw	s1,4(sp)
   1b10a:	c04a                	sw	s2,0(sp)
   1b10c:	892e                	mv	s2,a1
   1b10e:	84b2                	mv	s1,a2
   1b110:	2b7000ef          	jal	ra,1bbc6 <__DATA_BEGIN__+0xab4e>
   1b114:	e115                	bnez	a0,1b138 <__DATA_BEGIN__+0xa0c0>
   1b116:	557d                	li	a0,-1
   1b118:	40b2                	lw	ra,12(sp)
   1b11a:	4422                	lw	s0,8(sp)
   1b11c:	4492                	lw	s1,4(sp)
   1b11e:	4902                	lw	s2,0(sp)
   1b120:	0141                	addi	sp,sp,16
   1b122:	8082                	ret
   1b124:	008907b3          	add	a5,s2,s0
   1b128:	0007c503          	lbu	a0,0(a5) # 10013000 <__BSS_END__+0xfff5f60>
   1b12c:	376d                	addiw	a4,a4,-5
   1b12e:	0405                	addi	s0,s0,1
   1b130:	fe946ae3          	bltu	s0,s1,1b124 <__DATA_BEGIN__+0xa0ac>
   1b134:	8526                	mv	a0,s1
   1b136:	b7cd                	j	1b118 <__DATA_BEGIN__+0xa0a0>
   1b138:	4401                	li	s0,0
   1b13a:	bfdd                	j	1b130 <__DATA_BEGIN__+0xa0b8>
   1b13c:	88aa                	mv	a7,a0
   1b13e:	87ae                	mv	a5,a1
   1b140:	8832                	mv	a6,a2
   1b142:	8536                	mv	a0,a3
   1b144:	8346                	mv	t1,a7
   1b146:	20069663          	bnez	a3,1b352 <__DATA_BEGIN__+0xa2da>
   1b14a:	2040c6b7          	lui	a3,0x2040c
   1b14e:	db068693          	addi	a3,a3,-592 # 2040bdb0 <__BSS_END__+0x203eed10>
   1b152:	0ac5ff63          	bgeu	a1,a2,1b210 <__DATA_BEGIN__+0xa198>
   1b156:	6741                	lui	a4,0x10
   1b158:	0ae67563          	bgeu	a2,a4,1b202 <__DATA_BEGIN__+0xa18a>
   1b15c:	0ff00713          	li	a4,255
   1b160:	00c73733          	sltu	a4,a4,a2
   1b164:	070e                	slli	a4,a4,0x3
   1b166:	00e65533          	srl	a0,a2,a4
   1b16a:	96aa                	add	a3,a3,a0
   1b16c:	0006c683          	lbu	a3,0(a3)
   1b170:	02000513          	li	a0,32
   1b174:	9736                	add	a4,a4,a3
   1b176:	40e506b3          	sub	a3,a0,a4
   1b17a:	00e50b63          	beq	a0,a4,1b190 <__DATA_BEGIN__+0xa118>
   1b17e:	00d795b3          	sll	a1,a5,a3
   1b182:	00e8d733          	srl	a4,a7,a4
   1b186:	00d61833          	sll	a6,a2,a3
   1b18a:	8dd9                	or	a1,a1,a4
   1b18c:	00d89333          	sll	t1,a7,a3
   1b190:	01085893          	srli	a7,a6,0x10
   1b194:	0315d6b3          	divu	a3,a1,a7
   1b198:	01081613          	slli	a2,a6,0x10
   1b19c:	8241                	srli	a2,a2,0x10
   1b19e:	01035793          	srli	a5,t1,0x10
   1b1a2:	0315f733          	remu	a4,a1,a7
   1b1a6:	8536                	mv	a0,a3
   1b1a8:	02d605b3          	mul	a1,a2,a3
   1b1ac:	0742                	slli	a4,a4,0x10
   1b1ae:	8fd9                	or	a5,a5,a4
   1b1b0:	00b7fc63          	bgeu	a5,a1,1b1c8 <__DATA_BEGIN__+0xa150>
   1b1b4:	97c2                	add	a5,a5,a6
   1b1b6:	fff68513          	addi	a0,a3,-1
   1b1ba:	0107e763          	bltu	a5,a6,1b1c8 <__DATA_BEGIN__+0xa150>
   1b1be:	00b7f563          	bgeu	a5,a1,1b1c8 <__DATA_BEGIN__+0xa150>
   1b1c2:	ffe68513          	addi	a0,a3,-2
   1b1c6:	97c2                	add	a5,a5,a6
   1b1c8:	8f8d                	sub	a5,a5,a1
   1b1ca:	0317f733          	remu	a4,a5,a7
   1b1ce:	0342                	slli	t1,t1,0x10
   1b1d0:	01035313          	srli	t1,t1,0x10
   1b1d4:	0317d7b3          	divu	a5,a5,a7
   1b1d8:	0742                	slli	a4,a4,0x10
   1b1da:	00676333          	or	t1,a4,t1
   1b1de:	02f606b3          	mul	a3,a2,a5
   1b1e2:	863e                	mv	a2,a5
   1b1e4:	00d37b63          	bgeu	t1,a3,1b1fa <__DATA_BEGIN__+0xa182>
   1b1e8:	9342                	add	t1,t1,a6
   1b1ea:	fff78613          	addi	a2,a5,-1
   1b1ee:	01036663          	bltu	t1,a6,1b1fa <__DATA_BEGIN__+0xa182>
   1b1f2:	00d37463          	bgeu	t1,a3,1b1fa <__DATA_BEGIN__+0xa182>
   1b1f6:	ffe78613          	addi	a2,a5,-2
   1b1fa:	0542                	slli	a0,a0,0x10
   1b1fc:	8d51                	or	a0,a0,a2
   1b1fe:	4581                	li	a1,0
   1b200:	a85d                	j	1b2b6 <__DATA_BEGIN__+0xa23e>
   1b202:	01000537          	lui	a0,0x1000
   1b206:	4741                	li	a4,16
   1b208:	f4a66fe3          	bltu	a2,a0,1b166 <__DATA_BEGIN__+0xa0ee>
   1b20c:	4761                	li	a4,24
   1b20e:	bfa1                	j	1b166 <__DATA_BEGIN__+0xa0ee>
   1b210:	e601                	bnez	a2,1b218 <__DATA_BEGIN__+0xa1a0>
   1b212:	4705                	li	a4,1
   1b214:	02c75833          	divu	a6,a4,a2
   1b218:	6741                	lui	a4,0x10
   1b21a:	08e87f63          	bgeu	a6,a4,1b2b8 <__DATA_BEGIN__+0xa240>
   1b21e:	0ff00713          	li	a4,255
   1b222:	01077363          	bgeu	a4,a6,1b228 <__DATA_BEGIN__+0xa1b0>
   1b226:	4521                	li	a0,8
   1b228:	00a85733          	srl	a4,a6,a0
   1b22c:	96ba                	add	a3,a3,a4
   1b22e:	0006c703          	lbu	a4,0(a3)
   1b232:	02000613          	li	a2,32
   1b236:	972a                	add	a4,a4,a0
   1b238:	40e606b3          	sub	a3,a2,a4
   1b23c:	08e61563          	bne	a2,a4,1b2c6 <__DATA_BEGIN__+0xa24e>
   1b240:	410787b3          	sub	a5,a5,a6
   1b244:	4585                	li	a1,1
   1b246:	01085893          	srli	a7,a6,0x10
   1b24a:	01081613          	slli	a2,a6,0x10
   1b24e:	8241                	srli	a2,a2,0x10
   1b250:	01035713          	srli	a4,t1,0x10
   1b254:	0317f6b3          	remu	a3,a5,a7
   1b258:	0317d7b3          	divu	a5,a5,a7
   1b25c:	06c2                	slli	a3,a3,0x10
   1b25e:	8f55                	or	a4,a4,a3
   1b260:	02f60e33          	mul	t3,a2,a5
   1b264:	853e                	mv	a0,a5
   1b266:	01c77c63          	bgeu	a4,t3,1b27e <__DATA_BEGIN__+0xa206>
   1b26a:	9742                	add	a4,a4,a6
   1b26c:	fff78513          	addi	a0,a5,-1
   1b270:	01076763          	bltu	a4,a6,1b27e <__DATA_BEGIN__+0xa206>
   1b274:	01c77563          	bgeu	a4,t3,1b27e <__DATA_BEGIN__+0xa206>
   1b278:	ffe78513          	addi	a0,a5,-2
   1b27c:	9742                	add	a4,a4,a6
   1b27e:	41c70733          	sub	a4,a4,t3
   1b282:	031777b3          	remu	a5,a4,a7
   1b286:	0342                	slli	t1,t1,0x10
   1b288:	01035313          	srli	t1,t1,0x10
   1b28c:	03175733          	divu	a4,a4,a7
   1b290:	07c2                	slli	a5,a5,0x10
   1b292:	0067e333          	or	t1,a5,t1
   1b296:	02e606b3          	mul	a3,a2,a4
   1b29a:	863a                	mv	a2,a4
   1b29c:	00d37b63          	bgeu	t1,a3,1b2b2 <__DATA_BEGIN__+0xa23a>
   1b2a0:	9342                	add	t1,t1,a6
   1b2a2:	fff70613          	addi	a2,a4,-1 # ffff <_binary_multizone_bin_size+0x3fdb>
   1b2a6:	01036663          	bltu	t1,a6,1b2b2 <__DATA_BEGIN__+0xa23a>
   1b2aa:	00d37463          	bgeu	t1,a3,1b2b2 <__DATA_BEGIN__+0xa23a>
   1b2ae:	ffe70613          	addi	a2,a4,-2
   1b2b2:	0542                	slli	a0,a0,0x10
   1b2b4:	8d51                	or	a0,a0,a2
   1b2b6:	8082                	ret
   1b2b8:	01000737          	lui	a4,0x1000
   1b2bc:	4541                	li	a0,16
   1b2be:	f6e865e3          	bltu	a6,a4,1b228 <__DATA_BEGIN__+0xa1b0>
   1b2c2:	4561                	li	a0,24
   1b2c4:	b795                	j	1b228 <__DATA_BEGIN__+0xa1b0>
   1b2c6:	00d81833          	sll	a6,a6,a3
   1b2ca:	00e7d533          	srl	a0,a5,a4
   1b2ce:	00d89333          	sll	t1,a7,a3
   1b2d2:	00d797b3          	sll	a5,a5,a3
   1b2d6:	00e8d733          	srl	a4,a7,a4
   1b2da:	01085893          	srli	a7,a6,0x10
   1b2de:	00f76633          	or	a2,a4,a5
   1b2e2:	03157733          	remu	a4,a0,a7
   1b2e6:	01081793          	slli	a5,a6,0x10
   1b2ea:	83c1                	srli	a5,a5,0x10
   1b2ec:	01065593          	srli	a1,a2,0x10
   1b2f0:	03155533          	divu	a0,a0,a7
   1b2f4:	0742                	slli	a4,a4,0x10
   1b2f6:	8f4d                	or	a4,a4,a1
   1b2f8:	02a786b3          	mul	a3,a5,a0
   1b2fc:	85aa                	mv	a1,a0
   1b2fe:	00d77c63          	bgeu	a4,a3,1b316 <__DATA_BEGIN__+0xa29e>
   1b302:	9742                	add	a4,a4,a6
   1b304:	fff50593          	addi	a1,a0,-1 # ffffff <__BSS_END__+0xfe2f5f>
   1b308:	01076763          	bltu	a4,a6,1b316 <__DATA_BEGIN__+0xa29e>
   1b30c:	00d77563          	bgeu	a4,a3,1b316 <__DATA_BEGIN__+0xa29e>
   1b310:	ffe50593          	addi	a1,a0,-2
   1b314:	9742                	add	a4,a4,a6
   1b316:	40d706b3          	sub	a3,a4,a3
   1b31a:	0316f733          	remu	a4,a3,a7
   1b31e:	0642                	slli	a2,a2,0x10
   1b320:	8241                	srli	a2,a2,0x10
   1b322:	0316d6b3          	divu	a3,a3,a7
   1b326:	0742                	slli	a4,a4,0x10
   1b328:	02d78533          	mul	a0,a5,a3
   1b32c:	00c767b3          	or	a5,a4,a2
   1b330:	8736                	mv	a4,a3
   1b332:	00a7fc63          	bgeu	a5,a0,1b34a <__DATA_BEGIN__+0xa2d2>
   1b336:	97c2                	add	a5,a5,a6
   1b338:	fff68713          	addi	a4,a3,-1
   1b33c:	0107e763          	bltu	a5,a6,1b34a <__DATA_BEGIN__+0xa2d2>
   1b340:	00a7f563          	bgeu	a5,a0,1b34a <__DATA_BEGIN__+0xa2d2>
   1b344:	ffe68713          	addi	a4,a3,-2
   1b348:	97c2                	add	a5,a5,a6
   1b34a:	05c2                	slli	a1,a1,0x10
   1b34c:	8f89                	sub	a5,a5,a0
   1b34e:	8dd9                	or	a1,a1,a4
   1b350:	bddd                	j	1b246 <__DATA_BEGIN__+0xa1ce>
   1b352:	14d5e263          	bltu	a1,a3,1b496 <__DATA_BEGIN__+0xa41e>
   1b356:	6741                	lui	a4,0x10
   1b358:	02e6ff63          	bgeu	a3,a4,1b396 <__DATA_BEGIN__+0xa31e>
   1b35c:	0ff00713          	li	a4,255
   1b360:	00d735b3          	sltu	a1,a4,a3
   1b364:	058e                	slli	a1,a1,0x3
   1b366:	2040c737          	lui	a4,0x2040c
   1b36a:	00b6d533          	srl	a0,a3,a1
   1b36e:	db070713          	addi	a4,a4,-592 # 2040bdb0 <__BSS_END__+0x203eed10>
   1b372:	972a                	add	a4,a4,a0
   1b374:	00074703          	lbu	a4,0(a4)
   1b378:	02000513          	li	a0,32
   1b37c:	972e                	add	a4,a4,a1
   1b37e:	40e505b3          	sub	a1,a0,a4
   1b382:	02e51163          	bne	a0,a4,1b3a4 <__DATA_BEGIN__+0xa32c>
   1b386:	4505                	li	a0,1
   1b388:	f2f6e7e3          	bltu	a3,a5,1b2b6 <__DATA_BEGIN__+0xa23e>
   1b38c:	00c8b533          	sltu	a0,a7,a2
   1b390:	00154513          	xori	a0,a0,1
   1b394:	b70d                	j	1b2b6 <__DATA_BEGIN__+0xa23e>
   1b396:	01000737          	lui	a4,0x1000
   1b39a:	45c1                	li	a1,16
   1b39c:	fce6e5e3          	bltu	a3,a4,1b366 <__DATA_BEGIN__+0xa2ee>
   1b3a0:	45e1                	li	a1,24
   1b3a2:	b7d1                	j	1b366 <__DATA_BEGIN__+0xa2ee>
   1b3a4:	00e65833          	srl	a6,a2,a4
   1b3a8:	00b696b3          	sll	a3,a3,a1
   1b3ac:	00d86833          	or	a6,a6,a3
   1b3b0:	00e7de33          	srl	t3,a5,a4
   1b3b4:	01085e93          	srli	t4,a6,0x10
   1b3b8:	03de76b3          	remu	a3,t3,t4
   1b3bc:	00b797b3          	sll	a5,a5,a1
   1b3c0:	00e8d733          	srl	a4,a7,a4
   1b3c4:	00b61333          	sll	t1,a2,a1
   1b3c8:	00f76633          	or	a2,a4,a5
   1b3cc:	01081793          	slli	a5,a6,0x10
   1b3d0:	83c1                	srli	a5,a5,0x10
   1b3d2:	01065713          	srli	a4,a2,0x10
   1b3d6:	03de5e33          	divu	t3,t3,t4
   1b3da:	06c2                	slli	a3,a3,0x10
   1b3dc:	8f55                	or	a4,a4,a3
   1b3de:	03c78f33          	mul	t5,a5,t3
   1b3e2:	8572                	mv	a0,t3
   1b3e4:	01e77c63          	bgeu	a4,t5,1b3fc <__DATA_BEGIN__+0xa384>
   1b3e8:	9742                	add	a4,a4,a6
   1b3ea:	fffe0513          	addi	a0,t3,-1
   1b3ee:	01076763          	bltu	a4,a6,1b3fc <__DATA_BEGIN__+0xa384>
   1b3f2:	01e77563          	bgeu	a4,t5,1b3fc <__DATA_BEGIN__+0xa384>
   1b3f6:	ffee0513          	addi	a0,t3,-2
   1b3fa:	9742                	add	a4,a4,a6
   1b3fc:	41e70733          	sub	a4,a4,t5
   1b400:	03d776b3          	remu	a3,a4,t4
   1b404:	03d75733          	divu	a4,a4,t4
   1b408:	06c2                	slli	a3,a3,0x10
   1b40a:	02e78e33          	mul	t3,a5,a4
   1b40e:	01061793          	slli	a5,a2,0x10
   1b412:	83c1                	srli	a5,a5,0x10
   1b414:	8fd5                	or	a5,a5,a3
   1b416:	863a                	mv	a2,a4
   1b418:	01c7fc63          	bgeu	a5,t3,1b430 <__DATA_BEGIN__+0xa3b8>
   1b41c:	97c2                	add	a5,a5,a6
   1b41e:	fff70613          	addi	a2,a4,-1 # ffffff <__BSS_END__+0xfe2f5f>
   1b422:	0107e763          	bltu	a5,a6,1b430 <__DATA_BEGIN__+0xa3b8>
   1b426:	01c7f563          	bgeu	a5,t3,1b430 <__DATA_BEGIN__+0xa3b8>
   1b42a:	ffe70613          	addi	a2,a4,-2
   1b42e:	97c2                	add	a5,a5,a6
   1b430:	0542                	slli	a0,a0,0x10
   1b432:	6ec1                	lui	t4,0x10
   1b434:	8d51                	or	a0,a0,a2
   1b436:	fffe8693          	addi	a3,t4,-1 # ffff <_binary_multizone_bin_size+0x3fdb>
   1b43a:	00d57833          	and	a6,a0,a3
   1b43e:	01055613          	srli	a2,a0,0x10
   1b442:	00d376b3          	and	a3,t1,a3
   1b446:	01035313          	srli	t1,t1,0x10
   1b44a:	41c787b3          	sub	a5,a5,t3
   1b44e:	02d80e33          	mul	t3,a6,a3
   1b452:	02d606b3          	mul	a3,a2,a3
   1b456:	010e5713          	srli	a4,t3,0x10
   1b45a:	02680833          	mul	a6,a6,t1
   1b45e:	9836                	add	a6,a6,a3
   1b460:	9742                	add	a4,a4,a6
   1b462:	02660633          	mul	a2,a2,t1
   1b466:	00d77363          	bgeu	a4,a3,1b46c <__DATA_BEGIN__+0xa3f4>
   1b46a:	9676                	add	a2,a2,t4
   1b46c:	01075693          	srli	a3,a4,0x10
   1b470:	9636                	add	a2,a2,a3
   1b472:	02c7e063          	bltu	a5,a2,1b492 <__DATA_BEGIN__+0xa41a>
   1b476:	d8c794e3          	bne	a5,a2,1b1fe <__DATA_BEGIN__+0xa186>
   1b47a:	67c1                	lui	a5,0x10
   1b47c:	17fd                	addi	a5,a5,-1
   1b47e:	8f7d                	and	a4,a4,a5
   1b480:	0742                	slli	a4,a4,0x10
   1b482:	00fe7e33          	and	t3,t3,a5
   1b486:	00b898b3          	sll	a7,a7,a1
   1b48a:	9772                	add	a4,a4,t3
   1b48c:	4581                	li	a1,0
   1b48e:	e2e8f4e3          	bgeu	a7,a4,1b2b6 <__DATA_BEGIN__+0xa23e>
   1b492:	157d                	addi	a0,a0,-1
   1b494:	b3ad                	j	1b1fe <__DATA_BEGIN__+0xa186>
   1b496:	4581                	li	a1,0
   1b498:	4501                	li	a0,0
   1b49a:	bd31                	j	1b2b6 <__DATA_BEGIN__+0xa23e>
   1b49c:	85aa                	mv	a1,a0
   1b49e:	4681                	li	a3,0
   1b4a0:	4601                	li	a2,0
   1b4a2:	4501                	li	a0,0
   1b4a4:	7a00006f          	j	1bc44 <__DATA_BEGIN__+0xabcc>
   1b4a8:	1141                	addi	sp,sp,-16
   1b4aa:	204087b7          	lui	a5,0x20408
   1b4ae:	c422                	sw	s0,8(sp)
   1b4b0:	20408437          	lui	s0,0x20408
   1b4b4:	11078713          	addi	a4,a5,272 # 20408110 <__BSS_END__+0x203eb070>
   1b4b8:	11040413          	addi	s0,s0,272 # 20408110 <__BSS_END__+0x203eb070>
   1b4bc:	8c19                	sub	s0,s0,a4
   1b4be:	c226                	sw	s1,4(sp)
   1b4c0:	c606                	sw	ra,12(sp)
   1b4c2:	8409                	srai	s0,s0,0x2
   1b4c4:	11078493          	addi	s1,a5,272
   1b4c8:	e411                	bnez	s0,1b4d4 <__DATA_BEGIN__+0xa45c>
   1b4ca:	40b2                	lw	ra,12(sp)
   1b4cc:	4422                	lw	s0,8(sp)
   1b4ce:	4492                	lw	s1,4(sp)
   1b4d0:	0141                	addi	sp,sp,16
   1b4d2:	8082                	ret
   1b4d4:	147d                	addi	s0,s0,-1
   1b4d6:	00241793          	slli	a5,s0,0x2
   1b4da:	97a6                	add	a5,a5,s1
   1b4dc:	439c                	lw	a5,0(a5)
   1b4de:	9782                	jalr	a5
   1b4e0:	b7e5                	j	1b4c8 <__DATA_BEGIN__+0xa450>
   1b4e2:	1141                	addi	sp,sp,-16
   1b4e4:	c422                	sw	s0,8(sp)
   1b4e6:	c226                	sw	s1,4(sp)
   1b4e8:	20408437          	lui	s0,0x20408
   1b4ec:	204084b7          	lui	s1,0x20408
   1b4f0:	11048793          	addi	a5,s1,272 # 20408110 <__BSS_END__+0x203eb070>
   1b4f4:	11040413          	addi	s0,s0,272 # 20408110 <__BSS_END__+0x203eb070>
   1b4f8:	8c1d                	sub	s0,s0,a5
   1b4fa:	c04a                	sw	s2,0(sp)
   1b4fc:	c606                	sw	ra,12(sp)
   1b4fe:	8409                	srai	s0,s0,0x2
   1b500:	11048493          	addi	s1,s1,272
   1b504:	4901                	li	s2,0
   1b506:	02891763          	bne	s2,s0,1b534 <__DATA_BEGIN__+0xa4bc>
   1b50a:	204084b7          	lui	s1,0x20408
   1b50e:	20408437          	lui	s0,0x20408
   1b512:	11048793          	addi	a5,s1,272 # 20408110 <__BSS_END__+0x203eb070>
   1b516:	11040413          	addi	s0,s0,272 # 20408110 <__BSS_END__+0x203eb070>
   1b51a:	8c1d                	sub	s0,s0,a5
   1b51c:	8409                	srai	s0,s0,0x2
   1b51e:	11048493          	addi	s1,s1,272
   1b522:	4901                	li	s2,0
   1b524:	00891d63          	bne	s2,s0,1b53e <__DATA_BEGIN__+0xa4c6>
   1b528:	40b2                	lw	ra,12(sp)
   1b52a:	4422                	lw	s0,8(sp)
   1b52c:	4492                	lw	s1,4(sp)
   1b52e:	4902                	lw	s2,0(sp)
   1b530:	0141                	addi	sp,sp,16
   1b532:	8082                	ret
   1b534:	409c                	lw	a5,0(s1)
   1b536:	0905                	addi	s2,s2,1
   1b538:	0491                	addi	s1,s1,4
   1b53a:	9782                	jalr	a5
   1b53c:	b7e9                	j	1b506 <__DATA_BEGIN__+0xa48e>
   1b53e:	409c                	lw	a5,0(s1)
   1b540:	0905                	addi	s2,s2,1
   1b542:	0491                	addi	s1,s1,4
   1b544:	9782                	jalr	a5
   1b546:	bff9                	j	1b524 <__DATA_BEGIN__+0xa4ac>
   1b548:	832a                	mv	t1,a0
   1b54a:	ca09                	beqz	a2,1b55c <__DATA_BEGIN__+0xa4e4>
   1b54c:	00058383          	lb	t2,0(a1)
   1b550:	00730023          	sb	t2,0(t1)
   1b554:	167d                	addi	a2,a2,-1
   1b556:	0305                	addi	t1,t1,1
   1b558:	0585                	addi	a1,a1,1
   1b55a:	fa6d                	bnez	a2,1b54c <__DATA_BEGIN__+0xa4d4>
   1b55c:	8082                	ret
   1b55e:	4709                	li	a4,2
   1b560:	87aa                	mv	a5,a0
   1b562:	00c50833          	add	a6,a0,a2
   1b566:	00e68e63          	beq	a3,a4,1b582 <__DATA_BEGIN__+0xa50a>
   1b56a:	8209                	srli	a2,a2,0x2
   1b56c:	4198                	lw	a4,0(a1)
   1b56e:	411c                	lw	a5,0(a0)
   1b570:	0591                	addi	a1,a1,4
   1b572:	167d                	addi	a2,a2,-1
   1b574:	c118                	sw	a4,0(a0)
   1b576:	fef5ae23          	sw	a5,-4(a1)
   1b57a:	0511                	addi	a0,a0,4
   1b57c:	fec048e3          	bgtz	a2,1b56c <__DATA_BEGIN__+0xa4f4>
   1b580:	8082                	ret
   1b582:	0005c683          	lbu	a3,0(a1)
   1b586:	0007c703          	lbu	a4,0(a5)
   1b58a:	0585                	addi	a1,a1,1
   1b58c:	0785                	addi	a5,a5,1
   1b58e:	fed78fa3          	sb	a3,-1(a5)
   1b592:	fee58fa3          	sb	a4,-1(a1)
   1b596:	40f80733          	sub	a4,a6,a5
   1b59a:	fee044e3          	bgtz	a4,1b582 <__DATA_BEGIN__+0xa50a>
   1b59e:	8082                	ret
   1b5a0:	1101                	addi	sp,sp,-32
   1b5a2:	cc22                	sw	s0,24(sp)
   1b5a4:	ca26                	sw	s1,20(sp)
   1b5a6:	c84a                	sw	s2,16(sp)
   1b5a8:	c64e                	sw	s3,12(sp)
   1b5aa:	842e                	mv	s0,a1
   1b5ac:	84b2                	mv	s1,a2
   1b5ae:	ce06                	sw	ra,28(sp)
   1b5b0:	89aa                	mv	s3,a0
   1b5b2:	8936                	mv	s2,a3
   1b5b4:	9682                	jalr	a3
   1b5b6:	85a6                	mv	a1,s1
   1b5b8:	02055463          	bgez	a0,1b5e0 <__DATA_BEGIN__+0xa568>
   1b5bc:	8522                	mv	a0,s0
   1b5be:	9902                	jalr	s2
   1b5c0:	00054863          	bltz	a0,1b5d0 <__DATA_BEGIN__+0xa558>
   1b5c4:	85a6                	mv	a1,s1
   1b5c6:	854e                	mv	a0,s3
   1b5c8:	9902                	jalr	s2
   1b5ca:	02054463          	bltz	a0,1b5f2 <__DATA_BEGIN__+0xa57a>
   1b5ce:	844e                	mv	s0,s3
   1b5d0:	40f2                	lw	ra,28(sp)
   1b5d2:	8522                	mv	a0,s0
   1b5d4:	4462                	lw	s0,24(sp)
   1b5d6:	44d2                	lw	s1,20(sp)
   1b5d8:	4942                	lw	s2,16(sp)
   1b5da:	49b2                	lw	s3,12(sp)
   1b5dc:	6105                	addi	sp,sp,32
   1b5de:	8082                	ret
   1b5e0:	8522                	mv	a0,s0
   1b5e2:	9902                	jalr	s2
   1b5e4:	fea046e3          	bgtz	a0,1b5d0 <__DATA_BEGIN__+0xa558>
   1b5e8:	85a6                	mv	a1,s1
   1b5ea:	854e                	mv	a0,s3
   1b5ec:	9902                	jalr	s2
   1b5ee:	fe0540e3          	bltz	a0,1b5ce <__DATA_BEGIN__+0xa556>
   1b5f2:	8426                	mv	s0,s1
   1b5f4:	bff1                	j	1b5d0 <__DATA_BEGIN__+0xa558>
   1b5f6:	7175                	addi	sp,sp,-144
   1b5f8:	00c56733          	or	a4,a0,a2
   1b5fc:	c14a                	sw	s2,128(sp)
   1b5fe:	dece                	sw	s3,124(sp)
   1b600:	dcd2                	sw	s4,120(sp)
   1b602:	d8da                	sw	s6,112(sp)
   1b604:	c706                	sw	ra,140(sp)
   1b606:	c522                	sw	s0,136(sp)
   1b608:	c326                	sw	s1,132(sp)
   1b60a:	dad6                	sw	s5,116(sp)
   1b60c:	d6de                	sw	s7,108(sp)
   1b60e:	d4e2                	sw	s8,104(sp)
   1b610:	d2e6                	sw	s9,100(sp)
   1b612:	d0ea                	sw	s10,96(sp)
   1b614:	ceee                	sw	s11,92(sp)
   1b616:	8b0d                	andi	a4,a4,3
   1b618:	892a                	mv	s2,a0
   1b61a:	8b32                	mv	s6,a2
   1b61c:	8a36                	mv	s4,a3
   1b61e:	4989                	li	s3,2
   1b620:	e709                	bnez	a4,1b62a <__DATA_BEGIN__+0xa5b2>
   1b622:	ffc60993          	addi	s3,a2,-4
   1b626:	013039b3          	snez	s3,s3
   1b62a:	4a81                	li	s5,0
   1b62c:	03658433          	mul	s0,a1,s6
   1b630:	4799                	li	a5,6
   1b632:	01690d33          	add	s10,s2,s6
   1b636:	00890cb3          	add	s9,s2,s0
   1b63a:	04b7ef63          	bltu	a5,a1,1b698 <__DATA_BEGIN__+0xa620>
   1b63e:	039d6963          	bltu	s10,s9,1b670 <__DATA_BEGIN__+0xa5f8>
   1b642:	220a9b63          	bnez	s5,1b878 <__DATA_BEGIN__+0xa800>
   1b646:	40ba                	lw	ra,140(sp)
   1b648:	442a                	lw	s0,136(sp)
   1b64a:	449a                	lw	s1,132(sp)
   1b64c:	490a                	lw	s2,128(sp)
   1b64e:	59f6                	lw	s3,124(sp)
   1b650:	5a66                	lw	s4,120(sp)
   1b652:	5ad6                	lw	s5,116(sp)
   1b654:	5b46                	lw	s6,112(sp)
   1b656:	5bb6                	lw	s7,108(sp)
   1b658:	5c26                	lw	s8,104(sp)
   1b65a:	5c96                	lw	s9,100(sp)
   1b65c:	5d06                	lw	s10,96(sp)
   1b65e:	4df6                	lw	s11,92(sp)
   1b660:	6149                	addi	sp,sp,144
   1b662:	8082                	ret
   1b664:	86ce                	mv	a3,s3
   1b666:	865a                	mv	a2,s6
   1b668:	85a6                	mv	a1,s1
   1b66a:	8522                	mv	a0,s0
   1b66c:	3dcd                	addiw	s11,s11,-13
   1b66e:	a005                	j	1b68e <__DATA_BEGIN__+0xa616>
   1b670:	846a                	mv	s0,s10
   1b672:	a839                	j	1b690 <__DATA_BEGIN__+0xa618>
   1b674:	416404b3          	sub	s1,s0,s6
   1b678:	85a2                	mv	a1,s0
   1b67a:	8526                	mv	a0,s1
   1b67c:	9a02                	jalr	s4
   1b67e:	00a05b63          	blez	a0,1b694 <__DATA_BEGIN__+0xa61c>
   1b682:	fe0991e3          	bnez	s3,1b664 <__DATA_BEGIN__+0xa5ec>
   1b686:	4094                	lw	a3,0(s1)
   1b688:	4018                	lw	a4,0(s0)
   1b68a:	c014                	sw	a3,0(s0)
   1b68c:	c098                	sw	a4,0(s1)
   1b68e:	8426                	mv	s0,s1
   1b690:	fe8962e3          	bltu	s2,s0,1b674 <__DATA_BEGIN__+0xa5fc>
   1b694:	9d5a                	add	s10,s10,s6
   1b696:	b765                	j	1b63e <__DATA_BEGIN__+0xa5c6>
   1b698:	0015dd93          	srli	s11,a1,0x1
   1b69c:	036d8db3          	mul	s11,s11,s6
   1b6a0:	41640433          	sub	s0,s0,s6
   1b6a4:	479d                	li	a5,7
   1b6a6:	00890bb3          	add	s7,s2,s0
   1b6aa:	9dca                	add	s11,s11,s2
   1b6ac:	04f58863          	beq	a1,a5,1b6fc <__DATA_BEGIN__+0xa684>
   1b6b0:	02800793          	li	a5,40
   1b6b4:	08b7f863          	bgeu	a5,a1,1b744 <__DATA_BEGIN__+0xa6cc>
   1b6b8:	818d                	srli	a1,a1,0x3
   1b6ba:	036584b3          	mul	s1,a1,s6
   1b6be:	86d2                	mv	a3,s4
   1b6c0:	854a                	mv	a0,s2
   1b6c2:	009905b3          	add	a1,s2,s1
   1b6c6:	00958633          	add	a2,a1,s1
   1b6ca:	3dd9                	addiw	s11,s11,-10
   1b6cc:	009d8633          	add	a2,s11,s1
   1b6d0:	85ee                	mv	a1,s11
   1b6d2:	86d2                	mv	a3,s4
   1b6d4:	842a                	mv	s0,a0
   1b6d6:	409d8533          	sub	a0,s11,s1
   1b6da:	35d9                	addiw	a1,a1,-10
   1b6dc:	8daa                	mv	s11,a0
   1b6de:	00149513          	slli	a0,s1,0x1
   1b6e2:	40ab8533          	sub	a0,s7,a0
   1b6e6:	865e                	mv	a2,s7
   1b6e8:	86d2                	mv	a3,s4
   1b6ea:	009505b3          	add	a1,a0,s1
   1b6ee:	3d4d                	addiw	s10,s10,-13
   1b6f0:	862a                	mv	a2,a0
   1b6f2:	85ee                	mv	a1,s11
   1b6f4:	86d2                	mv	a3,s4
   1b6f6:	8522                	mv	a0,s0
   1b6f8:	3565                	addiw	a0,a0,-7
   1b6fa:	8daa                	mv	s11,a0
   1b6fc:	04099763          	bnez	s3,1b74a <__DATA_BEGIN__+0xa6d2>
   1b700:	000da603          	lw	a2,0(s11)
   1b704:	00092683          	lw	a3,0(s2)
   1b708:	00c92023          	sw	a2,0(s2)
   1b70c:	00dda023          	sw	a3,0(s11)
   1b710:	8c6a                	mv	s8,s10
   1b712:	84de                	mv	s1,s7
   1b714:	8dea                	mv	s11,s10
   1b716:	4401                	li	s0,0
   1b718:	078be463          	bltu	s7,s8,1b780 <__DATA_BEGIN__+0xa708>
   1b71c:	85ca                	mv	a1,s2
   1b71e:	8562                	mv	a0,s8
   1b720:	9a02                	jalr	s4
   1b722:	06a04a63          	bgtz	a0,1b796 <__DATA_BEGIN__+0xa71e>
   1b726:	ed09                	bnez	a0,1b740 <__DATA_BEGIN__+0xa6c8>
   1b728:	02099763          	bnez	s3,1b756 <__DATA_BEGIN__+0xa6de>
   1b72c:	000c2603          	lw	a2,0(s8)
   1b730:	000da683          	lw	a3,0(s11)
   1b734:	00cda023          	sw	a2,0(s11)
   1b738:	00dc2023          	sw	a3,0(s8)
   1b73c:	9dda                	add	s11,s11,s6
   1b73e:	4405                	li	s0,1
   1b740:	9c5a                	add	s8,s8,s6
   1b742:	bfd9                	j	1b718 <__DATA_BEGIN__+0xa6a0>
   1b744:	865e                	mv	a2,s7
   1b746:	844a                	mv	s0,s2
   1b748:	b76d                	j	1b6f2 <__DATA_BEGIN__+0xa67a>
   1b74a:	86ce                	mv	a3,s3
   1b74c:	865a                	mv	a2,s6
   1b74e:	85ee                	mv	a1,s11
   1b750:	854a                	mv	a0,s2
   1b752:	3531                	addiw	a0,a0,-20
   1b754:	bf75                	j	1b710 <__DATA_BEGIN__+0xa698>
   1b756:	86ce                	mv	a3,s3
   1b758:	865a                	mv	a2,s6
   1b75a:	85e2                	mv	a1,s8
   1b75c:	856e                	mv	a0,s11
   1b75e:	3501                	addiw	a0,a0,-32
   1b760:	bff1                	j	1b73c <__DATA_BEGIN__+0xa6c4>
   1b762:	ed01                	bnez	a0,1b77a <__DATA_BEGIN__+0xa702>
   1b764:	02099363          	bnez	s3,1b78a <__DATA_BEGIN__+0xa712>
   1b768:	4090                	lw	a2,0(s1)
   1b76a:	000ba683          	lw	a3,0(s7)
   1b76e:	00cba023          	sw	a2,0(s7)
   1b772:	c094                	sw	a3,0(s1)
   1b774:	416484b3          	sub	s1,s1,s6
   1b778:	4405                	li	s0,1
   1b77a:	4bb2                	lw	s7,12(sp)
   1b77c:	018bfd63          	bgeu	s7,s8,1b796 <__DATA_BEGIN__+0xa71e>
   1b780:	ec2d                	bnez	s0,1b7fa <__DATA_BEGIN__+0xa782>
   1b782:	ed9d70e3          	bgeu	s10,s9,1b642 <__DATA_BEGIN__+0xa5ca>
   1b786:	846a                	mv	s0,s10
   1b788:	a0ad                	j	1b7f2 <__DATA_BEGIN__+0xa77a>
   1b78a:	86ce                	mv	a3,s3
   1b78c:	865a                	mv	a2,s6
   1b78e:	85a6                	mv	a1,s1
   1b790:	855e                	mv	a0,s7
   1b792:	33f1                	addiw	t2,t2,-4
   1b794:	b7c5                	j	1b774 <__DATA_BEGIN__+0xa6fc>
   1b796:	85ca                	mv	a1,s2
   1b798:	855e                	mv	a0,s7
   1b79a:	9a02                	jalr	s4
   1b79c:	416b87b3          	sub	a5,s7,s6
   1b7a0:	c63e                	sw	a5,12(sp)
   1b7a2:	fc0550e3          	bgez	a0,1b762 <__DATA_BEGIN__+0xa6ea>
   1b7a6:	00098863          	beqz	s3,1b7b6 <__DATA_BEGIN__+0xa73e>
   1b7aa:	86ce                	mv	a3,s3
   1b7ac:	865a                	mv	a2,s6
   1b7ae:	85de                	mv	a1,s7
   1b7b0:	8562                	mv	a0,s8
   1b7b2:	3375                	addiw	t1,t1,-3
   1b7b4:	a809                	j	1b7c6 <__DATA_BEGIN__+0xa74e>
   1b7b6:	000ba603          	lw	a2,0(s7)
   1b7ba:	000c2683          	lw	a3,0(s8)
   1b7be:	00cc2023          	sw	a2,0(s8)
   1b7c2:	00dba023          	sw	a3,0(s7)
   1b7c6:	4bb2                	lw	s7,12(sp)
   1b7c8:	bf9d                	j	1b73e <__DATA_BEGIN__+0xa6c6>
   1b7ca:	86ce                	mv	a3,s3
   1b7cc:	865a                	mv	a2,s6
   1b7ce:	85a6                	mv	a1,s1
   1b7d0:	8522                	mv	a0,s0
   1b7d2:	3371                	addiw	t1,t1,-4
   1b7d4:	a831                	j	1b7f0 <__DATA_BEGIN__+0xa778>
   1b7d6:	416404b3          	sub	s1,s0,s6
   1b7da:	85a2                	mv	a1,s0
   1b7dc:	8526                	mv	a0,s1
   1b7de:	9a02                	jalr	s4
   1b7e0:	00a05b63          	blez	a0,1b7f6 <__DATA_BEGIN__+0xa77e>
   1b7e4:	fe0993e3          	bnez	s3,1b7ca <__DATA_BEGIN__+0xa752>
   1b7e8:	4094                	lw	a3,0(s1)
   1b7ea:	4018                	lw	a4,0(s0)
   1b7ec:	c014                	sw	a3,0(s0)
   1b7ee:	c098                	sw	a4,0(s1)
   1b7f0:	8426                	mv	s0,s1
   1b7f2:	fe8962e3          	bltu	s2,s0,1b7d6 <__DATA_BEGIN__+0xa75e>
   1b7f6:	9d5a                	add	s10,s10,s6
   1b7f8:	b769                	j	1b782 <__DATA_BEGIN__+0xa70a>
   1b7fa:	41bc0d33          	sub	s10,s8,s11
   1b7fe:	412d8633          	sub	a2,s11,s2
   1b802:	00cd5363          	bge	s10,a2,1b808 <__DATA_BEGIN__+0xa790>
   1b806:	866a                	mv	a2,s10
   1b808:	c611                	beqz	a2,1b814 <__DATA_BEGIN__+0xa79c>
   1b80a:	86ce                	mv	a3,s3
   1b80c:	40cc05b3          	sub	a1,s8,a2
   1b810:	854a                	mv	a0,s2
   1b812:	33b1                	addiw	t2,t2,-20
   1b814:	409c8633          	sub	a2,s9,s1
   1b818:	41748bb3          	sub	s7,s1,s7
   1b81c:	41660633          	sub	a2,a2,s6
   1b820:	00cbf363          	bgeu	s7,a2,1b826 <__DATA_BEGIN__+0xa7ae>
   1b824:	865e                	mv	a2,s7
   1b826:	c611                	beqz	a2,1b832 <__DATA_BEGIN__+0xa7ba>
   1b828:	86ce                	mv	a3,s3
   1b82a:	40cc85b3          	sub	a1,s9,a2
   1b82e:	8562                	mv	a0,s8
   1b830:	333d                	addiw	t1,t1,-17
   1b832:	84ea                	mv	s1,s10
   1b834:	417c8533          	sub	a0,s9,s7
   1b838:	017d7763          	bgeu	s10,s7,1b846 <__DATA_BEGIN__+0xa7ce>
   1b83c:	874a                	mv	a4,s2
   1b83e:	84de                	mv	s1,s7
   1b840:	892a                	mv	s2,a0
   1b842:	8bea                	mv	s7,s10
   1b844:	853a                	mv	a0,a4
   1b846:	057b7363          	bgeu	s6,s7,1b88c <__DATA_BEGIN__+0xa814>
   1b84a:	479d                	li	a5,7
   1b84c:	036bd5b3          	divu	a1,s7,s6
   1b850:	0157ef63          	bltu	a5,s5,1b86e <__DATA_BEGIN__+0xa7f6>
   1b854:	003a9713          	slli	a4,s5,0x3
   1b858:	089c                	addi	a5,sp,80
   1b85a:	973e                	add	a4,a4,a5
   1b85c:	fd272023          	sw	s2,-64(a4)
   1b860:	0a85                	addi	s5,s5,1
   1b862:	0364d4b3          	divu	s1,s1,s6
   1b866:	fc972223          	sw	s1,-60(a4)
   1b86a:	892a                	mv	s2,a0
   1b86c:	b3c1                	j	1b62c <__DATA_BEGIN__+0xa5b4>
   1b86e:	86d2                	mv	a3,s4
   1b870:	865a                	mv	a2,s6
   1b872:	3351                	addiw	t1,t1,-12
   1b874:	009b6e63          	bltu	s6,s1,1b890 <__DATA_BEGIN__+0xa818>
   1b878:	1afd                	addi	s5,s5,-1
   1b87a:	003a9713          	slli	a4,s5,0x3
   1b87e:	089c                	addi	a5,sp,80
   1b880:	973e                	add	a4,a4,a5
   1b882:	fc072503          	lw	a0,-64(a4)
   1b886:	fc472583          	lw	a1,-60(a4)
   1b88a:	b7c5                	j	1b86a <__DATA_BEGIN__+0xa7f2>
   1b88c:	da9b7be3          	bgeu	s6,s1,1b642 <__DATA_BEGIN__+0xa5ca>
   1b890:	0364d5b3          	divu	a1,s1,s6
   1b894:	854a                	mv	a0,s2
   1b896:	bfd1                	j	1b86a <__DATA_BEGIN__+0xa7f2>
   1b898:	00054603          	lbu	a2,0(a0)
   1b89c:	0005c683          	lbu	a3,0(a1)
   1b8a0:	0505                	addi	a0,a0,1
   1b8a2:	0585                	addi	a1,a1,1
   1b8a4:	00d61363          	bne	a2,a3,1b8aa <__DATA_BEGIN__+0xa832>
   1b8a8:	fa65                	bnez	a2,1b898 <__DATA_BEGIN__+0xa820>
   1b8aa:	40d60533          	sub	a0,a2,a3
   1b8ae:	8082                	ret
   1b8b0:	87aa                	mv	a5,a0
   1b8b2:	0005c703          	lbu	a4,0(a1)
   1b8b6:	0785                	addi	a5,a5,1
   1b8b8:	0585                	addi	a1,a1,1
   1b8ba:	fee78fa3          	sb	a4,-1(a5)
   1b8be:	fb75                	bnez	a4,1b8b2 <__DATA_BEGIN__+0xa83a>
   1b8c0:	8082                	ret
   1b8c2:	87aa                	mv	a5,a0
   1b8c4:	0007c703          	lbu	a4,0(a5)
   1b8c8:	0785                	addi	a5,a5,1
   1b8ca:	ff6d                	bnez	a4,1b8c4 <__DATA_BEGIN__+0xa84c>
   1b8cc:	40a78533          	sub	a0,a5,a0
   1b8d0:	157d                	addi	a0,a0,-1
   1b8d2:	8082                	ret
   1b8d4:	87aa                	mv	a5,a0
   1b8d6:	ca09                	beqz	a2,1b8e8 <__DATA_BEGIN__+0xa870>
   1b8d8:	0005c703          	lbu	a4,0(a1)
   1b8dc:	0585                	addi	a1,a1,1
   1b8de:	0785                	addi	a5,a5,1
   1b8e0:	fee78fa3          	sb	a4,-1(a5)
   1b8e4:	167d                	addi	a2,a2,-1
   1b8e6:	fb65                	bnez	a4,1b8d6 <__DATA_BEGIN__+0xa85e>
   1b8e8:	963e                	add	a2,a2,a5
   1b8ea:	00c79363          	bne	a5,a2,1b8f0 <__DATA_BEGIN__+0xa878>
   1b8ee:	8082                	ret
   1b8f0:	0785                	addi	a5,a5,1
   1b8f2:	fe078fa3          	sb	zero,-1(a5)
   1b8f6:	bfd5                	j	1b8ea <__DATA_BEGIN__+0xa872>
   1b8f8:	7179                	addi	sp,sp,-48
   1b8fa:	2040c737          	lui	a4,0x2040c
   1b8fe:	d226                	sw	s1,36(sp)
   1b900:	d04a                	sw	s2,32(sp)
   1b902:	ca56                	sw	s5,20(sp)
   1b904:	c85a                	sw	s6,16(sp)
   1b906:	c65e                	sw	s7,12(sp)
   1b908:	d606                	sw	ra,44(sp)
   1b90a:	d422                	sw	s0,40(sp)
   1b90c:	ce4e                	sw	s3,28(sp)
   1b90e:	cc52                	sw	s4,24(sp)
   1b910:	c462                	sw	s8,8(sp)
   1b912:	c266                	sw	s9,4(sp)
   1b914:	8baa                	mv	s7,a0
   1b916:	8aae                	mv	s5,a1
   1b918:	8b32                	mv	s6,a2
   1b91a:	8936                	mv	s2,a3
   1b91c:	84ae                	mv	s1,a1
   1b91e:	eb170713          	addi	a4,a4,-335 # 2040beb1 <__BSS_END__+0x203eee11>
   1b922:	86a6                	mv	a3,s1
   1b924:	0004c403          	lbu	s0,0(s1)
   1b928:	0485                	addi	s1,s1,1
   1b92a:	00e407b3          	add	a5,s0,a4
   1b92e:	0007c783          	lbu	a5,0(a5)
   1b932:	8ba1                	andi	a5,a5,8
   1b934:	f7fd                	bnez	a5,1b922 <__DATA_BEGIN__+0xa8aa>
   1b936:	02d00793          	li	a5,45
   1b93a:	0cf41063          	bne	s0,a5,1b9fa <__DATA_BEGIN__+0xa982>
   1b93e:	0004c403          	lbu	s0,0(s1)
   1b942:	4c05                	li	s8,1
   1b944:	00268493          	addi	s1,a3,2
   1b948:	14090163          	beqz	s2,1ba8a <__DATA_BEGIN__+0xaa12>
   1b94c:	47c1                	li	a5,16
   1b94e:	02f91263          	bne	s2,a5,1b972 <__DATA_BEGIN__+0xa8fa>
   1b952:	03000793          	li	a5,48
   1b956:	00f41e63          	bne	s0,a5,1b972 <__DATA_BEGIN__+0xa8fa>
   1b95a:	0004c783          	lbu	a5,0(s1)
   1b95e:	05800713          	li	a4,88
   1b962:	0df7f793          	andi	a5,a5,223
   1b966:	10e79c63          	bne	a5,a4,1ba7e <__DATA_BEGIN__+0xaa06>
   1b96a:	0014c403          	lbu	s0,1(s1)
   1b96e:	4941                	li	s2,16
   1b970:	0489                	addi	s1,s1,2
   1b972:	41f95c93          	srai	s9,s2,0x1f
   1b976:	864a                	mv	a2,s2
   1b978:	86e6                	mv	a3,s9
   1b97a:	557d                	li	a0,-1
   1b97c:	55fd                	li	a1,-1
   1b97e:	fbeff0ef          	jal	ra,1b13c <__DATA_BEGIN__+0xa0c4>
   1b982:	86e6                	mv	a3,s9
   1b984:	8a2a                	mv	s4,a0
   1b986:	89ae                	mv	s3,a1
   1b988:	864a                	mv	a2,s2
   1b98a:	557d                	li	a0,-1
   1b98c:	55fd                	li	a1,-1
   1b98e:	29a9                	addiw	s3,s3,10
   1b990:	86aa                	mv	a3,a0
   1b992:	4701                	li	a4,0
   1b994:	4501                	li	a0,0
   1b996:	4581                	li	a1,0
   1b998:	48a5                	li	a7,9
   1b99a:	4865                	li	a6,25
   1b99c:	fd040793          	addi	a5,s0,-48
   1b9a0:	06f8e763          	bltu	a7,a5,1ba0e <__DATA_BEGIN__+0xa996>
   1b9a4:	843e                	mv	s0,a5
   1b9a6:	09245463          	bge	s0,s2,1ba2e <__DATA_BEGIN__+0xa9b6>
   1b9aa:	08074063          	bltz	a4,1ba2a <__DATA_BEGIN__+0xa9b2>
   1b9ae:	06b9ee63          	bltu	s3,a1,1ba2a <__DATA_BEGIN__+0xa9b2>
   1b9b2:	01359463          	bne	a1,s3,1b9ba <__DATA_BEGIN__+0xa942>
   1b9b6:	06aa6a63          	bltu	s4,a0,1ba2a <__DATA_BEGIN__+0xa9b2>
   1b9ba:	00aa1763          	bne	s4,a0,1b9c8 <__DATA_BEGIN__+0xa950>
   1b9be:	00b99563          	bne	s3,a1,1b9c8 <__DATA_BEGIN__+0xa950>
   1b9c2:	577d                	li	a4,-1
   1b9c4:	0286c763          	blt	a3,s0,1b9f2 <__DATA_BEGIN__+0xa97a>
   1b9c8:	02ac8733          	mul	a4,s9,a0
   1b9cc:	032587b3          	mul	a5,a1,s2
   1b9d0:	02a90633          	mul	a2,s2,a0
   1b9d4:	00f705b3          	add	a1,a4,a5
   1b9d8:	4705                	li	a4,1
   1b9da:	02a937b3          	mulhu	a5,s2,a0
   1b9de:	00c40533          	add	a0,s0,a2
   1b9e2:	95be                	add	a1,a1,a5
   1b9e4:	41f45793          	srai	a5,s0,0x1f
   1b9e8:	97ae                	add	a5,a5,a1
   1b9ea:	00853433          	sltu	s0,a0,s0
   1b9ee:	00f405b3          	add	a1,s0,a5
   1b9f2:	0485                	addi	s1,s1,1
   1b9f4:	fff4c403          	lbu	s0,-1(s1)
   1b9f8:	b755                	j	1b99c <__DATA_BEGIN__+0xa924>
   1b9fa:	02b00793          	li	a5,43
   1b9fe:	4c01                	li	s8,0
   1ba00:	f4f414e3          	bne	s0,a5,1b948 <__DATA_BEGIN__+0xa8d0>
   1ba04:	0004c403          	lbu	s0,0(s1)
   1ba08:	00268493          	addi	s1,a3,2
   1ba0c:	bf35                	j	1b948 <__DATA_BEGIN__+0xa8d0>
   1ba0e:	fbf40793          	addi	a5,s0,-65
   1ba12:	00f86563          	bltu	a6,a5,1ba1c <__DATA_BEGIN__+0xa9a4>
   1ba16:	fc940413          	addi	s0,s0,-55
   1ba1a:	b771                	j	1b9a6 <__DATA_BEGIN__+0xa92e>
   1ba1c:	f9f40793          	addi	a5,s0,-97
   1ba20:	00f86763          	bltu	a6,a5,1ba2e <__DATA_BEGIN__+0xa9b6>
   1ba24:	fa940413          	addi	s0,s0,-87
   1ba28:	bfbd                	j	1b9a6 <__DATA_BEGIN__+0xa92e>
   1ba2a:	577d                	li	a4,-1
   1ba2c:	b7d9                	j	1b9f2 <__DATA_BEGIN__+0xa97a>
   1ba2e:	02075763          	bgez	a4,1ba5c <__DATA_BEGIN__+0xa9e4>
   1ba32:	02200793          	li	a5,34
   1ba36:	00fba023          	sw	a5,0(s7)
   1ba3a:	557d                	li	a0,-1
   1ba3c:	55fd                	li	a1,-1
   1ba3e:	020b1b63          	bnez	s6,1ba74 <__DATA_BEGIN__+0xa9fc>
   1ba42:	50b2                	lw	ra,44(sp)
   1ba44:	5422                	lw	s0,40(sp)
   1ba46:	5492                	lw	s1,36(sp)
   1ba48:	5902                	lw	s2,32(sp)
   1ba4a:	49f2                	lw	s3,28(sp)
   1ba4c:	4a62                	lw	s4,24(sp)
   1ba4e:	4ad2                	lw	s5,20(sp)
   1ba50:	4b42                	lw	s6,16(sp)
   1ba52:	4bb2                	lw	s7,12(sp)
   1ba54:	4c22                	lw	s8,8(sp)
   1ba56:	4c92                	lw	s9,4(sp)
   1ba58:	6145                	addi	sp,sp,48
   1ba5a:	8082                	ret
   1ba5c:	000c0963          	beqz	s8,1ba6e <__DATA_BEGIN__+0xa9f6>
   1ba60:	00a037b3          	snez	a5,a0
   1ba64:	40b005b3          	neg	a1,a1
   1ba68:	8d9d                	sub	a1,a1,a5
   1ba6a:	40a00533          	neg	a0,a0
   1ba6e:	fc0b0ae3          	beqz	s6,1ba42 <__DATA_BEGIN__+0xa9ca>
   1ba72:	c319                	beqz	a4,1ba78 <__DATA_BEGIN__+0xaa00>
   1ba74:	fff48a93          	addi	s5,s1,-1
   1ba78:	015b2023          	sw	s5,0(s6)
   1ba7c:	b7d9                	j	1ba42 <__DATA_BEGIN__+0xa9ca>
   1ba7e:	03000413          	li	s0,48
   1ba82:	ee0918e3          	bnez	s2,1b972 <__DATA_BEGIN__+0xa8fa>
   1ba86:	4921                	li	s2,8
   1ba88:	b5ed                	j	1b972 <__DATA_BEGIN__+0xa8fa>
   1ba8a:	03000793          	li	a5,48
   1ba8e:	ecf406e3          	beq	s0,a5,1b95a <__DATA_BEGIN__+0xa8e2>
   1ba92:	4929                	li	s2,10
   1ba94:	bdf9                	j	1b972 <__DATA_BEGIN__+0xa8fa>
   1ba96:	800037b7          	lui	a5,0x80003
   1ba9a:	86b2                	mv	a3,a2
   1ba9c:	862e                	mv	a2,a1
   1ba9e:	85aa                	mv	a1,a0
   1baa0:	0687a503          	lw	a0,104(a5) # ffffffff80003068 <__BSS_END__+0xffffffff7ffe5fc8>
   1baa4:	bd91                	j	1b8f8 <__DATA_BEGIN__+0xa880>
   1baa6:	2040c837          	lui	a6,0x2040c
   1baaa:	8e2a                	mv	t3,a0
   1baac:	872e                	mv	a4,a1
   1baae:	eb180813          	addi	a6,a6,-335 # 2040beb1 <__BSS_END__+0x203eee11>
   1bab2:	88ba                	mv	a7,a4
   1bab4:	00074783          	lbu	a5,0(a4)
   1bab8:	0705                	addi	a4,a4,1
   1baba:	01078533          	add	a0,a5,a6
   1babe:	00054503          	lbu	a0,0(a0)
   1bac2:	8921                	andi	a0,a0,8
   1bac4:	f57d                	bnez	a0,1bab2 <__DATA_BEGIN__+0xaa3a>
   1bac6:	02d00513          	li	a0,45
   1baca:	06a79c63          	bne	a5,a0,1bb42 <__DATA_BEGIN__+0xaaca>
   1bace:	00074783          	lbu	a5,0(a4)
   1bad2:	4e85                	li	t4,1
   1bad4:	00288713          	addi	a4,a7,2 # fffffffffffe9002 <__BSS_END__+0xfffffffffffcbf62>
   1bad8:	cae1                	beqz	a3,1bba8 <__DATA_BEGIN__+0xab30>
   1bada:	4541                	li	a0,16
   1badc:	02a69263          	bne	a3,a0,1bb00 <__DATA_BEGIN__+0xaa88>
   1bae0:	03000513          	li	a0,48
   1bae4:	00a79e63          	bne	a5,a0,1bb00 <__DATA_BEGIN__+0xaa88>
   1bae8:	00074783          	lbu	a5,0(a4)
   1baec:	05800513          	li	a0,88
   1baf0:	0df7f793          	andi	a5,a5,223
   1baf4:	0aa79563          	bne	a5,a0,1bb9e <__DATA_BEGIN__+0xab26>
   1baf8:	00174783          	lbu	a5,1(a4)
   1bafc:	46c1                	li	a3,16
   1bafe:	0709                	addi	a4,a4,2
   1bb00:	587d                	li	a6,-1
   1bb02:	02d85f33          	divu	t5,a6,a3
   1bb06:	4881                	li	a7,0
   1bb08:	4501                	li	a0,0
   1bb0a:	42a5                	li	t0,9
   1bb0c:	4fe5                	li	t6,25
   1bb0e:	02d87333          	remu	t1,a6,a3
   1bb12:	fd078813          	addi	a6,a5,-48
   1bb16:	0502e063          	bltu	t0,a6,1bb56 <__DATA_BEGIN__+0xaade>
   1bb1a:	87c2                	mv	a5,a6
   1bb1c:	04d7dd63          	bge	a5,a3,1bb76 <__DATA_BEGIN__+0xaafe>
   1bb20:	0408c963          	bltz	a7,1bb72 <__DATA_BEGIN__+0xaafa>
   1bb24:	58fd                	li	a7,-1
   1bb26:	00af6a63          	bltu	t5,a0,1bb3a <__DATA_BEGIN__+0xaac2>
   1bb2a:	00af1463          	bne	t5,a0,1bb32 <__DATA_BEGIN__+0xaaba>
   1bb2e:	00f34663          	blt	t1,a5,1bb3a <__DATA_BEGIN__+0xaac2>
   1bb32:	4885                	li	a7,1
   1bb34:	02a68533          	mul	a0,a3,a0
   1bb38:	953e                	add	a0,a0,a5
   1bb3a:	0705                	addi	a4,a4,1
   1bb3c:	fff74783          	lbu	a5,-1(a4)
   1bb40:	bfc9                	j	1bb12 <__DATA_BEGIN__+0xaa9a>
   1bb42:	02b00513          	li	a0,43
   1bb46:	4e81                	li	t4,0
   1bb48:	f8a798e3          	bne	a5,a0,1bad8 <__DATA_BEGIN__+0xaa60>
   1bb4c:	00074783          	lbu	a5,0(a4)
   1bb50:	00288713          	addi	a4,a7,2
   1bb54:	b751                	j	1bad8 <__DATA_BEGIN__+0xaa60>
   1bb56:	fbf78813          	addi	a6,a5,-65
   1bb5a:	010fe563          	bltu	t6,a6,1bb64 <__DATA_BEGIN__+0xaaec>
   1bb5e:	fc978793          	addi	a5,a5,-55
   1bb62:	bf6d                	j	1bb1c <__DATA_BEGIN__+0xaaa4>
   1bb64:	f9f78813          	addi	a6,a5,-97
   1bb68:	010fe763          	bltu	t6,a6,1bb76 <__DATA_BEGIN__+0xaafe>
   1bb6c:	fa978793          	addi	a5,a5,-87
   1bb70:	b775                	j	1bb1c <__DATA_BEGIN__+0xaaa4>
   1bb72:	58fd                	li	a7,-1
   1bb74:	b7d9                	j	1bb3a <__DATA_BEGIN__+0xaac2>
   1bb76:	0008d963          	bgez	a7,1bb88 <__DATA_BEGIN__+0xab10>
   1bb7a:	02200793          	li	a5,34
   1bb7e:	00fe2023          	sw	a5,0(t3)
   1bb82:	557d                	li	a0,-1
   1bb84:	ea09                	bnez	a2,1bb96 <__DATA_BEGIN__+0xab1e>
   1bb86:	8082                	ret
   1bb88:	000e8463          	beqz	t4,1bb90 <__DATA_BEGIN__+0xab18>
   1bb8c:	40a00533          	neg	a0,a0
   1bb90:	c215                	beqz	a2,1bbb4 <__DATA_BEGIN__+0xab3c>
   1bb92:	00088463          	beqz	a7,1bb9a <__DATA_BEGIN__+0xab22>
   1bb96:	fff70593          	addi	a1,a4,-1
   1bb9a:	c20c                	sw	a1,0(a2)
   1bb9c:	8082                	ret
   1bb9e:	03000793          	li	a5,48
   1bba2:	feb9                	bnez	a3,1bb00 <__DATA_BEGIN__+0xaa88>
   1bba4:	46a1                	li	a3,8
   1bba6:	bfa9                	j	1bb00 <__DATA_BEGIN__+0xaa88>
   1bba8:	03000513          	li	a0,48
   1bbac:	f2a78ee3          	beq	a5,a0,1bae8 <__DATA_BEGIN__+0xaa70>
   1bbb0:	46a9                	li	a3,10
   1bbb2:	b7b9                	j	1bb00 <__DATA_BEGIN__+0xaa88>
   1bbb4:	8082                	ret
   1bbb6:	800037b7          	lui	a5,0x80003
   1bbba:	86b2                	mv	a3,a2
   1bbbc:	862e                	mv	a2,a1
   1bbbe:	85aa                	mv	a1,a0
   1bbc0:	0687a503          	lw	a0,104(a5) # ffffffff80003068 <__BSS_END__+0xffffffff7ffe5fc8>
   1bbc4:	b5cd                	j	1baa6 <__DATA_BEGIN__+0xaa2e>
   1bbc6:	ca0ff06f          	j	1b066 <__DATA_BEGIN__+0x9fee>
   1bbca:	7139                	addi	sp,sp,-64
   1bbcc:	da3e                	sw	a5,52(sp)
   1bbce:	103c                	addi	a5,sp,40
   1bbd0:	c63e                	sw	a5,12(sp)
   1bbd2:	800037b7          	lui	a5,0x80003
   1bbd6:	d432                	sw	a2,40(sp)
   1bbd8:	d636                	sw	a3,44(sp)
   1bbda:	86b2                	mv	a3,a2
   1bbdc:	862e                	mv	a2,a1
   1bbde:	85aa                	mv	a1,a0
   1bbe0:	0687a503          	lw	a0,104(a5) # ffffffff80003068 <__BSS_END__+0xffffffff7ffe5fc8>
   1bbe4:	ce06                	sw	ra,28(sp)
   1bbe6:	d83a                	sw	a4,48(sp)
   1bbe8:	dc42                	sw	a6,56(sp)
   1bbea:	de46                	sw	a7,60(sp)
   1bbec:	2a71                	addiw	s4,s4,28
   1bbee:	40f2                	lw	ra,28(sp)
   1bbf0:	6121                	addi	sp,sp,64
   1bbf2:	8082                	ret
   1bbf4:	800037b7          	lui	a5,0x80003
   1bbf8:	86b2                	mv	a3,a2
   1bbfa:	862e                	mv	a2,a1
   1bbfc:	85aa                	mv	a1,a0
   1bbfe:	0687a503          	lw	a0,104(a5) # ffffffff80003068 <__BSS_END__+0xffffffff7ffe5fc8>
   1bc02:	aa5d                	j	1bdb8 <__DATA_BEGIN__+0xad40>
   1bc04:	800037b7          	lui	a5,0x80003
   1bc08:	86b2                	mv	a3,a2
   1bc0a:	862e                	mv	a2,a1
   1bc0c:	85aa                	mv	a1,a0
   1bc0e:	0687a503          	lw	a0,104(a5) # ffffffff80003068 <__BSS_END__+0xffffffff7ffe5fc8>
   1bc12:	a009                	j	1bc14 <__DATA_BEGIN__+0xab9c>
   1bc14:	1141                	addi	sp,sp,-16
   1bc16:	c422                	sw	s0,8(sp)
   1bc18:	c226                	sw	s1,4(sp)
   1bc1a:	842a                	mv	s0,a0
   1bc1c:	852e                	mv	a0,a1
   1bc1e:	85b2                	mv	a1,a2
   1bc20:	8636                	mv	a2,a3
   1bc22:	c606                	sw	ra,12(sp)
   1bc24:	8201a023          	sw	zero,-2016(gp) # 1c0c0 <__DATA_BEGIN__+0xb048>
   1bc28:	cdaff0ef          	jal	ra,1b102 <__DATA_BEGIN__+0xa08a>
   1bc2c:	57fd                	li	a5,-1
   1bc2e:	00f51663          	bne	a0,a5,1bc3a <__DATA_BEGIN__+0xabc2>
   1bc32:	8201a783          	lw	a5,-2016(gp) # 1c0c0 <__DATA_BEGIN__+0xb048>
   1bc36:	c391                	beqz	a5,1bc3a <__DATA_BEGIN__+0xabc2>
   1bc38:	c01c                	sw	a5,0(s0)
   1bc3a:	40b2                	lw	ra,12(sp)
   1bc3c:	4422                	lw	s0,8(sp)
   1bc3e:	4492                	lw	s1,4(sp)
   1bc40:	0141                	addi	sp,sp,16
   1bc42:	8082                	ret
   1bc44:	81c1a783          	lw	a5,-2020(gp) # 1c0bc <__DATA_BEGIN__+0xb044>
   1bc48:	88aa                	mv	a7,a0
   1bc4a:	e38d                	bnez	a5,1bc6c <__DATA_BEGIN__+0xabf4>
   1bc4c:	9b818513          	addi	a0,gp,-1608 # 1c258 <__DATA_BEGIN__+0xb1e0>
   1bc50:	80a1ae23          	sw	a0,-2020(gp) # 1c0bc <__DATA_BEGIN__+0xb044>
   1bc54:	00000313          	li	t1,0
   1bc58:	9b818793          	addi	a5,gp,-1608 # 1c258 <__DATA_BEGIN__+0xb1e0>
   1bc5c:	00030863          	beqz	t1,1bc6c <__DATA_BEGIN__+0xabf4>
   1bc60:	00002783          	lw	a5,0(zero) # 0 <_binary_multizone_bin_size-0xc024>
   1bc64:	08f52423          	sw	a5,136(a0)
   1bc68:	9b818793          	addi	a5,gp,-1608 # 1c258 <__DATA_BEGIN__+0xb1e0>
   1bc6c:	43d8                	lw	a4,4(a5)
   1bc6e:	487d                	li	a6,31
   1bc70:	557d                	li	a0,-1
   1bc72:	04e84663          	blt	a6,a4,1bcbe <__DATA_BEGIN__+0xac46>
   1bc76:	02088d63          	beqz	a7,1bcb0 <__DATA_BEGIN__+0xac38>
   1bc7a:	0887a803          	lw	a6,136(a5)
   1bc7e:	04080063          	beqz	a6,1bcbe <__DATA_BEGIN__+0xac46>
   1bc82:	00271513          	slli	a0,a4,0x2
   1bc86:	9542                	add	a0,a0,a6
   1bc88:	c110                	sw	a2,0(a0)
   1bc8a:	10082303          	lw	t1,256(a6)
   1bc8e:	4605                	li	a2,1
   1bc90:	00e61633          	sll	a2,a2,a4
   1bc94:	00c36333          	or	t1,t1,a2
   1bc98:	10682023          	sw	t1,256(a6)
   1bc9c:	08d52023          	sw	a3,128(a0)
   1bca0:	4689                	li	a3,2
   1bca2:	00d89763          	bne	a7,a3,1bcb0 <__DATA_BEGIN__+0xac38>
   1bca6:	10482683          	lw	a3,260(a6)
   1bcaa:	8e55                	or	a2,a2,a3
   1bcac:	10c82223          	sw	a2,260(a6)
   1bcb0:	00170693          	addi	a3,a4,1
   1bcb4:	070a                	slli	a4,a4,0x2
   1bcb6:	c3d4                	sw	a3,4(a5)
   1bcb8:	97ba                	add	a5,a5,a4
   1bcba:	c78c                	sw	a1,8(a5)
   1bcbc:	4501                	li	a0,0
   1bcbe:	8082                	ret
   1bcc0:	7179                	addi	sp,sp,-48
   1bcc2:	ca56                	sw	s5,20(sp)
   1bcc4:	c85a                	sw	s6,16(sp)
   1bcc6:	c65e                	sw	s7,12(sp)
   1bcc8:	c266                	sw	s9,4(sp)
   1bcca:	d606                	sw	ra,44(sp)
   1bccc:	d422                	sw	s0,40(sp)
   1bcce:	d226                	sw	s1,36(sp)
   1bcd0:	d04a                	sw	s2,32(sp)
   1bcd2:	ce4e                	sw	s3,28(sp)
   1bcd4:	cc52                	sw	s4,24(sp)
   1bcd6:	c462                	sw	s8,8(sp)
   1bcd8:	c06a                	sw	s10,0(sp)
   1bcda:	8b2a                	mv	s6,a0
   1bcdc:	8aae                	mv	s5,a1
   1bcde:	4c85                	li	s9,1
   1bce0:	81c1a483          	lw	s1,-2020(gp) # 1c0bc <__DATA_BEGIN__+0xb044>
   1bce4:	81c18c13          	addi	s8,gp,-2020 # 1c0bc <__DATA_BEGIN__+0xb044>
   1bce8:	cc81                	beqz	s1,1bd00 <__DATA_BEGIN__+0xac88>
   1bcea:	40c0                	lw	s0,4(s1)
   1bcec:	0884a983          	lw	s3,136(s1)
   1bcf0:	fff40913          	addi	s2,s0,-1
   1bcf4:	040a                	slli	s0,s0,0x2
   1bcf6:	00898a33          	add	s4,s3,s0
   1bcfa:	9426                	add	s0,s0,s1
   1bcfc:	02095063          	bgez	s2,1bd1c <__DATA_BEGIN__+0xaca4>
   1bd00:	50b2                	lw	ra,44(sp)
   1bd02:	5422                	lw	s0,40(sp)
   1bd04:	5492                	lw	s1,36(sp)
   1bd06:	5902                	lw	s2,32(sp)
   1bd08:	49f2                	lw	s3,28(sp)
   1bd0a:	4a62                	lw	s4,24(sp)
   1bd0c:	4ad2                	lw	s5,20(sp)
   1bd0e:	4b42                	lw	s6,16(sp)
   1bd10:	4bb2                	lw	s7,12(sp)
   1bd12:	4c22                	lw	s8,8(sp)
   1bd14:	4c92                	lw	s9,4(sp)
   1bd16:	4d02                	lw	s10,0(sp)
   1bd18:	6145                	addi	sp,sp,48
   1bd1a:	8082                	ret
   1bd1c:	000a8c63          	beqz	s5,1bd34 <__DATA_BEGIN__+0xacbc>
   1bd20:	00099663          	bnez	s3,1bd2c <__DATA_BEGIN__+0xacb4>
   1bd24:	197d                	addi	s2,s2,-1
   1bd26:	1a71                	addi	s4,s4,-4
   1bd28:	1471                	addi	s0,s0,-4
   1bd2a:	bfc9                	j	1bcfc <__DATA_BEGIN__+0xac84>
   1bd2c:	07ca2783          	lw	a5,124(s4)
   1bd30:	ff579ae3          	bne	a5,s5,1bd24 <__DATA_BEGIN__+0xacac>
   1bd34:	40d8                	lw	a4,4(s1)
   1bd36:	405c                	lw	a5,4(s0)
   1bd38:	177d                	addi	a4,a4,-1
   1bd3a:	03271863          	bne	a4,s2,1bd6a <__DATA_BEGIN__+0xacf2>
   1bd3e:	0124a223          	sw	s2,4(s1)
   1bd42:	d3ed                	beqz	a5,1bd24 <__DATA_BEGIN__+0xacac>
   1bd44:	0044ad03          	lw	s10,4(s1)
   1bd48:	00098863          	beqz	s3,1bd58 <__DATA_BEGIN__+0xace0>
   1bd4c:	1009a683          	lw	a3,256(s3)
   1bd50:	012c9733          	sll	a4,s9,s2
   1bd54:	8ef9                	and	a3,a3,a4
   1bd56:	ee89                	bnez	a3,1bd70 <__DATA_BEGIN__+0xacf8>
   1bd58:	9782                	jalr	a5
   1bd5a:	40d8                	lw	a4,4(s1)
   1bd5c:	000c2783          	lw	a5,0(s8)
   1bd60:	f9a710e3          	bne	a4,s10,1bce0 <__DATA_BEGIN__+0xac68>
   1bd64:	fcf480e3          	beq	s1,a5,1bd24 <__DATA_BEGIN__+0xacac>
   1bd68:	bfa5                	j	1bce0 <__DATA_BEGIN__+0xac68>
   1bd6a:	00042223          	sw	zero,4(s0)
   1bd6e:	bfd1                	j	1bd42 <__DATA_BEGIN__+0xacca>
   1bd70:	1049a683          	lw	a3,260(s3)
   1bd74:	ffca2583          	lw	a1,-4(s4)
   1bd78:	8f75                	and	a4,a4,a3
   1bd7a:	e701                	bnez	a4,1bd82 <__DATA_BEGIN__+0xad0a>
   1bd7c:	855a                	mv	a0,s6
   1bd7e:	9782                	jalr	a5
   1bd80:	bfe9                	j	1bd5a <__DATA_BEGIN__+0xace2>
   1bd82:	852e                	mv	a0,a1
   1bd84:	9782                	jalr	a5
   1bd86:	bfd1                	j	1bd5a <__DATA_BEGIN__+0xace2>
   1bd88:	1141                	addi	sp,sp,-16
   1bd8a:	c422                	sw	s0,8(sp)
   1bd8c:	c226                	sw	s1,4(sp)
   1bd8e:	842a                	mv	s0,a0
   1bd90:	852e                	mv	a0,a1
   1bd92:	85b2                	mv	a1,a2
   1bd94:	8636                	mv	a2,a3
   1bd96:	c606                	sw	ra,12(sp)
   1bd98:	8201a023          	sw	zero,-2016(gp) # 1c0c0 <__DATA_BEGIN__+0xb048>
   1bd9c:	ad0ff0ef          	jal	ra,1b06c <__DATA_BEGIN__+0x9ff4>
   1bda0:	57fd                	li	a5,-1
   1bda2:	00f51663          	bne	a0,a5,1bdae <__DATA_BEGIN__+0xad36>
   1bda6:	8201a783          	lw	a5,-2016(gp) # 1c0c0 <__DATA_BEGIN__+0xb048>
   1bdaa:	c391                	beqz	a5,1bdae <__DATA_BEGIN__+0xad36>
   1bdac:	c01c                	sw	a5,0(s0)
   1bdae:	40b2                	lw	ra,12(sp)
   1bdb0:	4422                	lw	s0,8(sp)
   1bdb2:	4492                	lw	s1,4(sp)
   1bdb4:	0141                	addi	sp,sp,16
   1bdb6:	8082                	ret
   1bdb8:	1141                	addi	sp,sp,-16
   1bdba:	c422                	sw	s0,8(sp)
   1bdbc:	c226                	sw	s1,4(sp)
   1bdbe:	842a                	mv	s0,a0
   1bdc0:	852e                	mv	a0,a1
   1bdc2:	85b2                	mv	a1,a2
   1bdc4:	8636                	mv	a2,a3
   1bdc6:	c606                	sw	ra,12(sp)
   1bdc8:	8201a023          	sw	zero,-2016(gp) # 1c0c0 <__DATA_BEGIN__+0xb048>
   1bdcc:	ad0ff0ef          	jal	ra,1b09c <__DATA_BEGIN__+0xa024>
   1bdd0:	57fd                	li	a5,-1
   1bdd2:	00f51663          	bne	a0,a5,1bdde <__DATA_BEGIN__+0xad66>
   1bdd6:	8201a783          	lw	a5,-2016(gp) # 1c0c0 <__DATA_BEGIN__+0xb048>
   1bdda:	c391                	beqz	a5,1bdde <__DATA_BEGIN__+0xad66>
   1bddc:	c01c                	sw	a5,0(s0)
   1bdde:	40b2                	lw	ra,12(sp)
   1bde0:	4422                	lw	s0,8(sp)
   1bde2:	4492                	lw	s1,4(sp)
   1bde4:	0141                	addi	sp,sp,16
   1bde6:	8082                	ret
   1bde8:	8eaa                	mv	t4,a0
   1bdea:	832e                	mv	t1,a1
   1bdec:	8832                	mv	a6,a2
   1bdee:	87b6                	mv	a5,a3
   1bdf0:	1c069263          	bnez	a3,1bfb4 <__DATA_BEGIN__+0xaf3c>
   1bdf4:	2040c737          	lui	a4,0x2040c
   1bdf8:	db070713          	addi	a4,a4,-592 # 2040bdb0 <__BSS_END__+0x203eed10>
   1bdfc:	0ac5f563          	bgeu	a1,a2,1bea6 <__DATA_BEGIN__+0xae2e>
   1be00:	66c1                	lui	a3,0x10
   1be02:	08d67b63          	bgeu	a2,a3,1be98 <__DATA_BEGIN__+0xae20>
   1be06:	0ff00693          	li	a3,255
   1be0a:	00c6f363          	bgeu	a3,a2,1be10 <__DATA_BEGIN__+0xad98>
   1be0e:	47a1                	li	a5,8
   1be10:	00f656b3          	srl	a3,a2,a5
   1be14:	9736                	add	a4,a4,a3
   1be16:	00074703          	lbu	a4,0(a4)
   1be1a:	97ba                	add	a5,a5,a4
   1be1c:	02000713          	li	a4,32
   1be20:	40f708b3          	sub	a7,a4,a5
   1be24:	00f70b63          	beq	a4,a5,1be3a <__DATA_BEGIN__+0xadc2>
   1be28:	011315b3          	sll	a1,t1,a7
   1be2c:	00fed7b3          	srl	a5,t4,a5
   1be30:	01161833          	sll	a6,a2,a7
   1be34:	8ddd                	or	a1,a1,a5
   1be36:	011e9533          	sll	a0,t4,a7
   1be3a:	01085693          	srli	a3,a6,0x10
   1be3e:	02d5f7b3          	remu	a5,a1,a3
   1be42:	01081613          	slli	a2,a6,0x10
   1be46:	8241                	srli	a2,a2,0x10
   1be48:	01055713          	srli	a4,a0,0x10
   1be4c:	02d5d5b3          	divu	a1,a1,a3
   1be50:	07c2                	slli	a5,a5,0x10
   1be52:	8f5d                	or	a4,a4,a5
   1be54:	02b605b3          	mul	a1,a2,a1
   1be58:	00b77863          	bgeu	a4,a1,1be68 <__DATA_BEGIN__+0xadf0>
   1be5c:	9742                	add	a4,a4,a6
   1be5e:	01076563          	bltu	a4,a6,1be68 <__DATA_BEGIN__+0xadf0>
   1be62:	00b77363          	bgeu	a4,a1,1be68 <__DATA_BEGIN__+0xadf0>
   1be66:	9742                	add	a4,a4,a6
   1be68:	8f0d                	sub	a4,a4,a1
   1be6a:	02d777b3          	remu	a5,a4,a3
   1be6e:	0542                	slli	a0,a0,0x10
   1be70:	8141                	srli	a0,a0,0x10
   1be72:	02d75733          	divu	a4,a4,a3
   1be76:	07c2                	slli	a5,a5,0x10
   1be78:	8d5d                	or	a0,a0,a5
   1be7a:	02e60733          	mul	a4,a2,a4
   1be7e:	00e57863          	bgeu	a0,a4,1be8e <__DATA_BEGIN__+0xae16>
   1be82:	9542                	add	a0,a0,a6
   1be84:	01056563          	bltu	a0,a6,1be8e <__DATA_BEGIN__+0xae16>
   1be88:	00e57363          	bgeu	a0,a4,1be8e <__DATA_BEGIN__+0xae16>
   1be8c:	9542                	add	a0,a0,a6
   1be8e:	8d19                	sub	a0,a0,a4
   1be90:	01155533          	srl	a0,a0,a7
   1be94:	4581                	li	a1,0
   1be96:	8082                	ret
   1be98:	010006b7          	lui	a3,0x1000
   1be9c:	47c1                	li	a5,16
   1be9e:	f6d669e3          	bltu	a2,a3,1be10 <__DATA_BEGIN__+0xad98>
   1bea2:	47e1                	li	a5,24
   1bea4:	b7b5                	j	1be10 <__DATA_BEGIN__+0xad98>
   1bea6:	e601                	bnez	a2,1beae <__DATA_BEGIN__+0xae36>
   1bea8:	4685                	li	a3,1
   1beaa:	02c6d833          	divu	a6,a3,a2
   1beae:	66c1                	lui	a3,0x10
   1beb0:	0ed87b63          	bgeu	a6,a3,1bfa6 <__DATA_BEGIN__+0xaf2e>
   1beb4:	0ff00693          	li	a3,255
   1beb8:	0106f363          	bgeu	a3,a6,1bebe <__DATA_BEGIN__+0xae46>
   1bebc:	47a1                	li	a5,8
   1bebe:	00f856b3          	srl	a3,a6,a5
   1bec2:	9736                	add	a4,a4,a3
   1bec4:	00074603          	lbu	a2,0(a4)
   1bec8:	410305b3          	sub	a1,t1,a6
   1becc:	963e                	add	a2,a2,a5
   1bece:	02000793          	li	a5,32
   1bed2:	40c788b3          	sub	a7,a5,a2
   1bed6:	06c78a63          	beq	a5,a2,1bf4a <__DATA_BEGIN__+0xaed2>
   1beda:	01181833          	sll	a6,a6,a7
   1bede:	00c357b3          	srl	a5,t1,a2
   1bee2:	011315b3          	sll	a1,t1,a7
   1bee6:	01085313          	srli	t1,a6,0x10
   1beea:	00ced633          	srl	a2,t4,a2
   1beee:	8e4d                	or	a2,a2,a1
   1bef0:	01081593          	slli	a1,a6,0x10
   1bef4:	81c1                	srli	a1,a1,0x10
   1bef6:	011e9533          	sll	a0,t4,a7
   1befa:	0267d6b3          	divu	a3,a5,t1
   1befe:	0267f733          	remu	a4,a5,t1
   1bf02:	01065793          	srli	a5,a2,0x10
   1bf06:	02d586b3          	mul	a3,a1,a3
   1bf0a:	0742                	slli	a4,a4,0x10
   1bf0c:	8f5d                	or	a4,a4,a5
   1bf0e:	00d77863          	bgeu	a4,a3,1bf1e <__DATA_BEGIN__+0xaea6>
   1bf12:	9742                	add	a4,a4,a6
   1bf14:	01076563          	bltu	a4,a6,1bf1e <__DATA_BEGIN__+0xaea6>
   1bf18:	00d77363          	bgeu	a4,a3,1bf1e <__DATA_BEGIN__+0xaea6>
   1bf1c:	9742                	add	a4,a4,a6
   1bf1e:	40d706b3          	sub	a3,a4,a3
   1bf22:	0266f733          	remu	a4,a3,t1
   1bf26:	0642                	slli	a2,a2,0x10
   1bf28:	8241                	srli	a2,a2,0x10
   1bf2a:	0266d6b3          	divu	a3,a3,t1
   1bf2e:	0742                	slli	a4,a4,0x10
   1bf30:	02d586b3          	mul	a3,a1,a3
   1bf34:	00c765b3          	or	a1,a4,a2
   1bf38:	00d5f863          	bgeu	a1,a3,1bf48 <__DATA_BEGIN__+0xaed0>
   1bf3c:	95c2                	add	a1,a1,a6
   1bf3e:	0105e563          	bltu	a1,a6,1bf48 <__DATA_BEGIN__+0xaed0>
   1bf42:	00d5f363          	bgeu	a1,a3,1bf48 <__DATA_BEGIN__+0xaed0>
   1bf46:	95c2                	add	a1,a1,a6
   1bf48:	8d95                	sub	a1,a1,a3
   1bf4a:	01085693          	srli	a3,a6,0x10
   1bf4e:	02d5f733          	remu	a4,a1,a3
   1bf52:	01081793          	slli	a5,a6,0x10
   1bf56:	83c1                	srli	a5,a5,0x10
   1bf58:	01055613          	srli	a2,a0,0x10
   1bf5c:	02d5d5b3          	divu	a1,a1,a3
   1bf60:	0742                	slli	a4,a4,0x10
   1bf62:	8f51                	or	a4,a4,a2
   1bf64:	02b785b3          	mul	a1,a5,a1
   1bf68:	00b77863          	bgeu	a4,a1,1bf78 <__DATA_BEGIN__+0xaf00>
   1bf6c:	9742                	add	a4,a4,a6
   1bf6e:	01076563          	bltu	a4,a6,1bf78 <__DATA_BEGIN__+0xaf00>
   1bf72:	00b77363          	bgeu	a4,a1,1bf78 <__DATA_BEGIN__+0xaf00>
   1bf76:	9742                	add	a4,a4,a6
   1bf78:	40b705b3          	sub	a1,a4,a1
   1bf7c:	02d5f733          	remu	a4,a1,a3
   1bf80:	0542                	slli	a0,a0,0x10
   1bf82:	8141                	srli	a0,a0,0x10
   1bf84:	02d5d5b3          	divu	a1,a1,a3
   1bf88:	02b785b3          	mul	a1,a5,a1
   1bf8c:	01071793          	slli	a5,a4,0x10
   1bf90:	8d5d                	or	a0,a0,a5
   1bf92:	00b57863          	bgeu	a0,a1,1bfa2 <__DATA_BEGIN__+0xaf2a>
   1bf96:	9542                	add	a0,a0,a6
   1bf98:	01056563          	bltu	a0,a6,1bfa2 <__DATA_BEGIN__+0xaf2a>
   1bf9c:	00b57363          	bgeu	a0,a1,1bfa2 <__DATA_BEGIN__+0xaf2a>
   1bfa0:	9542                	add	a0,a0,a6
   1bfa2:	8d0d                	sub	a0,a0,a1
   1bfa4:	b5f5                	j	1be90 <__DATA_BEGIN__+0xae18>
   1bfa6:	010006b7          	lui	a3,0x1000
   1bfaa:	47c1                	li	a5,16
   1bfac:	f0d869e3          	bltu	a6,a3,1bebe <__DATA_BEGIN__+0xae46>
   1bfb0:	47e1                	li	a5,24
   1bfb2:	b731                	j	1bebe <__DATA_BEGIN__+0xae46>
   1bfb4:	eed5e1e3          	bltu	a1,a3,1be96 <__DATA_BEGIN__+0xae1e>
   1bfb8:	67c1                	lui	a5,0x10
   1bfba:	04f6f463          	bgeu	a3,a5,1c002 <__DATA_BEGIN__+0xaf8a>
   1bfbe:	0ff00893          	li	a7,255
   1bfc2:	00d8b7b3          	sltu	a5,a7,a3
   1bfc6:	078e                	slli	a5,a5,0x3
   1bfc8:	2040c737          	lui	a4,0x2040c
   1bfcc:	00f6d833          	srl	a6,a3,a5
   1bfd0:	db070713          	addi	a4,a4,-592 # 2040bdb0 <__BSS_END__+0x203eed10>
   1bfd4:	9742                	add	a4,a4,a6
   1bfd6:	00074883          	lbu	a7,0(a4)
   1bfda:	98be                	add	a7,a7,a5
   1bfdc:	02000793          	li	a5,32
   1bfe0:	41178833          	sub	a6,a5,a7
   1bfe4:	03179663          	bne	a5,a7,1c010 <__DATA_BEGIN__+0xaf98>
   1bfe8:	0066e463          	bltu	a3,t1,1bff0 <__DATA_BEGIN__+0xaf78>
   1bfec:	eacee5e3          	bltu	t4,a2,1be96 <__DATA_BEGIN__+0xae1e>
   1bff0:	40ce8533          	sub	a0,t4,a2
   1bff4:	40d305b3          	sub	a1,t1,a3
   1bff8:	00aebeb3          	sltu	t4,t4,a0
   1bffc:	41d585b3          	sub	a1,a1,t4
   1c000:	bd59                	j	1be96 <__DATA_BEGIN__+0xae1e>
   1c002:	01000737          	lui	a4,0x1000
   1c006:	47c1                	li	a5,16
   1c008:	fce6e0e3          	bltu	a3,a4,1bfc8 <__DATA_BEGIN__+0xaf50>
   1c00c:	47e1                	li	a5,24
   1c00e:	bf6d                	j	1bfc8 <__DATA_BEGIN__+0xaf50>
   1c010:	011657b3          	srl	a5,a2,a7
   1c014:	010696b3          	sll	a3,a3,a6
   1c018:	00d7ee33          	or	t3,a5,a3
   1c01c:	01135f33          	srl	t5,t1,a7
   1c020:	011ed7b3          	srl	a5,t4,a7
   1c024:	010e9533          	sll	a0,t4,a6
   1c028:	010e5e93          	srli	t4,t3,0x10
   1c02c:	010315b3          	sll	a1,t1,a6
   1c030:	03df5333          	divu	t1,t5,t4
   1c034:	8fcd                	or	a5,a5,a1
   1c036:	010e1593          	slli	a1,t3,0x10
   1c03a:	81c1                	srli	a1,a1,0x10
   1c03c:	0107d713          	srli	a4,a5,0x10
   1c040:	01061633          	sll	a2,a2,a6
   1c044:	03df76b3          	remu	a3,t5,t4
   1c048:	02658f33          	mul	t5,a1,t1
   1c04c:	06c2                	slli	a3,a3,0x10
   1c04e:	8f55                	or	a4,a4,a3
   1c050:	869a                	mv	a3,t1
   1c052:	01e77c63          	bgeu	a4,t5,1c06a <__DATA_BEGIN__+0xaff2>
   1c056:	9772                	add	a4,a4,t3
   1c058:	fff30693          	addi	a3,t1,-1
   1c05c:	01c76763          	bltu	a4,t3,1c06a <__DATA_BEGIN__+0xaff2>
   1c060:	01e77563          	bgeu	a4,t5,1c06a <__DATA_BEGIN__+0xaff2>
   1c064:	ffe30693          	addi	a3,t1,-2
   1c068:	9772                	add	a4,a4,t3
   1c06a:	41e70733          	sub	a4,a4,t5
   1c06e:	03d77333          	remu	t1,a4,t4
   1c072:	07c2                	slli	a5,a5,0x10
   1c074:	83c1                	srli	a5,a5,0x10
   1c076:	03d75733          	divu	a4,a4,t4
   1c07a:	0342                	slli	t1,t1,0x10
   1c07c:	00f36333          	or	t1,t1,a5
   1c080:	02e585b3          	mul	a1,a1,a4
   1c084:	87ba                	mv	a5,a4
   1c086:	00b37c63          	bgeu	t1,a1,1c09e <__DATA_BEGIN__+0xb026>
   1c08a:	9372                	add	t1,t1,t3
   1c08c:	fff70793          	addi	a5,a4,-1 # ffffff <__BSS_END__+0xfe2f5f>
   1c090:	01c36763          	bltu	t1,t3,1c09e <__DATA_BEGIN__+0xb026>
   1c094:	00b37563          	bgeu	t1,a1,1c09e <__DATA_BEGIN__+0xb026>
   1c098:	ffe70793          	addi	a5,a4,-2
   1c09c:	9372                	add	t1,t1,t3
   1c09e:	06c2                	slli	a3,a3,0x10
   1c0a0:	6f41                	lui	t5,0x10
   1c0a2:	8edd                	or	a3,a3,a5
   1c0a4:	40b305b3          	sub	a1,t1,a1
   1c0a8:	ffff0313          	addi	t1,t5,-1 # ffff <_binary_multizone_bin_size+0x3fdb>
   1c0ac:	0066feb3          	and	t4,a3,t1
   1c0b0:	01065713          	srli	a4,a2,0x10
   1c0b4:	82c1                	srli	a3,a3,0x10
   1c0b6:	00667333          	and	t1,a2,t1
   1c0ba:	026e87b3          	mul	a5,t4,t1
   1c0be:	02668333          	mul	t1,a3,t1
   1c0c2:	02ee8eb3          	mul	t4,t4,a4
   1c0c6:	02e686b3          	mul	a3,a3,a4
   1c0ca:	9e9a                	add	t4,t4,t1
   1c0cc:	0107d713          	srli	a4,a5,0x10
   1c0d0:	9776                	add	a4,a4,t4
   1c0d2:	00677363          	bgeu	a4,t1,1c0d8 <__DATA_BEGIN__+0xb060>
   1c0d6:	96fa                	add	a3,a3,t5
   1c0d8:	01075313          	srli	t1,a4,0x10
   1c0dc:	969a                	add	a3,a3,t1
   1c0de:	6341                	lui	t1,0x10
   1c0e0:	137d                	addi	t1,t1,-1
   1c0e2:	00677733          	and	a4,a4,t1
   1c0e6:	0742                	slli	a4,a4,0x10
   1c0e8:	0067f7b3          	and	a5,a5,t1
   1c0ec:	97ba                	add	a5,a5,a4
   1c0ee:	00d5e663          	bltu	a1,a3,1c0fa <__DATA_BEGIN__+0xb082>
   1c0f2:	00d59b63          	bne	a1,a3,1c108 <__DATA_BEGIN__+0xb090>
   1c0f6:	00f57963          	bgeu	a0,a5,1c108 <__DATA_BEGIN__+0xb090>
   1c0fa:	40c78633          	sub	a2,a5,a2
   1c0fe:	00c7b7b3          	sltu	a5,a5,a2
   1c102:	97f2                	add	a5,a5,t3
   1c104:	8e9d                	sub	a3,a3,a5
   1c106:	87b2                	mv	a5,a2
   1c108:	40f507b3          	sub	a5,a0,a5
   1c10c:	00f53533          	sltu	a0,a0,a5
   1c110:	8d95                	sub	a1,a1,a3
   1c112:	8d89                	sub	a1,a1,a0
   1c114:	011598b3          	sll	a7,a1,a7
   1c118:	0107d533          	srl	a0,a5,a6
   1c11c:	00a8e533          	or	a0,a7,a0
   1c120:	0105d5b3          	srl	a1,a1,a6
   1c124:	bb8d                	j	1be96 <__DATA_BEGIN__+0xae1e>
   1c126:	a001                	j	1c126 <__DATA_BEGIN__+0xb0ae>
   1c128:	6e49                	lui	t3,0x12
   1c12a:	75727473          	csrrci	s0,0x757,4
   1c12e:	6f697463          	bgeu	s2,s6,1c816 <__DATA_BEGIN__+0xb79e>
   1c132:	206e                	fld	ft0,216(sp)
   1c134:	6461                	lui	s0,0x18
   1c136:	7264                	ld	s1,224(a2)
   1c138:	7365                	lui	t1,0xffff9
   1c13a:	696d2073          	csrs	0x696,s10
   1c13e:	696c6173          	csrrsi	sp,0x696,24
   1c142:	64656e67          	0x64656e67
   1c146:	3a20                	fld	fs0,112(a2)
   1c148:	3020                	fld	fs0,96(s0)
   1c14a:	2578                	fld	fa4,200(a0)
   1c14c:	3830                	fld	fa2,112(s0)
   1c14e:	2078                	fld	fa4,192(s0)
   1c150:	7830                	ld	a2,112(s0)
   1c152:	3025                	0x3025
   1c154:	7838                	ld	a4,112(s0)
   1c156:	3020                	fld	fs0,96(s0)
   1c158:	2578                	fld	fa4,200(a0)
   1c15a:	3830                	fld	fa2,112(s0)
   1c15c:	2078                	fld	fa4,192(s0)
   1c15e:	000a                	c.slli	zero,0x2
   1c160:	6e49                	lui	t3,0x12
   1c162:	75727473          	csrrci	s0,0x757,4
   1c166:	6f697463          	bgeu	s2,s6,1c84e <__DATA_BEGIN__+0xb7d6>
   1c16a:	206e                	fld	ft0,216(sp)
   1c16c:	6361                	lui	t1,0x18
   1c16e:	73736563          	bltu	t1,s7,1c898 <__DATA_BEGIN__+0xb820>
   1c172:	6620                	ld	s0,72(a2)
   1c174:	7561                	lui	a0,0xffff8
   1c176:	746c                	ld	a1,232(s0)
   1c178:	3a20                	fld	fs0,112(a2)
   1c17a:	3020                	fld	fs0,96(s0)
   1c17c:	2578                	fld	fa4,200(a0)
   1c17e:	3830                	fld	fa2,112(s0)
   1c180:	2078                	fld	fa4,192(s0)
   1c182:	7830                	ld	a2,112(s0)
   1c184:	3025                	0x3025
   1c186:	7838                	ld	a4,112(s0)
   1c188:	3020                	fld	fs0,96(s0)
   1c18a:	2578                	fld	fa4,200(a0)
   1c18c:	3830                	fld	fa2,112(s0)
   1c18e:	2078                	fld	fa4,192(s0)
   1c190:	000a                	c.slli	zero,0x2
   1c192:	0000                	unimp
   1c194:	6c49                	lui	s8,0x12
   1c196:	656c                	ld	a1,200(a0)
   1c198:	206c6167          	0x206c6167
   1c19c:	6e69                	lui	t3,0x1a
   1c19e:	75727473          	csrrci	s0,0x757,4
   1c1a2:	6f697463          	bgeu	s2,s6,1c88a <__DATA_BEGIN__+0xb812>
   1c1a6:	206e                	fld	ft0,216(sp)
   1c1a8:	203a                	fld	ft0,392(sp)
   1c1aa:	7830                	ld	a2,112(s0)
   1c1ac:	3025                	0x3025
   1c1ae:	7838                	ld	a4,112(s0)
   1c1b0:	3020                	fld	fs0,96(s0)
   1c1b2:	2578                	fld	fa4,200(a0)
   1c1b4:	3830                	fld	fa2,112(s0)
   1c1b6:	2078                	fld	fa4,192(s0)
   1c1b8:	7830                	ld	a2,112(s0)
   1c1ba:	3025                	0x3025
   1c1bc:	7838                	ld	a4,112(s0)
   1c1be:	0a20                	addi	s0,sp,280
   1c1c0:	0000                	unimp
   1c1c2:	0000                	unimp
   1c1c4:	7242                	ld	tp,48(sp)
   1c1c6:	6165                	addi	sp,sp,112
   1c1c8:	696f706b          	0x696f706b
   1c1cc:	746e                	ld	s0,248(sp)
   1c1ce:	3a20                	fld	fs0,112(a2)
   1c1d0:	3020                	fld	fs0,96(s0)
   1c1d2:	2578                	fld	fa4,200(a0)
   1c1d4:	3830                	fld	fa2,112(s0)
   1c1d6:	2078                	fld	fa4,192(s0)
   1c1d8:	7830                	ld	a2,112(s0)
   1c1da:	3025                	0x3025
   1c1dc:	7838                	ld	a4,112(s0)
   1c1de:	3020                	fld	fs0,96(s0)
   1c1e0:	2578                	fld	fa4,200(a0)
   1c1e2:	3830                	fld	fa2,112(s0)
   1c1e4:	2078                	fld	fa4,192(s0)
   1c1e6:	000a                	c.slli	zero,0x2
   1c1e8:	6f4c                	ld	a1,152(a4)
   1c1ea:	6461                	lui	s0,0x18
   1c1ec:	6120                	ld	s0,64(a0)
   1c1ee:	6464                	ld	s1,200(s0)
   1c1f0:	6572                	ld	a0,280(sp)
   1c1f2:	6d207373          	csrrci	t1,0x6d2,0
   1c1f6:	7369                	lui	t1,0xffffa
   1c1f8:	6c61                	lui	s8,0x18
   1c1fa:	6769                	lui	a4,0x1a
   1c1fc:	656e                	ld	a0,216(sp)
   1c1fe:	2064                	fld	fs1,192(s0)
   1c200:	203a                	fld	ft0,392(sp)
   1c202:	7830                	ld	a2,112(s0)
   1c204:	3025                	0x3025
   1c206:	7838                	ld	a4,112(s0)
   1c208:	3020                	fld	fs0,96(s0)
   1c20a:	2578                	fld	fa4,200(a0)
   1c20c:	3830                	fld	fa2,112(s0)
   1c20e:	2078                	fld	fa4,192(s0)
   1c210:	7830                	ld	a2,112(s0)
   1c212:	3025                	0x3025
   1c214:	7838                	ld	a4,112(s0)
   1c216:	0a20                	addi	s0,sp,280
   1c218:	0000                	unimp
   1c21a:	0000                	unimp
   1c21c:	6f4c                	ld	a1,152(a4)
   1c21e:	6461                	lui	s0,0x18
   1c220:	6120                	ld	s0,64(a0)
   1c222:	73656363          	bltu	a0,s6,1c948 <__global_pointer$+0xa8>
   1c226:	61662073          	csrs	0x616,a2
   1c22a:	6c75                	lui	s8,0x1d
   1c22c:	2074                	fld	fa3,192(s0)
   1c22e:	203a                	fld	ft0,392(sp)
   1c230:	7830                	ld	a2,112(s0)
   1c232:	3025                	0x3025
   1c234:	7838                	ld	a4,112(s0)
   1c236:	3020                	fld	fs0,96(s0)
   1c238:	2578                	fld	fa4,200(a0)
   1c23a:	3830                	fld	fa2,112(s0)
   1c23c:	2078                	fld	fa4,192(s0)
   1c23e:	7830                	ld	a2,112(s0)
   1c240:	3025                	0x3025
   1c242:	7838                	ld	a4,112(s0)
   1c244:	0a20                	addi	s0,sp,280
   1c246:	0000                	unimp
   1c248:	726f7453          	0x726f7453
   1c24c:	2f65                	addiw	t5,t5,25
   1c24e:	4d41                	li	s10,16
   1c250:	6461204f          	0x6461204f
   1c254:	7264                	ld	s1,224(a2)
   1c256:	7365                	lui	t1,0xffff9
   1c258:	696d2073          	csrs	0x696,s10
   1c25c:	696c7373          	csrrci	t1,0x696,24
   1c260:	64656e67          	0x64656e67
   1c264:	3a20                	fld	fs0,112(a2)
   1c266:	3020                	fld	fs0,96(s0)
   1c268:	2578                	fld	fa4,200(a0)
   1c26a:	3830                	fld	fa2,112(s0)
   1c26c:	2078                	fld	fa4,192(s0)
   1c26e:	7830                	ld	a2,112(s0)
   1c270:	3025                	0x3025
   1c272:	7838                	ld	a4,112(s0)
   1c274:	3020                	fld	fs0,96(s0)
   1c276:	2578                	fld	fa4,200(a0)
   1c278:	3830                	fld	fa2,112(s0)
   1c27a:	2078                	fld	fa4,192(s0)
   1c27c:	000a                	c.slli	zero,0x2
   1c27e:	0000                	unimp
   1c280:	726f7453          	0x726f7453
   1c284:	2065                	0x2065
   1c286:	6361                	lui	t1,0x18
   1c288:	73736563          	bltu	t1,s7,1c9b2 <__global_pointer$+0x112>
   1c28c:	6620                	ld	s0,72(a2)
   1c28e:	7561                	lui	a0,0xffff8
   1c290:	746c                	ld	a1,232(s0)
   1c292:	3a20                	fld	fs0,112(a2)
   1c294:	3020                	fld	fs0,96(s0)
   1c296:	2578                	fld	fa4,200(a0)
   1c298:	3830                	fld	fa2,112(s0)
   1c29a:	2078                	fld	fa4,192(s0)
   1c29c:	7830                	ld	a2,112(s0)
   1c29e:	3025                	0x3025
   1c2a0:	7838                	ld	a4,112(s0)
   1c2a2:	3020                	fld	fs0,96(s0)
   1c2a4:	2578                	fld	fa4,200(a0)
   1c2a6:	3830                	fld	fa2,112(s0)
   1c2a8:	2078                	fld	fa4,192(s0)
   1c2aa:	000a                	c.slli	zero,0x2
   1c2ac:	6e45                	lui	t3,0x11
   1c2ae:	6976                	ld	s2,344(sp)
   1c2b0:	6f72                	ld	t5,280(sp)
   1c2b2:	6d6e                	ld	s10,216(sp)
   1c2b4:	6e65                	lui	t3,0x19
   1c2b6:	2074                	fld	fa3,192(s0)
   1c2b8:	6c6c6163          	bltu	s8,t1,1c97a <__global_pointer$+0xda>
   1c2bc:	6620                	ld	s0,72(a2)
   1c2be:	6f72                	ld	t5,280(sp)
   1c2c0:	206d                	0x206d
   1c2c2:	2d55                	addiw	s10,s10,21
   1c2c4:	6f6d                	lui	t5,0x1b
   1c2c6:	6564                	ld	s1,200(a0)
   1c2c8:	3a20                	fld	fs0,112(a2)
   1c2ca:	3020                	fld	fs0,96(s0)
   1c2cc:	2578                	fld	fa4,200(a0)
   1c2ce:	3830                	fld	fa2,112(s0)
   1c2d0:	2078                	fld	fa4,192(s0)
   1c2d2:	7830                	ld	a2,112(s0)
   1c2d4:	3025                	0x3025
   1c2d6:	7838                	ld	a4,112(s0)
   1c2d8:	3020                	fld	fs0,96(s0)
   1c2da:	2578                	fld	fa4,200(a0)
   1c2dc:	3830                	fld	fa2,112(s0)
   1c2de:	2078                	fld	fa4,192(s0)
   1c2e0:	000a                	c.slli	zero,0x2
   1c2e2:	0000                	unimp
   1c2e4:	6e45                	lui	t3,0x11
   1c2e6:	6976                	ld	s2,344(sp)
   1c2e8:	6f72                	ld	t5,280(sp)
   1c2ea:	6d6e                	ld	s10,216(sp)
   1c2ec:	6e65                	lui	t3,0x19
   1c2ee:	2074                	fld	fa3,192(s0)
   1c2f0:	6c6c6163          	bltu	s8,t1,1c9b2 <__global_pointer$+0x112>
   1c2f4:	6620                	ld	s0,72(a2)
   1c2f6:	6f72                	ld	t5,280(sp)
   1c2f8:	206d                	0x206d
   1c2fa:	6f6d2d53          	0x6f6d2d53
   1c2fe:	6564                	ld	s1,200(a0)
   1c300:	3a20                	fld	fs0,112(a2)
   1c302:	3020                	fld	fs0,96(s0)
   1c304:	2578                	fld	fa4,200(a0)
   1c306:	3830                	fld	fa2,112(s0)
   1c308:	2078                	fld	fa4,192(s0)
   1c30a:	7830                	ld	a2,112(s0)
   1c30c:	3025                	0x3025
   1c30e:	7838                	ld	a4,112(s0)
   1c310:	3020                	fld	fs0,96(s0)
   1c312:	2578                	fld	fa4,200(a0)
   1c314:	3830                	fld	fa2,112(s0)
   1c316:	2078                	fld	fa4,192(s0)
   1c318:	000a                	c.slli	zero,0x2
   1c31a:	0000                	unimp
   1c31c:	6e45                	lui	t3,0x11
   1c31e:	6976                	ld	s2,344(sp)
   1c320:	6f72                	ld	t5,280(sp)
   1c322:	6d6e                	ld	s10,216(sp)
   1c324:	6e65                	lui	t3,0x19
   1c326:	2074                	fld	fa3,192(s0)
   1c328:	6c6c6163          	bltu	s8,t1,1c9ea <__global_pointer$+0x14a>
   1c32c:	6620                	ld	s0,72(a2)
   1c32e:	6f72                	ld	t5,280(sp)
   1c330:	206d                	0x206d
   1c332:	2d4d                	addiw	s10,s10,19
   1c334:	6f6d                	lui	t5,0x1b
   1c336:	6564                	ld	s1,200(a0)
   1c338:	3a20                	fld	fs0,112(a2)
   1c33a:	3020                	fld	fs0,96(s0)
   1c33c:	2578                	fld	fa4,200(a0)
   1c33e:	3830                	fld	fa2,112(s0)
   1c340:	2078                	fld	fa4,192(s0)
   1c342:	7830                	ld	a2,112(s0)
   1c344:	3025                	0x3025
   1c346:	7838                	ld	a4,112(s0)
   1c348:	3020                	fld	fs0,96(s0)
   1c34a:	2578                	fld	fa4,200(a0)
   1c34c:	3830                	fld	fa2,112(s0)
   1c34e:	2078                	fld	fa4,192(s0)
   1c350:	000a                	c.slli	zero,0x2
   1c352:	0000                	unimp
   1c354:	7845                	lui	a6,0xffff1
   1c356:	74706563          	bltu	zero,t2,1caa0 <__global_pointer$+0x200>
   1c35a:	6f69                	lui	t5,0x1a
   1c35c:	206e                	fld	ft0,216(sp)
   1c35e:	203a                	fld	ft0,392(sp)
   1c360:	7830                	ld	a2,112(s0)
   1c362:	3025                	0x3025
   1c364:	7838                	ld	a4,112(s0)
   1c366:	3020                	fld	fs0,96(s0)
   1c368:	2578                	fld	fa4,200(a0)
   1c36a:	3830                	fld	fa2,112(s0)
   1c36c:	2078                	fld	fa4,192(s0)
   1c36e:	7830                	ld	a2,112(s0)
   1c370:	3025                	0x3025
   1c372:	7838                	ld	a4,112(s0)
   1c374:	0a20                	addi	s0,sp,280
   1c376:	0000                	unimp
   1c378:	7250                	ld	a2,160(a2)
   1c37a:	7365                	lui	t1,0xffff9
   1c37c:	6e612073          	csrs	0x6e6,sp
   1c380:	2079                	0x2079
   1c382:	2079656b          	0x2079656b
   1c386:	6f74                	ld	a3,216(a4)
   1c388:	7220                	ld	s0,96(a2)
   1c38a:	7365                	lui	t1,0xffff9
   1c38c:	6174                	ld	a3,192(a0)
   1c38e:	7472                	ld	s0,312(sp)
   1c390:	0a20                	addi	s0,sp,280
   1c392:	0000                	unimp
   1c394:	81bc                	0x81bc
   1c396:	2040                	fld	fs0,128(s0)
   1c398:	8218                	0x8218
   1c39a:	2040                	fld	fs0,128(s0)
   1c39c:	822a                	mv	tp,a0
   1c39e:	2040                	fld	fs0,128(s0)
   1c3a0:	823c                	0x823c
   1c3a2:	2040                	fld	fs0,128(s0)
   1c3a4:	824e                	mv	tp,s3
   1c3a6:	2040                	fld	fs0,128(s0)
   1c3a8:	8274                	0x8274
   1c3aa:	2040                	fld	fs0,128(s0)
   1c3ac:	829e                	mv	t0,t2
   1c3ae:	2040                	fld	fs0,128(s0)
   1c3b0:	82c8                	0x82c8
   1c3b2:	2040                	fld	fs0,128(s0)
   1c3b4:	82f2                	mv	t0,t3
   1c3b6:	2040                	fld	fs0,128(s0)
   1c3b8:	8304                	0x8304
   1c3ba:	2040                	fld	fs0,128(s0)
   1c3bc:	8328                	0x8328
   1c3be:	2040                	fld	fs0,128(s0)
   1c3c0:	8316                	mv	t1,t0
   1c3c2:	2040                	fld	fs0,128(s0)
   1c3c4:	5b1b371b          	0x5b1b371b
   1c3c8:	4b32                	lw	s6,12(sp)
   1c3ca:	0000                	unimp
   1c3cc:	540d                	li	s0,-29
   1c3ce:	6d69                	lui	s10,0x1a
   1c3d0:	7265                	lui	tp,0xffff9
   1c3d2:	6920                	ld	s0,80(a0)
   1c3d4:	746e                	ld	s0,248(sp)
   1c3d6:	7265                	lui	tp,0xffff9
   1c3d8:	7572                	ld	a0,312(sp)
   1c3da:	7470                	ld	a2,232(s0)
   1c3dc:	3a20                	fld	fs0,112(a2)
   1c3de:	3020                	fld	fs0,96(s0)
   1c3e0:	2578                	fld	fa4,200(a0)
   1c3e2:	3830                	fld	fa2,112(s0)
   1c3e4:	2078                	fld	fa4,192(s0)
   1c3e6:	7830                	ld	a2,112(s0)
   1c3e8:	3025                	0x3025
   1c3ea:	7838                	ld	a4,112(s0)
   1c3ec:	3020                	fld	fs0,96(s0)
   1c3ee:	2578                	fld	fa4,200(a0)
   1c3f0:	3830                	fld	fa2,112(s0)
   1c3f2:	2078                	fld	fa4,192(s0)
   1c3f4:	000a                	c.slli	zero,0x2
   1c3f6:	0000                	unimp
   1c3f8:	5a0a                	lw	s4,160(sp)
   1c3fa:	2031                	0x2031
   1c3fc:	203e                	fld	ft0,456(sp)
   1c3fe:	7325                	lui	t1,0xfffe9
   1c400:	0000                	unimp
   1c402:	0000                	unimp
   1c404:	5b1b381b          	0x5b1b381b
   1c408:	4232                	lw	tp,12(sp)
   1c40a:	0000                	unimp
   1c40c:	440d                	li	s0,3
   1c40e:	414d                	li	sp,19
   1c410:	7420                	ld	s0,104(s0)
   1c412:	6172                	ld	sp,280(sp)
   1c414:	736e                	ld	t1,248(sp)
   1c416:	6566                	ld	a0,88(sp)
   1c418:	2072                	fld	ft0,280(sp)
   1c41a:	706d6f63          	bltu	s10,t1,1cb38 <__global_pointer$+0x298>
   1c41e:	656c                	ld	a1,200(a0)
   1c420:	6574                	ld	a3,200(a0)
   1c422:	0a20                	addi	s0,sp,280
   1c424:	0000                	unimp
   1c426:	0000                	unimp
   1c428:	72756f73          	csrrsi	t5,0x727,10
   1c42c:	3a206563          	bltu	zero,sp,1c7d6 <__DATA_BEGIN__+0xb75e>
   1c430:	3020                	fld	fs0,96(s0)
   1c432:	2578                	fld	fa4,200(a0)
   1c434:	3830                	fld	fa2,112(s0)
   1c436:	2078                	fld	fa4,192(s0)
   1c438:	000a                	c.slli	zero,0x2
   1c43a:	0000                	unimp
   1c43c:	6564                	ld	s1,200(a0)
   1c43e:	20207473          	csrrci	s0,hedeleg,0
   1c442:	3a20                	fld	fs0,112(a2)
   1c444:	3020                	fld	fs0,96(s0)
   1c446:	2578                	fld	fa4,200(a0)
   1c448:	3830                	fld	fa2,112(s0)
   1c44a:	2078                	fld	fa4,192(s0)
   1c44c:	000a                	c.slli	zero,0x2
   1c44e:	0000                	unimp
   1c450:	657a6973          	csrrsi	s2,0x657,20
   1c454:	2020                	fld	fs0,64(s0)
   1c456:	3a20                	fld	fs0,112(a2)
   1c458:	3020                	fld	fs0,96(s0)
   1c45a:	2578                	fld	fa4,200(a0)
   1c45c:	3830                	fld	fa2,112(s0)
   1c45e:	2078                	fld	fa4,192(s0)
   1c460:	000a                	c.slli	zero,0x2
   1c462:	0000                	unimp
   1c464:	5b1b381b          	0x5b1b381b
   1c468:	4234                	lw	a3,64(a2)
   1c46a:	0000                	unimp
   1c46c:	0000371b          	0x371b
   1c470:	004b5b1b          	srliw	s6,s6,0x4
   1c474:	0000381b          	0x381b
   1c478:	00435b1b          	srliw	s6,t1,0x4
   1c47c:	00445b1b          	srliw	s6,s0,0x4
   1c480:	4b325b1b          	0x4b325b1b
   1c484:	0000                	unimp
   1c486:	0000                	unimp
   1c488:	5a0d                	li	s4,-29
   1c48a:	2031                	0x2031
   1c48c:	203e                	fld	ft0,456(sp)
   1c48e:	0000                	unimp
   1c490:	69466953          	0x69466953
   1c494:	6576                	ld	a0,344(sp)
   1c496:	202c                	fld	fa1,64(s0)
   1c498:	6e49                	lui	t3,0x12
   1c49a:	00002e63          	0x2e63
   1c49e:	0000                	unimp
   1c4a0:	6e41                	lui	t3,0x10
   1c4a2:	6564                	ld	s1,200(a0)
   1c4a4:	65542073          	csrs	0x655,s0
   1c4a8:	6f6e6863          	bltu	t3,s6,1cb98 <__global_pointer$+0x2f8>
   1c4ac:	6f6c                	ld	a1,216(a4)
   1c4ae:	00007967          	0x7967
   1c4b2:	0000                	unimp
   1c4b4:	6548                	ld	a0,136(a0)
   1c4b6:	2078                	fld	fa4,192(s0)
   1c4b8:	6946                	ld	s2,80(sp)
   1c4ba:	6576                	ld	a0,344(sp)
   1c4bc:	202c                	fld	fa1,64(s0)
   1c4be:	6e49                	lui	t3,0x12
   1c4c0:	00002e63          	0x2e63
   1c4c4:	2d32                	fld	fs10,264(sp)
   1c4c6:	69726553          	0x69726553
   1c4ca:	7365                	lui	t1,0xffff9
   1c4cc:	2820                	fld	fs0,80(s0)
   1c4ce:	3245                	addiw	tp,tp,-15
   1c4d0:	202c                	fld	fa1,64(s0)
   1c4d2:	00293253          	fadd.s	ft4,fs2,ft2,rup
   1c4d6:	0000                	unimp
   1c4d8:	3358                	fld	fa4,160(a4)
   1c4da:	3030                	fld	fa2,96(s0)
   1c4dc:	0000                	unimp
   1c4de:	0000                	unimp
   1c4e0:	2d352f33          	0x2d352f33
   1c4e4:	69726553          	0x69726553
   1c4e8:	7365                	lui	t1,0xffff9
   1c4ea:	2820                	fld	fs0,80(s0)
   1c4ec:	3345                	addiw	t1,t1,-15
   1c4ee:	202c                	fld	fa1,64(s0)
   1c4f0:	202c3553          	0x202c3553
   1c4f4:	3555                	addiw	a0,a0,-11
   1c4f6:	0029                	c.nop	10
   1c4f8:	324e                	fld	ft4,240(sp)
   1c4fa:	0032                	c.slli	zero,0xc
   1c4fc:	614d                	addi	sp,sp,176
   1c4fe:	6e696863          	bltu	s2,t1,1cbee <__global_pointer$+0x34e>
   1c502:	2065                	0x2065
   1c504:	5349                	li	t1,-14
   1c506:	2041                	0x2041
   1c508:	2020                	fld	fs0,64(s0)
   1c50a:	203a                	fld	ft0,392(sp)
   1c50c:	7830                	ld	a2,112(s0)
   1c50e:	3025                	0x3025
   1c510:	7838                	ld	a4,112(s0)
   1c512:	5220                	lw	s0,96(a2)
   1c514:	2556                	fld	fa0,336(sp)
   1c516:	2064                	fld	fs1,192(s0)
   1c518:	7325                	lui	t1,0xfffe9
   1c51a:	0a20                	addi	s0,sp,280
   1c51c:	0000                	unimp
   1c51e:	0000                	unimp
   1c520:	6556                	ld	a0,336(sp)
   1c522:	646e                	ld	s0,216(sp)
   1c524:	2020726f          	jal	tp,23726 <__BSS_END__+0x6686>
   1c528:	2020                	fld	fs0,64(s0)
   1c52a:	2020                	fld	fs0,64(s0)
   1c52c:	2020                	fld	fs0,64(s0)
   1c52e:	203a                	fld	ft0,392(sp)
   1c530:	7830                	ld	a2,112(s0)
   1c532:	3025                	0x3025
   1c534:	7838                	ld	a4,112(s0)
   1c536:	2520                	fld	fs0,72(a0)
   1c538:	000a2073          	csrs	ustatus,s4
   1c53c:	7241                	lui	tp,0xffff0
   1c53e:	74696863          	bltu	s2,t1,1cc8e <__global_pointer$+0x3ee>
   1c542:	6365                	lui	t1,0x19
   1c544:	7574                	ld	a3,232(a0)
   1c546:	6572                	ld	a0,280(sp)
   1c548:	2020                	fld	fs0,64(s0)
   1c54a:	203a                	fld	ft0,392(sp)
   1c54c:	7830                	ld	a2,112(s0)
   1c54e:	3025                	0x3025
   1c550:	7838                	ld	a4,112(s0)
   1c552:	2520                	fld	fs0,72(a0)
   1c554:	000a2073          	csrs	ustatus,s4
   1c558:	6d49                	lui	s10,0x12
   1c55a:	6c70                	ld	a2,216(s0)
   1c55c:	6d65                	lui	s10,0x19
   1c55e:	6e65                	lui	t3,0x19
   1c560:	6174                	ld	a3,192(a0)
   1c562:	6974                	ld	a3,208(a0)
   1c564:	203a6e6f          	jal	t3,c2f66 <__BSS_END__+0xa5ec6>
   1c568:	7830                	ld	a2,112(s0)
   1c56a:	3025                	0x3025
   1c56c:	7838                	ld	a4,112(s0)
   1c56e:	0a20                	addi	s0,sp,280
   1c570:	0000                	unimp
   1c572:	0000                	unimp
   1c574:	6148                	ld	a0,128(a0)
   1c576:	7472                	ld	s0,312(sp)
   1c578:	6920                	ld	s0,80(a0)
   1c57a:	2064                	fld	fs1,192(s0)
   1c57c:	2020                	fld	fs0,64(s0)
   1c57e:	2020                	fld	fs0,64(s0)
   1c580:	2020                	fld	fs0,64(s0)
   1c582:	203a                	fld	ft0,392(sp)
   1c584:	7830                	ld	a2,112(s0)
   1c586:	3125                	addiw	sp,sp,-23
   1c588:	2078                	fld	fa4,192(s0)
   1c58a:	000a                	c.slli	zero,0x2
   1c58c:	20555043          	fmadd.s	ft0,fa0,ft5,ft4,unknown
   1c590:	636f6c63          	bltu	t5,s6,1cbc8 <__global_pointer$+0x328>
   1c594:	2020206b          	0x2020206b
   1c598:	2020                	fld	fs0,64(s0)
   1c59a:	203a                	fld	ft0,392(sp)
   1c59c:	6425                	lui	s0,0x9
   1c59e:	4d20                	lw	s0,88(a0)
   1c5a0:	7a48                	ld	a0,176(a2)
   1c5a2:	0a20                	addi	s0,sp,280
   1c5a4:	0000                	unimp
   1c5a6:	0000                	unimp
   1c5a8:	5452                	lw	s0,52(sp)
   1c5aa:	6c632043          	0x6c632043
   1c5ae:	206b636f          	jal	t1,d27b4 <__BSS_END__+0xb5714>
   1c5b2:	2020                	fld	fs0,64(s0)
   1c5b4:	2020                	fld	fs0,64(s0)
   1c5b6:	203a                	fld	ft0,392(sp)
   1c5b8:	6425                	lui	s0,0x9
   1c5ba:	4b20                	lw	s0,80(a4)
   1c5bc:	7a48                	ld	a0,176(a2)
   1c5be:	0a20                	addi	s0,sp,280
   1c5c0:	0000                	unimp
   1c5c2:	0000                	unimp
   1c5c4:	4c50                	lw	a2,28(s0)
   1c5c6:	4349                	li	t1,18
   1c5c8:	4020                	lw	s0,64(s0)
   1c5ca:	7830                	ld	a2,112(s0)
   1c5cc:	3025                	0x3025
   1c5ce:	7838                	ld	a4,112(s0)
   1c5d0:	0a20                	addi	s0,sp,280
   1c5d2:	0000                	unimp
   1c5d4:	4d44                	lw	s1,28(a0)
   1c5d6:	4341                	li	t1,16
   1c5d8:	4020                	lw	s0,64(s0)
   1c5da:	7830                	ld	a2,112(s0)
   1c5dc:	3025                	0x3025
   1c5de:	7838                	ld	a4,112(s0)
   1c5e0:	0a20                	addi	s0,sp,280
   1c5e2:	0000                	unimp
   1c5e4:	4155                	li	sp,21
   1c5e6:	5452                	lw	s0,52(sp)
   1c5e8:	4020                	lw	s0,64(s0)
   1c5ea:	7830                	ld	a2,112(s0)
   1c5ec:	3025                	0x3025
   1c5ee:	7838                	ld	a4,112(s0)
   1c5f0:	0a20                	addi	s0,sp,280
   1c5f2:	0000                	unimp
   1c5f4:	4f495047          	fmsub.q	ft0,fs2,fs4,fs1,unknown
   1c5f8:	4020                	lw	s0,64(s0)
   1c5fa:	7830                	ld	a2,112(s0)
   1c5fc:	3025                	0x3025
   1c5fe:	7838                	ld	a4,112(s0)
   1c600:	0a20                	addi	s0,sp,280
   1c602:	0000                	unimp
   1c604:	6425                	lui	s0,0x9
   1c606:	0000                	unimp
   1c608:	2a25                	addiw	s4,s4,9
   1c60a:	2064                	fld	fs1,192(s0)
   1c60c:	6e69                	lui	t3,0x1a
   1c60e:	20727473          	csrrci	s0,0x207,4
   1c612:	2a25                	addiw	s4,s4,9
   1c614:	2064                	fld	fs1,192(s0)
   1c616:	6c637963          	bgeu	t1,t1,1cce8 <__global_pointer$+0x448>
   1c61a:	7365                	lui	t1,0xffff9
   1c61c:	2520                	fld	fs0,72(a0)
   1c61e:	642a                	ld	s0,136(sp)
   1c620:	7520                	ld	s0,104(a0)
   1c622:	000a2073          	csrs	ustatus,s4
   1c626:	0000                	unimp
   1c628:	2d2d                	addiw	s10,s10,11
   1c62a:	2d2d                	addiw	s10,s10,11
   1c62c:	2d2d                	addiw	s10,s10,11
   1c62e:	2d2d                	addiw	s10,s10,11
   1c630:	2d2d                	addiw	s10,s10,11
   1c632:	2d2d                	addiw	s10,s10,11
   1c634:	2d2d                	addiw	s10,s10,11
   1c636:	2d2d                	addiw	s10,s10,11
   1c638:	2d2d                	addiw	s10,s10,11
   1c63a:	2d2d                	addiw	s10,s10,11
   1c63c:	2d2d                	addiw	s10,s10,11
   1c63e:	2d2d                	addiw	s10,s10,11
   1c640:	2d2d                	addiw	s10,s10,11
   1c642:	2d2d                	addiw	s10,s10,11
   1c644:	2d2d                	addiw	s10,s10,11
   1c646:	2d2d                	addiw	s10,s10,11
   1c648:	2d2d                	addiw	s10,s10,11
   1c64a:	2d2d                	addiw	s10,s10,11
   1c64c:	2d2d                	addiw	s10,s10,11
   1c64e:	2d2d                	addiw	s10,s10,11
   1c650:	0a2d                	addi	s4,s4,11
   1c652:	0000                	unimp
   1c654:	6e69                	lui	t3,0x1a
   1c656:	73727473          	csrrci	s0,0x737,4
   1c65a:	6d20                	ld	s0,88(a0)
   1c65c:	6e69                	lui	t3,0x1a
   1c65e:	64656d2f          	0x64656d2f
   1c662:	78616d2f          	0x78616d2f
   1c666:	3d20                	fld	fs0,120(a0)
   1c668:	2520                	fld	fs0,72(a0)
   1c66a:	2f64                	fld	fs1,216(a4)
   1c66c:	6425                	lui	s0,0x9
   1c66e:	2064252f          	amoxor.w	a0,t1,(s0)
   1c672:	000a                	c.slli	zero,0x2
   1c674:	6c637963          	bgeu	t1,t1,1cd46 <__global_pointer$+0x4a6>
   1c678:	7365                	lui	t1,0xffff9
   1c67a:	6d20                	ld	s0,88(a0)
   1c67c:	6e69                	lui	t3,0x1a
   1c67e:	64656d2f          	0x64656d2f
   1c682:	78616d2f          	0x78616d2f
   1c686:	3d20                	fld	fs0,120(a0)
   1c688:	2520                	fld	fs0,72(a0)
   1c68a:	2f64                	fld	fs1,216(a4)
   1c68c:	6425                	lui	s0,0x9
   1c68e:	2064252f          	amoxor.w	a0,t1,(s0)
   1c692:	000a                	c.slli	zero,0x2
   1c694:	6974                	ld	a3,208(a0)
   1c696:	656d                	lui	a0,0x1b
   1c698:	2020                	fld	fs0,64(s0)
   1c69a:	6d20                	ld	s0,88(a0)
   1c69c:	6e69                	lui	t3,0x1a
   1c69e:	64656d2f          	0x64656d2f
   1c6a2:	78616d2f          	0x78616d2f
   1c6a6:	3d20                	fld	fs0,120(a0)
   1c6a8:	2520                	fld	fs0,72(a0)
   1c6aa:	2f64                	fld	fs1,216(a4)
   1c6ac:	6425                	lui	s0,0x9
   1c6ae:	2064252f          	amoxor.w	a0,t1,(s0)
   1c6b2:	7375                	lui	t1,0xffffd
   1c6b4:	0a20                	addi	s0,sp,280
   1c6b6:	0000                	unimp
   1c6b8:	6e72654b          	fnmsub.q	fa0,ft4,ft7,fa3,unknown
   1c6bc:	6c65                	lui	s8,0x19
   1c6be:	7420                	ld	s0,104(s0)
   1c6c0:	6d69                	lui	s10,0x1a
   1c6c2:	0a65                	addi	s4,s4,25
   1c6c4:	0000                	unimp
   1c6c6:	0000                	unimp
   1c6c8:	6e69                	lui	t3,0x1a
   1c6ca:	73727473          	csrrci	s0,0x737,4
   1c6ce:	6d20                	ld	s0,88(a0)
   1c6d0:	6e69                	lui	t3,0x1a
   1c6d2:	78616d2f          	0x78616d2f
   1c6d6:	3d20                	fld	fs0,120(a0)
   1c6d8:	2520                	fld	fs0,72(a0)
   1c6da:	756c                	ld	a1,232(a0)
   1c6dc:	756c252f          	0x756c252f
   1c6e0:	0a20                	addi	s0,sp,280
   1c6e2:	0000                	unimp
   1c6e4:	6c637963          	bgeu	t1,t1,1cdb6 <__global_pointer$+0x516>
   1c6e8:	7365                	lui	t1,0xffff9
   1c6ea:	6d20                	ld	s0,88(a0)
   1c6ec:	6e69                	lui	t3,0x1a
   1c6ee:	78616d2f          	0x78616d2f
   1c6f2:	3d20                	fld	fs0,120(a0)
   1c6f4:	2520                	fld	fs0,72(a0)
   1c6f6:	756c                	ld	a1,232(a0)
   1c6f8:	756c252f          	0x756c252f
   1c6fc:	0a20                	addi	s0,sp,280
   1c6fe:	0000                	unimp
   1c700:	6974                	ld	a3,208(a0)
   1c702:	656d                	lui	a0,0x1b
   1c704:	2020                	fld	fs0,64(s0)
   1c706:	6d20                	ld	s0,88(a0)
   1c708:	6e69                	lui	t3,0x1a
   1c70a:	78616d2f          	0x78616d2f
   1c70e:	3d20                	fld	fs0,120(a0)
   1c710:	2520                	fld	fs0,72(a0)
   1c712:	756c                	ld	a1,232(a0)
   1c714:	756c252f          	0x756c252f
   1c718:	7520                	ld	s0,104(a0)
   1c71a:	00000a73          	0xa73
   1c71e:	0000                	unimp
   1c720:	5249                	li	tp,-14
   1c722:	2051                	0x2051
   1c724:	616c                	ld	a1,192(a0)
   1c726:	6574                	ld	a3,200(a0)
   1c728:	636e                	ld	t1,216(sp)
   1c72a:	0a79                	addi	s4,s4,30
   1c72c:	0000                	unimp
   1c72e:	0000                	unimp
   1c730:	6e69                	lui	t3,0x1a
   1c732:	73727473          	csrrci	s0,0x737,4
   1c736:	6d20                	ld	s0,88(a0)
   1c738:	6e69                	lui	t3,0x1a
   1c73a:	78616d2f          	0x78616d2f
   1c73e:	3d20                	fld	fs0,120(a0)
   1c740:	2520                	fld	fs0,72(a0)
   1c742:	2f64                	fld	fs1,216(a4)
   1c744:	6425                	lui	s0,0x9
   1c746:	0a20                	addi	s0,sp,280
   1c748:	0000                	unimp
   1c74a:	0000                	unimp
   1c74c:	6c637963          	bgeu	t1,t1,1ce1e <__global_pointer$+0x57e>
   1c750:	7365                	lui	t1,0xffff9
   1c752:	6d20                	ld	s0,88(a0)
   1c754:	6e69                	lui	t3,0x1a
   1c756:	78616d2f          	0x78616d2f
   1c75a:	3d20                	fld	fs0,120(a0)
   1c75c:	2520                	fld	fs0,72(a0)
   1c75e:	2f64                	fld	fs1,216(a4)
   1c760:	6425                	lui	s0,0x9
   1c762:	0a20                	addi	s0,sp,280
   1c764:	0000                	unimp
   1c766:	0000                	unimp
   1c768:	6974                	ld	a3,208(a0)
   1c76a:	656d                	lui	a0,0x1b
   1c76c:	2020                	fld	fs0,64(s0)
   1c76e:	6d20                	ld	s0,88(a0)
   1c770:	6e69                	lui	t3,0x1a
   1c772:	78616d2f          	0x78616d2f
   1c776:	3d20                	fld	fs0,120(a0)
   1c778:	2520                	fld	fs0,72(a0)
   1c77a:	2f64                	fld	fs1,216(a4)
   1c77c:	6425                	lui	s0,0x9
   1c77e:	7520                	ld	s0,104(a0)
   1c780:	00000a73          	0xa73
   1c784:	7830                	ld	a2,112(s0)
   1c786:	3025                	0x3025
   1c788:	7838                	ld	a4,112(s0)
   1c78a:	3020                	fld	fs0,96(s0)
   1c78c:	2578                	fld	fa4,200(a0)
   1c78e:	3830                	fld	fa2,112(s0)
   1c790:	2078                	fld	fa4,192(s0)
   1c792:	7325                	lui	t1,0xfffe9
   1c794:	2520                	fld	fs0,72(a0)
   1c796:	000a2073          	csrs	ustatus,s4
   1c79a:	0000                	unimp
   1c79c:	6970                	ld	a2,208(a0)
   1c79e:	676e                	ld	a4,216(sp)
   1c7a0:	0000                	unimp
   1c7a2:	0000                	unimp
   1c7a4:	5a0d                	li	s4,-29
   1c7a6:	6425                	lui	s0,0x9
   1c7a8:	3e20                	fld	fs0,120(a2)
   1c7aa:	2520                	fld	fs0,72(a0)
   1c7ac:	312e                	fld	ft2,232(sp)
   1c7ae:	7336                	ld	t1,360(sp)
   1c7b0:	000a                	c.slli	zero,0x2
   1c7b2:	0000                	unimp
   1c7b4:	5a0a                	lw	s4,160(sp)
   1c7b6:	2031                	0x2031
   1c7b8:	203e                	fld	ft0,456(sp)
   1c7ba:	0000                	unimp
   1c7bc:	6979                	lui	s2,0x1e
   1c7be:	6c65                	lui	s8,0x19
   1c7c0:	2064                	fld	fs1,192(s0)
   1c7c2:	203a                	fld	ft0,392(sp)
   1c7c4:	2f6e                	fld	ft10,216(sp)
   1c7c6:	2061                	0x2061
   1c7c8:	000a                	c.slli	zero,0x2
   1c7ca:	0000                	unimp
   1c7cc:	6979                	lui	s2,0x1e
   1c7ce:	6c65                	lui	s8,0x19
   1c7d0:	2064                	fld	fs1,192(s0)
   1c7d2:	203a                	fld	ft0,392(sp)
   1c7d4:	6c65                	lui	s8,0x19
   1c7d6:	7061                	c.lui	zero,0xffff8
   1c7d8:	20646573          	csrrsi	a0,0x206,8
   1c7dc:	6c637963          	bgeu	t1,t1,1ceae <__global_pointer$+0x60e>
   1c7e0:	7365                	lui	t1,0xffff9
   1c7e2:	2520                	fld	fs0,72(a0)
   1c7e4:	2064                	fld	fs1,192(s0)
   1c7e6:	6974202f          	0x6974202f
   1c7ea:	656d                	lui	a0,0x1b
   1c7ec:	2520                	fld	fs0,72(a0)
   1c7ee:	7564                	ld	s1,232(a0)
   1c7f0:	000a2073          	csrs	ustatus,s4
   1c7f4:	0020                	addi	s0,sp,8
   1c7f6:	0000                	unimp
   1c7f8:	6568                	ld	a0,200(a0)
   1c7fa:	706c                	ld	a1,224(s0)
   1c7fc:	0000                	unimp
   1c7fe:	0000                	unimp
   1c800:	6f6c                	ld	a1,216(a4)
   1c802:	6461                	lui	s0,0x18
   1c804:	0000                	unimp
   1c806:	0000                	unimp
   1c808:	7830                	ld	a2,112(s0)
   1c80a:	3025                	0x3025
   1c80c:	7838                	ld	a4,112(s0)
   1c80e:	3a20                	fld	fs0,112(a2)
   1c810:	3020                	fld	fs0,96(s0)
   1c812:	2578                	fld	fa4,200(a0)
   1c814:	3230                	fld	fa2,96(a2)
   1c816:	2078                	fld	fa4,192(s0)
   1c818:	000a                	c.slli	zero,0x2
   1c81a:	0000                	unimp
   1c81c:	746e7953          	0x746e7953
   1c820:	7861                	lui	a6,0xffff8
   1c822:	203a                	fld	ft0,392(sp)
   1c824:	6f6c                	ld	a1,216(a4)
   1c826:	6461                	lui	s0,0x18
   1c828:	6120                	ld	s0,64(a0)
   1c82a:	6464                	ld	s1,200(s0)
   1c82c:	6572                	ld	a0,280(sp)
   1c82e:	0a207373          	csrrci	t1,0xa2,0
   1c832:	0000                	unimp
   1c834:	726f7473          	csrrci	s0,0x726,30
   1c838:	0065                	c.nop	25
   1c83a:	0000                	unimp
   1c83c:	746e7953          	0x746e7953
   1c840:	7861                	lui	a6,0xffff8
   1c842:	203a                	fld	ft0,392(sp)
   1c844:	726f7473          	csrrci	s0,0x726,30
   1c848:	2065                	0x2065
   1c84a:	6461                	lui	s0,0x18
   1c84c:	7264                	ld	s1,224(a2)
   1c84e:	7365                	lui	t1,0xffff9
   1c850:	61642073          	csrs	0x616,s0
   1c854:	6174                	ld	a3,192(a0)
   1c856:	0a20                	addi	s0,sp,280
   1c858:	0000                	unimp
   1c85a:	0000                	unimp
   1c85c:	7865                	lui	a6,0xffff9
   1c85e:	6365                	lui	t1,0x19
   1c860:	0000                	unimp
   1c862:	0000                	unimp
   1c864:	746e7953          	0x746e7953
   1c868:	7861                	lui	a6,0xffff8
   1c86a:	203a                	fld	ft0,392(sp)
   1c86c:	7865                	lui	a6,0xffff9
   1c86e:	6365                	lui	t1,0x19
   1c870:	6120                	ld	s0,64(a0)
   1c872:	6464                	ld	s1,200(s0)
   1c874:	6572                	ld	a0,280(sp)
   1c876:	0a207373          	csrrci	t1,0xa2,0
   1c87a:	0000                	unimp
   1c87c:	6d64                	ld	s1,216(a0)
   1c87e:	0061                	c.nop	24
   1c880:	746e7953          	0x746e7953
   1c884:	7861                	lui	a6,0xffff8
   1c886:	203a                	fld	ft0,392(sp)
   1c888:	6d64                	ld	s1,216(a0)
   1c88a:	2061                	0x2061
   1c88c:	72756f73          	csrrsi	t5,0x727,10
   1c890:	64206563          	bltu	zero,sp,1ceda <__global_pointer$+0x63a>
   1c894:	7365                	lui	t1,0xffff9
   1c896:	2074                	fld	fa3,192(s0)
   1c898:	657a6973          	csrrsi	s2,0x657,20
   1c89c:	0a20                	addi	s0,sp,280
   1c89e:	0000                	unimp
   1c8a0:	646e6573          	csrrsi	a0,0x646,28
   1c8a4:	0000                	unimp
   1c8a6:	0000                	unimp
   1c8a8:	7245                	lui	tp,0xffff1
   1c8aa:	6f72                	ld	t5,280(sp)
   1c8ac:	3a72                	fld	fs4,312(sp)
   1c8ae:	4920                	lw	s0,80(a0)
   1c8b0:	626e                	ld	tp,216(sp)
   1c8b2:	6620786f          	jal	a6,23f14 <__BSS_END__+0x6e74>
   1c8b6:	6c75                	lui	s8,0x1d
   1c8b8:	2e6c                	fld	fa1,216(a2)
   1c8ba:	000a                	c.slli	zero,0x2
   1c8bc:	746e7953          	0x746e7953
   1c8c0:	7861                	lui	a6,0xffff8
   1c8c2:	203a                	fld	ft0,392(sp)
   1c8c4:	646e6573          	csrrsi	a0,0x646,28
   1c8c8:	7b20                	ld	s0,112(a4)
   1c8ca:	7c31                	lui	s8,0xfffec
   1c8cc:	7c32                	ld	s8,296(sp)
   1c8ce:	7d347c33          	0x7d347c33
   1c8d2:	6d20                	ld	s0,88(a0)
   1c8d4:	7365                	lui	t1,0xffff9
   1c8d6:	65676173          	csrrsi	sp,0x656,14
   1c8da:	0a20                	addi	s0,sp,280
   1c8dc:	0000                	unimp
   1c8de:	0000                	unimp
   1c8e0:	6572                	ld	a0,280(sp)
   1c8e2:	00007663          	bgeu	zero,zero,1c8ee <__global_pointer$+0x4e>
   1c8e6:	0000                	unimp
   1c8e8:	736d                	lui	t1,0xffffb
   1c8ea:	203a2067          	0x203a2067
   1c8ee:	2e25                	addiw	t3,t3,9
   1c8f0:	3631                	addiw	a2,a2,-20
   1c8f2:	00000a73          	0xa73
   1c8f6:	0000                	unimp
   1c8f8:	7245                	lui	tp,0xffff1
   1c8fa:	6f72                	ld	t5,280(sp)
   1c8fc:	3a72                	fld	fs4,312(sp)
   1c8fe:	4920                	lw	s0,80(a0)
   1c900:	626e                	ld	tp,216(sp)
   1c902:	6520786f          	jal	a6,23f54 <__BSS_END__+0x6eb4>
   1c906:	706d                	c.lui	zero,0xffffb
   1c908:	7974                	ld	a3,240(a0)
   1c90a:	0a2e                	slli	s4,s4,0xb
   1c90c:	0000                	unimp
   1c90e:	0000                	unimp
   1c910:	746e7953          	0x746e7953
   1c914:	7861                	lui	a6,0xffff8
   1c916:	203a                	fld	ft0,392(sp)
   1c918:	6572                	ld	a0,280(sp)
   1c91a:	7b207663          	bgeu	zero,s2,1d0c6 <__BSS_END__+0x26>
   1c91e:	7c31                	lui	s8,0xfffec
   1c920:	7c32                	ld	s8,296(sp)
   1c922:	7d347c33          	0x7d347c33
   1c926:	0a20                	addi	s0,sp,280
   1c928:	0000                	unimp
   1c92a:	0000                	unimp
   1c92c:	6979                	lui	s2,0x1e
   1c92e:	6c65                	lui	s8,0x19
   1c930:	0064                	addi	s1,sp,12
   1c932:	0000                	unimp
   1c934:	6974                	ld	a3,208(a0)
   1c936:	656d                	lui	a0,0x1b
   1c938:	0072                	c.slli	zero,0x1c
   1c93a:	0000                	unimp
   1c93c:	6974                	ld	a3,208(a0)
   1c93e:	656d                	lui	a0,0x1b
   1c940:	2072                	fld	ft0,280(sp)
   1c942:	20746573          	csrrsi	a0,0x207,8
   1c946:	3054                	fld	fa3,160(s0)
   1c948:	253d                	addiw	a0,a0,15
   1c94a:	756c                	ld	a1,232(a0)
   1c94c:	202c                	fld	fa1,64(s0)
   1c94e:	3154                	fld	fa3,160(a0)
   1c950:	253d                	addiw	a0,a0,15
   1c952:	756c                	ld	a1,232(a0)
   1c954:	0a20                	addi	s0,sp,280
   1c956:	0000                	unimp
   1c958:	746e7953          	0x746e7953
   1c95c:	7861                	lui	a6,0xffff8
   1c95e:	203a                	fld	ft0,392(sp)
   1c960:	6974                	ld	a3,208(a0)
   1c962:	656d                	lui	a0,0x1b
   1c964:	2072                	fld	ft0,280(sp)
   1c966:	736d                	lui	t1,0xffffb
   1c968:	0a20                	addi	s0,sp,280
   1c96a:	0000                	unimp
   1c96c:	74617473          	csrrci	s0,0x746,2
   1c970:	00000073          	ecall
   1c974:	6572                	ld	a0,280(sp)
   1c976:	72617473          	csrrci	s0,0x726,2
   1c97a:	0074                	addi	a3,sp,12
   1c97c:	6d70                	ld	a2,216(a0)
   1c97e:	0070                	addi	a2,sp,12
   1c980:	6365                	lui	t1,0x19
   1c982:	6c61                	lui	s8,0x18
   1c984:	006c                	addi	a1,sp,12
   1c986:	0000                	unimp
   1c988:	72727363          	bgeu	tp,t2,1d0ae <__BSS_END__+0xe>
   1c98c:	0000                	unimp
   1c98e:	0000                	unimp
   1c990:	7830                	ld	a2,112(s0)
   1c992:	3025                	0x3025
   1c994:	7838                	ld	a4,112(s0)
   1c996:	2820                	fld	fs0,80(s0)
   1c998:	6425                	lui	s0,0x9
   1c99a:	6320                	ld	s0,64(a4)
   1c99c:	6379                	lui	t1,0x1e
   1c99e:	656c                	ld	a1,200(a0)
   1c9a0:	0a202973          	csrr	s2,0xa2
   1c9a4:	0000                	unimp
   1c9a6:	0000                	unimp
   1c9a8:	6d6d6f43          	0x6d6d6f43
   1c9ac:	6e61                	lui	t3,0x18
   1c9ae:	7364                	ld	s1,224(a4)
   1c9b0:	203a                	fld	ft0,392(sp)
   1c9b2:	6979                	lui	s2,0x1e
   1c9b4:	6c65                	lui	s8,0x19
   1c9b6:	2064                	fld	fs1,192(s0)
   1c9b8:	646e6573          	csrrsi	a0,0x646,28
   1c9bc:	7220                	ld	s0,96(a2)
   1c9be:	6365                	lui	t1,0x19
   1c9c0:	2076                	fld	ft0,344(sp)
   1c9c2:	6d70                	ld	a2,216(a0)
   1c9c4:	2070                	fld	fa2,192(s0)
   1c9c6:	6f6c                	ld	a1,216(a4)
   1c9c8:	6461                	lui	s0,0x18
   1c9ca:	7320                	ld	s0,96(a4)
   1c9cc:	6f74                	ld	a3,216(a4)
   1c9ce:	6572                	ld	a0,280(sp)
   1c9d0:	6520                	ld	s0,72(a0)
   1c9d2:	6578                	ld	a4,200(a0)
   1c9d4:	74732063          	0x74732063
   1c9d8:	7461                	lui	s0,0xffff8
   1c9da:	69742073          	csrs	0x697,s0
   1c9de:	656d                	lui	a0,0x1b
   1c9e0:	2072                	fld	ft0,280(sp)
   1c9e2:	6572                	ld	a0,280(sp)
   1c9e4:	72617473          	csrrci	s0,0x726,2
   1c9e8:	2074                	fld	fa3,192(s0)
   1c9ea:	0000                	unimp
   1c9ec:	6d64                	ld	s1,216(a0)
   1c9ee:	2061                	0x2061
   1c9f0:	0000                	unimp
   1c9f2:	0000                	unimp
   1c9f4:	4155                	li	sp,21
   1c9f6:	5452                	lw	s0,52(sp)
   1c9f8:	0000                	unimp
   1c9fa:	0000                	unimp
   1c9fc:	4a325b1b          	0x4a325b1b
   1ca00:	00485b1b          	srliw	s6,a6,0x4
   1ca04:	3d3d                	addiw	s10,s10,-17
   1ca06:	3d3d                	addiw	s10,s10,-17
   1ca08:	3d3d                	addiw	s10,s10,-17
   1ca0a:	3d3d                	addiw	s10,s10,-17
   1ca0c:	3d3d                	addiw	s10,s10,-17
   1ca0e:	3d3d                	addiw	s10,s10,-17
   1ca10:	3d3d                	addiw	s10,s10,-17
   1ca12:	3d3d                	addiw	s10,s10,-17
   1ca14:	3d3d                	addiw	s10,s10,-17
   1ca16:	3d3d                	addiw	s10,s10,-17
   1ca18:	3d3d                	addiw	s10,s10,-17
   1ca1a:	3d3d                	addiw	s10,s10,-17
   1ca1c:	3d3d                	addiw	s10,s10,-17
   1ca1e:	3d3d                	addiw	s10,s10,-17
   1ca20:	3d3d                	addiw	s10,s10,-17
   1ca22:	3d3d                	addiw	s10,s10,-17
   1ca24:	3d3d                	addiw	s10,s10,-17
   1ca26:	3d3d                	addiw	s10,s10,-17
   1ca28:	3d3d                	addiw	s10,s10,-17
   1ca2a:	3d3d                	addiw	s10,s10,-17
   1ca2c:	3d3d                	addiw	s10,s10,-17
   1ca2e:	3d3d                	addiw	s10,s10,-17
   1ca30:	3d3d                	addiw	s10,s10,-17
   1ca32:	3d3d                	addiw	s10,s10,-17
   1ca34:	3d3d                	addiw	s10,s10,-17
   1ca36:	3d3d                	addiw	s10,s10,-17
   1ca38:	3d3d                	addiw	s10,s10,-17
   1ca3a:	3d3d                	addiw	s10,s10,-17
   1ca3c:	3d3d                	addiw	s10,s10,-17
   1ca3e:	3d3d                	addiw	s10,s10,-17
   1ca40:	3d3d                	addiw	s10,s10,-17
   1ca42:	3d3d                	addiw	s10,s10,-17
   1ca44:	3d3d                	addiw	s10,s10,-17
   1ca46:	3d3d                	addiw	s10,s10,-17
   1ca48:	000a                	c.slli	zero,0x2
   1ca4a:	0000                	unimp
   1ca4c:	2020                	fld	fs0,64(s0)
   1ca4e:	2020                	fld	fs0,64(s0)
   1ca50:	2020                	fld	fs0,64(s0)
   1ca52:	2020                	fld	fs0,64(s0)
   1ca54:	2020                	fld	fs0,64(s0)
   1ca56:	2020                	fld	fs0,64(s0)
   1ca58:	2020                	fld	fs0,64(s0)
   1ca5a:	2020                	fld	fs0,64(s0)
   1ca5c:	2020                	fld	fs0,64(s0)
   1ca5e:	2020                	fld	fs0,64(s0)
   1ca60:	4820                	lw	s0,80(s0)
   1ca62:	7865                	lui	a6,0xffff9
   1ca64:	4620                	lw	s0,72(a2)
   1ca66:	7669                	lui	a2,0xffffa
   1ca68:	2065                	0x2065
   1ca6a:	754d                	lui	a0,0xffff3
   1ca6c:	746c                	ld	a1,232(s0)
   1ca6e:	5a69                	li	s4,-6
   1ca70:	c2656e6f          	jal	t3,fffffffffff72e96 <__BSS_END__+0xfffffffffff55df6>
   1ca74:	20ae                	fld	ft1,200(sp)
   1ca76:	75636553          	0x75636553
   1ca7a:	6972                	ld	s2,280(sp)
   1ca7c:	7974                	ld	a3,240(a0)
   1ca7e:	2020                	fld	fs0,64(s0)
   1ca80:	2020                	fld	fs0,64(s0)
   1ca82:	2020                	fld	fs0,64(s0)
   1ca84:	2020                	fld	fs0,64(s0)
   1ca86:	2020                	fld	fs0,64(s0)
   1ca88:	2020                	fld	fs0,64(s0)
   1ca8a:	2020                	fld	fs0,64(s0)
   1ca8c:	2020                	fld	fs0,64(s0)
   1ca8e:	2020                	fld	fs0,64(s0)
   1ca90:	0a20                	addi	s0,sp,280
   1ca92:	0000                	unimp
   1ca94:	2020                	fld	fs0,64(s0)
   1ca96:	2020                	fld	fs0,64(s0)
   1ca98:	2020                	fld	fs0,64(s0)
   1ca9a:	2020                	fld	fs0,64(s0)
   1ca9c:	2020                	fld	fs0,64(s0)
   1ca9e:	2020                	fld	fs0,64(s0)
   1caa0:	2020                	fld	fs0,64(s0)
   1caa2:	6150                	ld	a2,128(a0)
   1caa4:	6574                	ld	a3,200(a0)
   1caa6:	746e                	ld	s0,248(sp)
   1caa8:	53552073          	csrs	0x535,a0
   1caac:	3120                	fld	fs0,96(a0)
   1caae:	2c31                	addiw	s8,s8,12
   1cab0:	3531                	addiw	a0,a0,-20
   1cab2:	2c31                	addiw	s8,s8,12
   1cab4:	3632                	fld	fa2,296(sp)
   1cab6:	2032                	fld	ft0,264(sp)
   1cab8:	6e61                	lui	t3,0x18
   1caba:	2064                	fld	fs1,192(s0)
   1cabc:	4350                	lw	a2,4(a4)
   1cabe:	2f54                	fld	fa3,152(a4)
   1cac0:	5355                	li	t1,-11
   1cac2:	3032                	fld	ft0,296(sp)
   1cac4:	3931                	addiw	s2,s2,-20
   1cac6:	3833302f          	0x3833302f
   1caca:	20203737          	lui	a4,0x20203
   1cace:	2020                	fld	fs0,64(s0)
   1cad0:	2020                	fld	fs0,64(s0)
   1cad2:	2020                	fld	fs0,64(s0)
   1cad4:	2020                	fld	fs0,64(s0)
   1cad6:	2020                	fld	fs0,64(s0)
   1cad8:	000a                	c.slli	zero,0x2
   1cada:	0000                	unimp
   1cadc:	2020                	fld	fs0,64(s0)
   1cade:	2020                	fld	fs0,64(s0)
   1cae0:	79706f43          	fmadd.s	ft10,ft0,fs7,fa5,unknown
   1cae4:	6972                	ld	s2,280(sp)
   1cae6:	c2746867          	0xc2746867
   1caea:	20a9                	addiw	ra,ra,10
   1caec:	3032                	fld	ft0,296(sp)
   1caee:	3032                	fld	ft0,296(sp)
   1caf0:	4820                	lw	s0,80(s0)
   1caf2:	7865                	lui	a6,0xffff9
   1caf4:	4620                	lw	s0,72(a2)
   1caf6:	7669                	lui	a2,0xffffa
   1caf8:	2065                	0x2065
   1cafa:	75636553          	0x75636553
   1cafe:	6972                	ld	s2,280(sp)
   1cb00:	7974                	ld	a3,240(a0)
   1cb02:	202c                	fld	fa1,64(s0)
   1cb04:	6e49                	lui	t3,0x12
   1cb06:	2d202e63          	0x2d202e63
   1cb0a:	4120                	lw	s0,64(a0)
   1cb0c:	6c6c                	ld	a1,216(s0)
   1cb0e:	5220                	lw	s0,96(a2)
   1cb10:	6769                	lui	a4,0x1a
   1cb12:	7468                	ld	a0,232(s0)
   1cb14:	65522073          	csrs	0x655,tp
   1cb18:	76726573          	csrrsi	a0,0x767,4
   1cb1c:	6465                	lui	s0,0x19
   1cb1e:	2020                	fld	fs0,64(s0)
   1cb20:	0a20                	addi	s0,sp,280
   1cb22:	0000                	unimp
   1cb24:	6854                	ld	a3,144(s0)
   1cb26:	7369                	lui	t1,0xffffa
   1cb28:	7620                	ld	s0,104(a2)
   1cb2a:	7265                	lui	tp,0xffff9
   1cb2c:	6e6f6973          	csrrsi	s2,0x6e6,30
   1cb30:	6f20                	ld	s0,88(a4)
   1cb32:	2066                	fld	ft0,88(sp)
   1cb34:	754d                	lui	a0,0xffff3
   1cb36:	746c                	ld	a1,232(s0)
   1cb38:	5a69                	li	s4,-6
   1cb3a:	c2656e6f          	jal	t3,fffffffffff72f60 <__BSS_END__+0xfffffffffff55ec0>
   1cb3e:	20ae                	fld	ft1,200(sp)
   1cb40:	75636553          	0x75636553
   1cb44:	6972                	ld	s2,280(sp)
   1cb46:	7974                	ld	a3,240(a0)
   1cb48:	6920                	ld	s0,80(a0)
   1cb4a:	656d2073          	csrs	0x656,s10
   1cb4e:	6e61                	lui	t3,0x18
   1cb50:	2074                	fld	fa3,192(s0)
   1cb52:	6f66                	ld	t5,88(sp)
   1cb54:	2072                	fld	ft0,280(sp)
   1cb56:	7665                	lui	a2,0xffff9
   1cb58:	6c61                	lui	s8,0x18
   1cb5a:	6175                	addi	sp,sp,368
   1cb5c:	6974                	ld	a3,208(a0)
   1cb5e:	70206e6f          	jal	t3,23260 <__BSS_END__+0x61c0>
   1cb62:	7275                	lui	tp,0xffffd
   1cb64:	6f70                	ld	a2,216(a4)
   1cb66:	0a736573          	csrrsi	a0,0xa7,6
   1cb6a:	0000                	unimp
   1cb6c:	796c6e6f          	jal	t3,e3302 <__BSS_END__+0xc6262>
   1cb70:	202e                	fld	ft0,200(sp)
   1cb72:	7341                	lui	t1,0xffff0
   1cb74:	7320                	ld	s0,96(a4)
   1cb76:	6375                	lui	t1,0x1d
   1cb78:	2c68                	fld	fa0,216(s0)
   1cb7a:	7520                	ld	s0,104(a0)
   1cb7c:	6f206573          	csrrsi	a0,0x6f2,0
   1cb80:	2066                	fld	ft0,88(sp)
   1cb82:	6874                	ld	a3,208(s0)
   1cb84:	7369                	lui	t1,0xffffa
   1cb86:	7320                	ld	s0,96(a4)
   1cb88:	7774666f          	jal	a2,63afe <__BSS_END__+0x46a5e>
   1cb8c:	7261                	lui	tp,0xffff8
   1cb8e:	2065                	0x2065
   1cb90:	7369                	lui	t1,0xffffa
   1cb92:	6720                	ld	s0,72(a4)
   1cb94:	7265766f          	jal	a2,742ba <__BSS_END__+0x5721a>
   1cb98:	656e                	ld	a0,216(sp)
   1cb9a:	2064                	fld	fs1,192(s0)
   1cb9c:	7962                	ld	s2,56(sp)
   1cb9e:	7420                	ld	s0,104(s0)
   1cba0:	6568                	ld	a0,200(a0)
   1cba2:	4520                	lw	s0,72(a0)
   1cba4:	6176                	ld	sp,344(sp)
   1cba6:	756c                	ld	a1,232(a0)
   1cba8:	7461                	lui	s0,0xffff8
   1cbaa:	6f69                	lui	t5,0x1a
   1cbac:	206e                	fld	ft0,216(sp)
   1cbae:	2020                	fld	fs0,64(s0)
   1cbb0:	000a                	c.slli	zero,0x2
   1cbb2:	0000                	unimp
   1cbb4:	694c                	ld	a1,144(a0)
   1cbb6:	736e6563          	bltu	t3,s6,1d2e0 <__BSS_END__+0x240>
   1cbba:	2e65                	addiw	t3,t3,25
   1cbbc:	5420                	lw	s0,104(s0)
   1cbbe:	6568                	ld	a0,200(a0)
   1cbc0:	6572                	ld	a0,280(sp)
   1cbc2:	6d20                	ld	s0,88(a0)
   1cbc4:	7961                	lui	s2,0xffff8
   1cbc6:	6220                	ld	s0,64(a2)
   1cbc8:	2065                	0x2065
   1cbca:	6568746f          	jal	s0,a4220 <__BSS_END__+0x87180>
   1cbce:	2072                	fld	ft0,280(sp)
   1cbd0:	7566                	ld	a0,120(sp)
   1cbd2:	636e                	ld	t1,216(sp)
   1cbd4:	6974                	ld	a3,208(a0)
   1cbd6:	6c616e6f          	jal	t3,3329c <__BSS_END__+0x161fc>
   1cbda:	6c20                	ld	s0,88(s0)
   1cbdc:	6d69                	lui	s10,0x1a
   1cbde:	7469                	lui	s0,0xffffa
   1cbe0:	7461                	lui	s0,0xffff8
   1cbe2:	6f69                	lui	t5,0x1a
   1cbe4:	736e                	ld	t1,248(sp)
   1cbe6:	6120                	ld	s0,64(a0)
   1cbe8:	65642073          	csrs	0x656,s0
   1cbec:	69726373          	csrrsi	t1,0x697,4
   1cbf0:	6562                	ld	a0,24(sp)
   1cbf2:	2064                	fld	fs1,192(s0)
   1cbf4:	6e69                	lui	t3,0x1a
   1cbf6:	2020                	fld	fs0,64(s0)
   1cbf8:	000a                	c.slli	zero,0x2
   1cbfa:	0000                	unimp
   1cbfc:	6874                	ld	a3,208(s0)
   1cbfe:	2065                	0x2065
   1cc00:	7665                	lui	a2,0xffff9
   1cc02:	6c61                	lui	s8,0x18
   1cc04:	6175                	addi	sp,sp,368
   1cc06:	6974                	ld	a3,208(a0)
   1cc08:	53206e6f          	jal	t3,2313a <__BSS_END__+0x609a>
   1cc0c:	4b44                	lw	s1,20(a4)
   1cc0e:	6420                	ld	s0,72(s0)
   1cc10:	6d75636f          	jal	t1,73ae6 <__BSS_END__+0x56a46>
   1cc14:	6e65                	lui	t3,0x19
   1cc16:	6174                	ld	a3,192(a0)
   1cc18:	6974                	ld	a3,208(a0)
   1cc1a:	202e6e6f          	jal	t3,102e1c <__BSS_END__+0xe5d7c>
   1cc1e:	6854                	ld	a3,144(s0)
   1cc20:	2065                	0x2065
   1cc22:	6d6d6f63          	bltu	s10,s6,1d300 <__BSS_END__+0x260>
   1cc26:	7265                	lui	tp,0xffff9
   1cc28:	6c616963          	bltu	sp,t1,1d2fa <__BSS_END__+0x25a>
   1cc2c:	7620                	ld	s0,104(a2)
   1cc2e:	7265                	lui	tp,0xffff9
   1cc30:	6e6f6973          	csrrsi	s2,0x6e6,30
   1cc34:	6f20                	ld	s0,88(a4)
   1cc36:	2066                	fld	ft0,88(sp)
   1cc38:	6874                	ld	a3,208(s0)
   1cc3a:	2065                	0x2065
   1cc3c:	2020                	fld	fs0,64(s0)
   1cc3e:	2020                	fld	fs0,64(s0)
   1cc40:	000a                	c.slli	zero,0x2
   1cc42:	0000                	unimp
   1cc44:	74666f73          	csrrsi	t5,0x746,12
   1cc48:	65726177          	0x65726177
   1cc4c:	6420                	ld	s0,72(s0)
   1cc4e:	2073656f          	jal	a0,53654 <__BSS_END__+0x365b4>
   1cc52:	6f6e                	ld	t5,216(sp)
   1cc54:	2074                	fld	fa3,192(s0)
   1cc56:	6168                	ld	a0,192(a0)
   1cc58:	6576                	ld	a0,344(sp)
   1cc5a:	7420                	ld	s0,104(s0)
   1cc5c:	6568                	ld	a0,200(a0)
   1cc5e:	72206573          	csrrsi	a0,0x722,0
   1cc62:	7365                	lui	t1,0xffff9
   1cc64:	7274                	ld	a3,224(a2)
   1cc66:	6369                	lui	t1,0x1a
   1cc68:	6974                	ld	a3,208(a0)
   1cc6a:	2e736e6f          	jal	t3,53750 <__BSS_END__+0x366b0>
   1cc6e:	2020                	fld	fs0,64(s0)
   1cc70:	2020                	fld	fs0,64(s0)
   1cc72:	2020                	fld	fs0,64(s0)
   1cc74:	2020                	fld	fs0,64(s0)
   1cc76:	2020                	fld	fs0,64(s0)
   1cc78:	2020                	fld	fs0,64(s0)
   1cc7a:	2020                	fld	fs0,64(s0)
   1cc7c:	2020                	fld	fs0,64(s0)
   1cc7e:	2020                	fld	fs0,64(s0)
   1cc80:	2020                	fld	fs0,64(s0)
   1cc82:	2020                	fld	fs0,64(s0)
   1cc84:	2020                	fld	fs0,64(s0)
   1cc86:	2020                	fld	fs0,64(s0)
   1cc88:	000a                	c.slli	zero,0x2
   1cc8a:	0000                	unimp
   1cc8c:	0d0a                	slli	s10,s10,0x2
   1cc8e:	315a                	fld	ft2,432(sp)
   1cc90:	3e20                	fld	fs0,120(a2)
   1cc92:	0020                	addi	s0,sp,8
   1cc94:	9b16                	add	s6,s6,t0
   1cc96:	2040                	fld	fs0,128(s0)
   1cc98:	9a7e                	add	s4,s4,t6
   1cc9a:	2040                	fld	fs0,128(s0)
   1cc9c:	9a7e                	add	s4,s4,t6
   1cc9e:	2040                	fld	fs0,128(s0)
   1cca0:	9b20                	0x9b20
   1cca2:	2040                	fld	fs0,128(s0)
   1cca4:	9a7e                	add	s4,s4,t6
   1cca6:	2040                	fld	fs0,128(s0)
   1cca8:	9a7e                	add	s4,s4,t6
   1ccaa:	2040                	fld	fs0,128(s0)
   1ccac:	9a7e                	add	s4,s4,t6
   1ccae:	2040                	fld	fs0,128(s0)
   1ccb0:	9a7e                	add	s4,s4,t6
   1ccb2:	2040                	fld	fs0,128(s0)
   1ccb4:	9a7e                	add	s4,s4,t6
   1ccb6:	2040                	fld	fs0,128(s0)
   1ccb8:	9a7e                	add	s4,s4,t6
   1ccba:	2040                	fld	fs0,128(s0)
   1ccbc:	9a7e                	add	s4,s4,t6
   1ccbe:	2040                	fld	fs0,128(s0)
   1ccc0:	9b0c                	0x9b0c
   1ccc2:	2040                	fld	fs0,128(s0)
   1ccc4:	9a7e                	add	s4,s4,t6
   1ccc6:	2040                	fld	fs0,128(s0)
   1ccc8:	9b02                	jalr	s6
   1ccca:	2040                	fld	fs0,128(s0)
   1cccc:	9a7e                	add	s4,s4,t6
   1ccce:	2040                	fld	fs0,128(s0)
   1ccd0:	9a7e                	add	s4,s4,t6
   1ccd2:	2040                	fld	fs0,128(s0)
   1ccd4:	9af8                	0x9af8
   1ccd6:	2040                	fld	fs0,128(s0)
   1ccd8:	9ebe                	add	t4,t4,a5
   1ccda:	2040                	fld	fs0,128(s0)
   1ccdc:	9ed8                	0x9ed8
   1ccde:	2040                	fld	fs0,128(s0)
   1cce0:	9ed8                	0x9ed8
   1cce2:	2040                	fld	fs0,128(s0)
   1cce4:	9ed8                	0x9ed8
   1cce6:	2040                	fld	fs0,128(s0)
   1cce8:	9ed8                	0x9ed8
   1ccea:	2040                	fld	fs0,128(s0)
   1ccec:	9ed8                	0x9ed8
   1ccee:	2040                	fld	fs0,128(s0)
   1ccf0:	9ed8                	0x9ed8
   1ccf2:	2040                	fld	fs0,128(s0)
   1ccf4:	9ed8                	0x9ed8
   1ccf6:	2040                	fld	fs0,128(s0)
   1ccf8:	9ed8                	0x9ed8
   1ccfa:	2040                	fld	fs0,128(s0)
   1ccfc:	9ed8                	0x9ed8
   1ccfe:	2040                	fld	fs0,128(s0)
   1cd00:	9ed8                	0x9ed8
   1cd02:	2040                	fld	fs0,128(s0)
   1cd04:	9ed8                	0x9ed8
   1cd06:	2040                	fld	fs0,128(s0)
   1cd08:	9ed8                	0x9ed8
   1cd0a:	2040                	fld	fs0,128(s0)
   1cd0c:	9ed8                	0x9ed8
   1cd0e:	2040                	fld	fs0,128(s0)
   1cd10:	9ed8                	0x9ed8
   1cd12:	2040                	fld	fs0,128(s0)
   1cd14:	9ed8                	0x9ed8
   1cd16:	2040                	fld	fs0,128(s0)
   1cd18:	9ed8                	0x9ed8
   1cd1a:	2040                	fld	fs0,128(s0)
   1cd1c:	9ed8                	0x9ed8
   1cd1e:	2040                	fld	fs0,128(s0)
   1cd20:	9ed8                	0x9ed8
   1cd22:	2040                	fld	fs0,128(s0)
   1cd24:	9ed8                	0x9ed8
   1cd26:	2040                	fld	fs0,128(s0)
   1cd28:	9ed8                	0x9ed8
   1cd2a:	2040                	fld	fs0,128(s0)
   1cd2c:	9ed8                	0x9ed8
   1cd2e:	2040                	fld	fs0,128(s0)
   1cd30:	9ed8                	0x9ed8
   1cd32:	2040                	fld	fs0,128(s0)
   1cd34:	9ed8                	0x9ed8
   1cd36:	2040                	fld	fs0,128(s0)
   1cd38:	9ed8                	0x9ed8
   1cd3a:	2040                	fld	fs0,128(s0)
   1cd3c:	9ed8                	0x9ed8
   1cd3e:	2040                	fld	fs0,128(s0)
   1cd40:	9ed8                	0x9ed8
   1cd42:	2040                	fld	fs0,128(s0)
   1cd44:	9ed8                	0x9ed8
   1cd46:	2040                	fld	fs0,128(s0)
   1cd48:	9ed8                	0x9ed8
   1cd4a:	2040                	fld	fs0,128(s0)
   1cd4c:	9ed8                	0x9ed8
   1cd4e:	2040                	fld	fs0,128(s0)
   1cd50:	9ed8                	0x9ed8
   1cd52:	2040                	fld	fs0,128(s0)
   1cd54:	9ed8                	0x9ed8
   1cd56:	2040                	fld	fs0,128(s0)
   1cd58:	9ed8                	0x9ed8
   1cd5a:	2040                	fld	fs0,128(s0)
   1cd5c:	9ed8                	0x9ed8
   1cd5e:	2040                	fld	fs0,128(s0)
   1cd60:	9ed8                	0x9ed8
   1cd62:	2040                	fld	fs0,128(s0)
   1cd64:	9ed8                	0x9ed8
   1cd66:	2040                	fld	fs0,128(s0)
   1cd68:	9ed8                	0x9ed8
   1cd6a:	2040                	fld	fs0,128(s0)
   1cd6c:	9ed8                	0x9ed8
   1cd6e:	2040                	fld	fs0,128(s0)
   1cd70:	9ed8                	0x9ed8
   1cd72:	2040                	fld	fs0,128(s0)
   1cd74:	9ed8                	0x9ed8
   1cd76:	2040                	fld	fs0,128(s0)
   1cd78:	9ed8                	0x9ed8
   1cd7a:	2040                	fld	fs0,128(s0)
   1cd7c:	9ed8                	0x9ed8
   1cd7e:	2040                	fld	fs0,128(s0)
   1cd80:	9ed8                	0x9ed8
   1cd82:	2040                	fld	fs0,128(s0)
   1cd84:	9ed8                	0x9ed8
   1cd86:	2040                	fld	fs0,128(s0)
   1cd88:	9ed8                	0x9ed8
   1cd8a:	2040                	fld	fs0,128(s0)
   1cd8c:	9ed8                	0x9ed8
   1cd8e:	2040                	fld	fs0,128(s0)
   1cd90:	9ed8                	0x9ed8
   1cd92:	2040                	fld	fs0,128(s0)
   1cd94:	9ed8                	0x9ed8
   1cd96:	2040                	fld	fs0,128(s0)
   1cd98:	9ed8                	0x9ed8
   1cd9a:	2040                	fld	fs0,128(s0)
   1cd9c:	9ed8                	0x9ed8
   1cd9e:	2040                	fld	fs0,128(s0)
   1cda0:	9ed8                	0x9ed8
   1cda2:	2040                	fld	fs0,128(s0)
   1cda4:	9bfc                	0x9bfc
   1cda6:	2040                	fld	fs0,128(s0)
   1cda8:	9ed8                	0x9ed8
   1cdaa:	2040                	fld	fs0,128(s0)
   1cdac:	9ed8                	0x9ed8
   1cdae:	2040                	fld	fs0,128(s0)
   1cdb0:	9ed8                	0x9ed8
   1cdb2:	2040                	fld	fs0,128(s0)
   1cdb4:	9ed8                	0x9ed8
   1cdb6:	2040                	fld	fs0,128(s0)
   1cdb8:	9ed8                	0x9ed8
   1cdba:	2040                	fld	fs0,128(s0)
   1cdbc:	9ed8                	0x9ed8
   1cdbe:	2040                	fld	fs0,128(s0)
   1cdc0:	9ed8                	0x9ed8
   1cdc2:	2040                	fld	fs0,128(s0)
   1cdc4:	9ed8                	0x9ed8
   1cdc6:	2040                	fld	fs0,128(s0)
   1cdc8:	9ed8                	0x9ed8
   1cdca:	2040                	fld	fs0,128(s0)
   1cdcc:	9bfc                	0x9bfc
   1cdce:	2040                	fld	fs0,128(s0)
   1cdd0:	9d70                	0x9d70
   1cdd2:	2040                	fld	fs0,128(s0)
   1cdd4:	9bfc                	0x9bfc
   1cdd6:	2040                	fld	fs0,128(s0)
   1cdd8:	9ed8                	0x9ed8
   1cdda:	2040                	fld	fs0,128(s0)
   1cddc:	9ed8                	0x9ed8
   1cdde:	2040                	fld	fs0,128(s0)
   1cde0:	9ed8                	0x9ed8
   1cde2:	2040                	fld	fs0,128(s0)
   1cde4:	9ed8                	0x9ed8
   1cde6:	2040                	fld	fs0,128(s0)
   1cde8:	9bfc                	0x9bfc
   1cdea:	2040                	fld	fs0,128(s0)
   1cdec:	9ed8                	0x9ed8
   1cdee:	2040                	fld	fs0,128(s0)
   1cdf0:	9ed8                	0x9ed8
   1cdf2:	2040                	fld	fs0,128(s0)
   1cdf4:	9ed8                	0x9ed8
   1cdf6:	2040                	fld	fs0,128(s0)
   1cdf8:	9ed8                	0x9ed8
   1cdfa:	2040                	fld	fs0,128(s0)
   1cdfc:	9ed8                	0x9ed8
   1cdfe:	2040                	fld	fs0,128(s0)
   1ce00:	9bfc                	0x9bfc
   1ce02:	2040                	fld	fs0,128(s0)
   1ce04:	9e8e                	add	t4,t4,gp
   1ce06:	2040                	fld	fs0,128(s0)
   1ce08:	9ed8                	0x9ed8
   1ce0a:	2040                	fld	fs0,128(s0)
   1ce0c:	9ed8                	0x9ed8
   1ce0e:	2040                	fld	fs0,128(s0)
   1ce10:	9dda                	add	s11,s11,s6
   1ce12:	2040                	fld	fs0,128(s0)
   1ce14:	9ed8                	0x9ed8
   1ce16:	2040                	fld	fs0,128(s0)
   1ce18:	9bfc                	0x9bfc
   1ce1a:	2040                	fld	fs0,128(s0)
   1ce1c:	9ed8                	0x9ed8
   1ce1e:	2040                	fld	fs0,128(s0)
   1ce20:	9ed8                	0x9ed8
   1ce22:	2040                	fld	fs0,128(s0)
   1ce24:	9bfc                	0x9bfc
   1ce26:	2040                	fld	fs0,128(s0)
   1ce28:	0100                	addi	s0,sp,128
   1ce2a:	0202                	c.slli64	tp
   1ce2c:	03030303          	lb	t1,48(t1) # 1a030 <__DATA_BEGIN__+0x8fb8>
   1ce30:	0404                	addi	s1,sp,512
   1ce32:	0404                	addi	s1,sp,512
   1ce34:	0404                	addi	s1,sp,512
   1ce36:	0404                	addi	s1,sp,512
   1ce38:	0505                	addi	a0,a0,1
   1ce3a:	0505                	addi	a0,a0,1
   1ce3c:	0505                	addi	a0,a0,1
   1ce3e:	0505                	addi	a0,a0,1
   1ce40:	0505                	addi	a0,a0,1
   1ce42:	0505                	addi	a0,a0,1
   1ce44:	0505                	addi	a0,a0,1
   1ce46:	0505                	addi	a0,a0,1
   1ce48:	0606                	slli	a2,a2,0x1
   1ce4a:	0606                	slli	a2,a2,0x1
   1ce4c:	0606                	slli	a2,a2,0x1
   1ce4e:	0606                	slli	a2,a2,0x1
   1ce50:	0606                	slli	a2,a2,0x1
   1ce52:	0606                	slli	a2,a2,0x1
   1ce54:	0606                	slli	a2,a2,0x1
   1ce56:	0606                	slli	a2,a2,0x1
   1ce58:	0606                	slli	a2,a2,0x1
   1ce5a:	0606                	slli	a2,a2,0x1
   1ce5c:	0606                	slli	a2,a2,0x1
   1ce5e:	0606                	slli	a2,a2,0x1
   1ce60:	0606                	slli	a2,a2,0x1
   1ce62:	0606                	slli	a2,a2,0x1
   1ce64:	0606                	slli	a2,a2,0x1
   1ce66:	0606                	slli	a2,a2,0x1
   1ce68:	07070707          	0x7070707
   1ce6c:	07070707          	0x7070707
   1ce70:	07070707          	0x7070707
   1ce74:	07070707          	0x7070707
   1ce78:	07070707          	0x7070707
   1ce7c:	07070707          	0x7070707
   1ce80:	07070707          	0x7070707
   1ce84:	07070707          	0x7070707
   1ce88:	07070707          	0x7070707
   1ce8c:	07070707          	0x7070707
   1ce90:	07070707          	0x7070707
   1ce94:	07070707          	0x7070707
   1ce98:	07070707          	0x7070707
   1ce9c:	07070707          	0x7070707
   1cea0:	07070707          	0x7070707
   1cea4:	07070707          	0x7070707
   1cea8:	0808                	addi	a0,sp,16
   1ceaa:	0808                	addi	a0,sp,16
   1ceac:	0808                	addi	a0,sp,16
   1ceae:	0808                	addi	a0,sp,16
   1ceb0:	0808                	addi	a0,sp,16
   1ceb2:	0808                	addi	a0,sp,16
   1ceb4:	0808                	addi	a0,sp,16
   1ceb6:	0808                	addi	a0,sp,16
   1ceb8:	0808                	addi	a0,sp,16
   1ceba:	0808                	addi	a0,sp,16
   1cebc:	0808                	addi	a0,sp,16
   1cebe:	0808                	addi	a0,sp,16
   1cec0:	0808                	addi	a0,sp,16
   1cec2:	0808                	addi	a0,sp,16
   1cec4:	0808                	addi	a0,sp,16
   1cec6:	0808                	addi	a0,sp,16
   1cec8:	0808                	addi	a0,sp,16
   1ceca:	0808                	addi	a0,sp,16
   1cecc:	0808                	addi	a0,sp,16
   1cece:	0808                	addi	a0,sp,16
   1ced0:	0808                	addi	a0,sp,16
   1ced2:	0808                	addi	a0,sp,16
   1ced4:	0808                	addi	a0,sp,16
   1ced6:	0808                	addi	a0,sp,16
   1ced8:	0808                	addi	a0,sp,16
   1ceda:	0808                	addi	a0,sp,16
   1cedc:	0808                	addi	a0,sp,16
   1cede:	0808                	addi	a0,sp,16
   1cee0:	0808                	addi	a0,sp,16
   1cee2:	0808                	addi	a0,sp,16
   1cee4:	0808                	addi	a0,sp,16
   1cee6:	0808                	addi	a0,sp,16
   1cee8:	0808                	addi	a0,sp,16
   1ceea:	0808                	addi	a0,sp,16
   1ceec:	0808                	addi	a0,sp,16
   1ceee:	0808                	addi	a0,sp,16
   1cef0:	0808                	addi	a0,sp,16
   1cef2:	0808                	addi	a0,sp,16
   1cef4:	0808                	addi	a0,sp,16
   1cef6:	0808                	addi	a0,sp,16
   1cef8:	0808                	addi	a0,sp,16
   1cefa:	0808                	addi	a0,sp,16
   1cefc:	0808                	addi	a0,sp,16
   1cefe:	0808                	addi	a0,sp,16
   1cf00:	0808                	addi	a0,sp,16
   1cf02:	0808                	addi	a0,sp,16
   1cf04:	0808                	addi	a0,sp,16
   1cf06:	0808                	addi	a0,sp,16
   1cf08:	0808                	addi	a0,sp,16
   1cf0a:	0808                	addi	a0,sp,16
   1cf0c:	0808                	addi	a0,sp,16
   1cf0e:	0808                	addi	a0,sp,16
   1cf10:	0808                	addi	a0,sp,16
   1cf12:	0808                	addi	a0,sp,16
   1cf14:	0808                	addi	a0,sp,16
   1cf16:	0808                	addi	a0,sp,16
   1cf18:	0808                	addi	a0,sp,16
   1cf1a:	0808                	addi	a0,sp,16
   1cf1c:	0808                	addi	a0,sp,16
   1cf1e:	0808                	addi	a0,sp,16
   1cf20:	0808                	addi	a0,sp,16
   1cf22:	0808                	addi	a0,sp,16
   1cf24:	0808                	addi	a0,sp,16
   1cf26:	0808                	addi	a0,sp,16
   1cf28:	2000                	fld	fs0,0(s0)
   1cf2a:	2020                	fld	fs0,64(s0)
   1cf2c:	2020                	fld	fs0,64(s0)
   1cf2e:	2020                	fld	fs0,64(s0)
   1cf30:	2020                	fld	fs0,64(s0)
   1cf32:	2828                	fld	fa0,80(s0)
   1cf34:	2828                	fld	fa0,80(s0)
   1cf36:	2028                	fld	fa0,64(s0)
   1cf38:	2020                	fld	fs0,64(s0)
   1cf3a:	2020                	fld	fs0,64(s0)
   1cf3c:	2020                	fld	fs0,64(s0)
   1cf3e:	2020                	fld	fs0,64(s0)
   1cf40:	2020                	fld	fs0,64(s0)
   1cf42:	2020                	fld	fs0,64(s0)
   1cf44:	2020                	fld	fs0,64(s0)
   1cf46:	2020                	fld	fs0,64(s0)
   1cf48:	8820                	0x8820
   1cf4a:	1010                	addi	a2,sp,32
   1cf4c:	1010                	addi	a2,sp,32
   1cf4e:	1010                	addi	a2,sp,32
   1cf50:	1010                	addi	a2,sp,32
   1cf52:	1010                	addi	a2,sp,32
   1cf54:	1010                	addi	a2,sp,32
   1cf56:	1010                	addi	a2,sp,32
   1cf58:	0410                	addi	a2,sp,512
   1cf5a:	0404                	addi	s1,sp,512
   1cf5c:	0404                	addi	s1,sp,512
   1cf5e:	0404                	addi	s1,sp,512
   1cf60:	0404                	addi	s1,sp,512
   1cf62:	1004                	addi	s1,sp,32
   1cf64:	1010                	addi	a2,sp,32
   1cf66:	1010                	addi	a2,sp,32
   1cf68:	1010                	addi	a2,sp,32
   1cf6a:	4141                	li	sp,16
   1cf6c:	4141                	li	sp,16
   1cf6e:	4141                	li	sp,16
   1cf70:	0101                	addi	sp,sp,0
   1cf72:	0101                	addi	sp,sp,0
   1cf74:	0101                	addi	sp,sp,0
   1cf76:	0101                	addi	sp,sp,0
   1cf78:	0101                	addi	sp,sp,0
   1cf7a:	0101                	addi	sp,sp,0
   1cf7c:	0101                	addi	sp,sp,0
   1cf7e:	0101                	addi	sp,sp,0
   1cf80:	0101                	addi	sp,sp,0
   1cf82:	0101                	addi	sp,sp,0
   1cf84:	1010                	addi	a2,sp,32
   1cf86:	1010                	addi	a2,sp,32
   1cf88:	1010                	addi	a2,sp,32
   1cf8a:	4242                	lw	tp,16(sp)
   1cf8c:	4242                	lw	tp,16(sp)
   1cf8e:	4242                	lw	tp,16(sp)
   1cf90:	0202                	c.slli64	tp
   1cf92:	0202                	c.slli64	tp
   1cf94:	0202                	c.slli64	tp
   1cf96:	0202                	c.slli64	tp
   1cf98:	0202                	c.slli64	tp
   1cf9a:	0202                	c.slli64	tp
   1cf9c:	0202                	c.slli64	tp
   1cf9e:	0202                	c.slli64	tp
   1cfa0:	0202                	c.slli64	tp
   1cfa2:	0202                	c.slli64	tp
   1cfa4:	1010                	addi	a2,sp,32
   1cfa6:	1010                	addi	a2,sp,32
   1cfa8:	0020                	addi	s0,sp,8
	...
   1d08e:	0000                	unimp
   1d090:	3000                	fld	fs0,32(s0)
   1d092:	8000                	0x8000
   1d094:	ffff                	0xffff
   1d096:	ffff                	0xffff
   1d098:	3000                	fld	fs0,32(s0)
   1d09a:	8000                	0x8000
